
2-test-malloc.elf:     file format elf32-littlearm


Disassembly of section .text:

00008000 <__code_start__>:
    8000:	e3a00013 	mov	r0, #19, 0
    8004:	e3800080 	orr	r0, r0, #128, 0	; 0x80
    8008:	e129f000 	msr	CPSR_fc, r0
    800c:	e3a01000 	mov	r1, #0, 0
    8010:	ee071f95 	mcr	15, 0, r1, cr7, cr5, {4}
    8014:	e3a0d302 	mov	sp, #134217728	; 0x8000000
    8018:	e3a0b000 	mov	fp, #0, 0
    801c:	eb00035e 	bl	8d9c <_cstart>
    8020:	eb000378 	bl	8e08 <rpi_reboot>

00008024 <PUT32>:
    8024:	e5801000 	str	r1, [r0]
    8028:	e12fff1e 	bx	lr

0000802c <GET32>:
    802c:	e5900000 	ldr	r0, [r0]
    8030:	e12fff1e 	bx	lr

00008034 <BRANCHTO>:
    8034:	e12fff10 	bx	r0

00008038 <test_alloc_free>:
    8038:	e92d40f0 	push	{r4, r5, r6, r7, lr}
    803c:	e24dd014 	sub	sp, sp, #20, 0
    8040:	e1a07000 	mov	r7, r0
    8044:	e1a00100 	lsl	r0, r0, #2
    8048:	eb0000fa 	bl	8438 <kr_malloc>
    804c:	e1a05000 	mov	r5, r0
    8050:	e3a04000 	mov	r4, #0, 0
    8054:	e1a06007 	mov	r6, r7
    8058:	e1570004 	cmp	r7, r4
    805c:	da000018 	ble	80c4 <test_alloc_free+0x8c>
    8060:	e0856104 	add	r6, r5, r4, lsl #2
    8064:	e3a00001 	mov	r0, #1, 0
    8068:	eb0000f2 	bl	8438 <kr_malloc>
    806c:	e7850104 	str	r0, [r5, r4, lsl #2]
    8070:	e6ef3074 	uxtb	r3, r4
    8074:	e5c03000 	strb	r3, [r0]
    8078:	e7952104 	ldr	r2, [r5, r4, lsl #2]
    807c:	e5d22000 	ldrb	r2, [r2]
    8080:	e1530002 	cmp	r3, r2
    8084:	02844001 	addeq	r4, r4, #1, 0
    8088:	0afffff1 	beq	8054 <test_alloc_free+0x1c>
    808c:	eb000150 	bl	85d4 <rpi_reset_putc>
    8090:	e5963000 	ldr	r3, [r6]
    8094:	e5d33000 	ldrb	r3, [r3]
    8098:	e58d400c 	str	r4, [sp, #12]
    809c:	e58d3008 	str	r3, [sp, #8]
    80a0:	e58d4004 	str	r4, [sp, #4]
    80a4:	e59f308c 	ldr	r3, [pc, #140]	; 8138 <test_alloc_free+0x100>
    80a8:	e58d3000 	str	r3, [sp]
    80ac:	e3a03013 	mov	r3, #19, 0
    80b0:	e59f2084 	ldr	r2, [pc, #132]	; 813c <test_alloc_free+0x104>
    80b4:	e59f1084 	ldr	r1, [pc, #132]	; 8140 <test_alloc_free+0x108>
    80b8:	e59f0084 	ldr	r0, [pc, #132]	; 8144 <test_alloc_free+0x10c>
    80bc:	eb000129 	bl	8568 <printk>
    80c0:	eb00032a 	bl	8d70 <clean_reboot>
    80c4:	e3a03000 	mov	r3, #0, 0
    80c8:	e1560003 	cmp	r6, r3
    80cc:	da00000d 	ble	8108 <test_alloc_free+0xd0>
    80d0:	e7952103 	ldr	r2, [r5, r3, lsl #2]
    80d4:	e5d21000 	ldrb	r1, [r2]
    80d8:	e6ef2073 	uxtb	r2, r3
    80dc:	e1510002 	cmp	r1, r2
    80e0:	02833001 	addeq	r3, r3, #1, 0
    80e4:	0afffff7 	beq	80c8 <test_alloc_free+0x90>
    80e8:	e59f3048 	ldr	r3, [pc, #72]	; 8138 <test_alloc_free+0x100>
    80ec:	e58d3000 	str	r3, [sp]
    80f0:	e3a0301b 	mov	r3, #27, 0
    80f4:	e59f2040 	ldr	r2, [pc, #64]	; 813c <test_alloc_free+0x104>
    80f8:	e59f1040 	ldr	r1, [pc, #64]	; 8140 <test_alloc_free+0x108>
    80fc:	e59f0044 	ldr	r0, [pc, #68]	; 8148 <test_alloc_free+0x110>
    8100:	eb000118 	bl	8568 <printk>
    8104:	eb000319 	bl	8d70 <clean_reboot>
    8108:	e3a04000 	mov	r4, #0, 0
    810c:	ea000002 	b	811c <test_alloc_free+0xe4>
    8110:	e7950104 	ldr	r0, [r5, r4, lsl #2]
    8114:	eb000074 	bl	82ec <kr_free>
    8118:	e2844001 	add	r4, r4, #1, 0
    811c:	e1560004 	cmp	r6, r4
    8120:	cafffffa 	bgt	8110 <test_alloc_free+0xd8>
    8124:	e1a00005 	mov	r0, r5
    8128:	eb00006f 	bl	82ec <kr_free>
    812c:	e1a00005 	mov	r0, r5
    8130:	e28dd014 	add	sp, sp, #20, 0
    8134:	e8bd80f0 	pop	{r4, r5, r6, r7, pc}
    8138:	000092fc 	strdeq	r9, [r0], -ip
    813c:	0000937c 	andeq	r9, r0, ip, ror r3
    8140:	000092b8 			; <UNDEFINED> instruction: 0x000092b8
    8144:	000092c8 	andeq	r9, r0, r8, asr #5
    8148:	00009314 	andeq	r9, r0, r4, lsl r3

0000814c <notmain>:
    814c:	e92d4030 	push	{r4, r5, lr}
    8150:	e24dd00c 	sub	sp, sp, #12, 0
    8154:	e3a00080 	mov	r0, #128, 0	; 0x80
    8158:	ebffffb6 	bl	8038 <test_alloc_free>
    815c:	e1a05000 	mov	r5, r0
    8160:	e3a04000 	mov	r4, #0, 0
    8164:	e3540009 	cmp	r4, #9, 0
    8168:	ca000010 	bgt	81b0 <notmain+0x64>
    816c:	e3a00080 	mov	r0, #128, 0	; 0x80
    8170:	ebffffb0 	bl	8038 <test_alloc_free>
    8174:	e1550000 	cmp	r5, r0
    8178:	1a000004 	bne	8190 <notmain+0x44>
    817c:	e1a01004 	mov	r1, r4
    8180:	e59f0038 	ldr	r0, [pc, #56]	; 81c0 <notmain+0x74>
    8184:	eb0000f7 	bl	8568 <printk>
    8188:	e2844001 	add	r4, r4, #1, 0
    818c:	eafffff4 	b	8164 <notmain+0x18>
    8190:	e59f302c 	ldr	r3, [pc, #44]	; 81c4 <notmain+0x78>
    8194:	e58d3000 	str	r3, [sp]
    8198:	e3a03030 	mov	r3, #48, 0	; 0x30
    819c:	e59f2024 	ldr	r2, [pc, #36]	; 81c8 <notmain+0x7c>
    81a0:	e59f1024 	ldr	r1, [pc, #36]	; 81cc <notmain+0x80>
    81a4:	e59f0024 	ldr	r0, [pc, #36]	; 81d0 <notmain+0x84>
    81a8:	eb0000ee 	bl	8568 <printk>
    81ac:	eb0002ef 	bl	8d70 <clean_reboot>
    81b0:	e59f001c 	ldr	r0, [pc, #28]	; 81d4 <notmain+0x88>
    81b4:	eb0000eb 	bl	8568 <printk>
    81b8:	e28dd00c 	add	sp, sp, #12, 0
    81bc:	e8bd8030 	pop	{r4, r5, pc}
    81c0:	00009334 	andeq	r9, r0, r4, lsr r3
    81c4:	00009328 	andeq	r9, r0, r8, lsr #6
    81c8:	0000938c 	andeq	r9, r0, ip, lsl #7
    81cc:	000092b8 			; <UNDEFINED> instruction: 0x000092b8
    81d0:	00009314 	andeq	r9, r0, r4, lsl r3
    81d4:	00009350 	andeq	r9, r0, r0, asr r3

000081d8 <u2str>:
    81d8:	e3500000 	cmp	r0, #0, 0
    81dc:	0a00000d 	beq	8218 <u2str+0x40>
    81e0:	e3a02000 	mov	r2, #0, 0
    81e4:	e3500000 	cmp	r0, #0, 0
    81e8:	0a00000f 	beq	822c <u2str+0x54>
    81ec:	e59f307c 	ldr	r3, [pc, #124]	; 8270 <u2str+0x98>
    81f0:	e083c093 	umull	ip, r3, r3, r0
    81f4:	e1a031a3 	lsr	r3, r3, #3
    81f8:	e1a0c003 	mov	ip, r3
    81fc:	e0833103 	add	r3, r3, r3, lsl #2
    8200:	e0403083 	sub	r3, r0, r3, lsl #1
    8204:	e2833030 	add	r3, r3, #48, 0	; 0x30
    8208:	e7c13002 	strb	r3, [r1, r2]
    820c:	e1a0000c 	mov	r0, ip
    8210:	e2822001 	add	r2, r2, #1, 0
    8214:	eafffff2 	b	81e4 <u2str+0xc>
    8218:	e3a03030 	mov	r3, #48, 0	; 0x30
    821c:	e5c13000 	strb	r3, [r1]
    8220:	e3a03000 	mov	r3, #0, 0
    8224:	e5c13001 	strb	r3, [r1, #1]
    8228:	e12fff1e 	bx	lr
    822c:	e3a03000 	mov	r3, #0, 0
    8230:	e7c13002 	strb	r3, [r1, r2]
    8234:	e0820fa2 	add	r0, r2, r2, lsr #31
    8238:	e15300c0 	cmp	r3, r0, asr #1
    823c:	a12fff1e 	bxge	lr
    8240:	e52de004 	push	{lr}		; (str lr, [sp, #-4]!)
    8244:	e7d1c003 	ldrb	ip, [r1, r3]
    8248:	e2420001 	sub	r0, r2, #1, 0
    824c:	e0400003 	sub	r0, r0, r3
    8250:	e7d1e000 	ldrb	lr, [r1, r0]
    8254:	e7c1e003 	strb	lr, [r1, r3]
    8258:	e7c1c000 	strb	ip, [r1, r0]
    825c:	e2833001 	add	r3, r3, #1, 0
    8260:	e0820fa2 	add	r0, r2, r2, lsr #31
    8264:	e15300c0 	cmp	r3, r0, asr #1
    8268:	bafffff5 	blt	8244 <u2str+0x6c>
    826c:	e49df004 	pop	{pc}		; (ldr pc, [sp], #4)
    8270:	cccccccd 	stclgt	12, cr12, [ip], {205}	; 0xcd

00008274 <putu>:
    8274:	e52de004 	push	{lr}		; (str lr, [sp, #-4]!)
    8278:	e24dd024 	sub	sp, sp, #36, 0	; 0x24
    827c:	e1a0100d 	mov	r1, sp
    8280:	ebffffd4 	bl	81d8 <u2str>
    8284:	e28dd024 	add	sp, sp, #36, 0	; 0x24
    8288:	e49df004 	pop	{pc}		; (ldr pc, [sp], #4)

0000828c <my_sbrk>:
    828c:	e92d4070 	push	{r4, r5, r6, lr}
    8290:	e2504000 	subs	r4, r0, #0, 0
    8294:	ba000010 	blt	82dc <my_sbrk+0x50>
    8298:	e59f5048 	ldr	r5, [pc, #72]	; 82e8 <my_sbrk+0x5c>
    829c:	e5950000 	ldr	r0, [r5]
    82a0:	ebfffff3 	bl	8274 <putu>
    82a4:	e1a00004 	mov	r0, r4
    82a8:	ebfffff1 	bl	8274 <putu>
    82ac:	e5955000 	ldr	r5, [r5]
    82b0:	e0850004 	add	r0, r5, r4
    82b4:	e3500805 	cmp	r0, #327680	; 0x50000
    82b8:	83e05000 	mvnhi	r5, #0, 0
    82bc:	8a000007 	bhi	82e0 <my_sbrk+0x54>
    82c0:	e59f4020 	ldr	r4, [pc, #32]	; 82e8 <my_sbrk+0x5c>
    82c4:	e5840000 	str	r0, [r4]
    82c8:	e1a00005 	mov	r0, r5
    82cc:	ebffffe8 	bl	8274 <putu>
    82d0:	e5940000 	ldr	r0, [r4]
    82d4:	ebffffe6 	bl	8274 <putu>
    82d8:	ea000000 	b	82e0 <my_sbrk+0x54>
    82dc:	e3e05000 	mvn	r5, #0, 0
    82e0:	e1a00005 	mov	r0, r5
    82e4:	e8bd8070 	pop	{r4, r5, r6, pc}
    82e8:	00009508 	andeq	r9, r0, r8, lsl #10

000082ec <kr_free>:
    82ec:	e92d4070 	push	{r4, r5, r6, lr}
    82f0:	e2505000 	subs	r5, r0, #0, 0
    82f4:	08bd8070 	popeq	{r4, r5, r6, pc}
    82f8:	e2454008 	sub	r4, r5, #8, 0
    82fc:	e1a00004 	mov	r0, r4
    8300:	ebffffdb 	bl	8274 <putu>
    8304:	e5150004 	ldr	r0, [r5, #-4]
    8308:	ebffffd9 	bl	8274 <putu>
    830c:	e59f30e4 	ldr	r3, [pc, #228]	; 83f8 <kr_free+0x10c>
    8310:	e5933000 	ldr	r3, [r3]
    8314:	e3530000 	cmp	r3, #0, 0
    8318:	0a000003 	beq	832c <kr_free+0x40>
    831c:	e3530902 	cmp	r3, #32768	; 0x8000
    8320:	3a000001 	bcc	832c <kr_free+0x40>
    8324:	e3530302 	cmp	r3, #134217728	; 0x8000000
    8328:	9a000005 	bls	8344 <kr_free+0x58>
    832c:	e59f30c4 	ldr	r3, [pc, #196]	; 83f8 <kr_free+0x10c>
    8330:	e2832004 	add	r2, r3, #4, 0
    8334:	e5832004 	str	r2, [r3, #4]
    8338:	e3a01000 	mov	r1, #0, 0
    833c:	e5831008 	str	r1, [r3, #8]
    8340:	e5832000 	str	r2, [r3]
    8344:	e59f30ac 	ldr	r3, [pc, #172]	; 83f8 <kr_free+0x10c>
    8348:	e5930000 	ldr	r0, [r3]
    834c:	ea000000 	b	8354 <kr_free+0x68>
    8350:	e1a00003 	mov	r0, r3
    8354:	e1500004 	cmp	r0, r4
    8358:	2a000002 	bcs	8368 <kr_free+0x7c>
    835c:	e5903000 	ldr	r3, [r0]
    8360:	e1530004 	cmp	r3, r4
    8364:	8a000007 	bhi	8388 <kr_free+0x9c>
    8368:	e5903000 	ldr	r3, [r0]
    836c:	e1530000 	cmp	r3, r0
    8370:	8afffff6 	bhi	8350 <kr_free+0x64>
    8374:	e1500004 	cmp	r0, r4
    8378:	3a000002 	bcc	8388 <kr_free+0x9c>
    837c:	e1530004 	cmp	r3, r4
    8380:	91a00003 	movls	r0, r3
    8384:	9afffff2 	bls	8354 <kr_free+0x68>
    8388:	e5152004 	ldr	r2, [r5, #-4]
    838c:	e0841182 	add	r1, r4, r2, lsl #3
    8390:	e5903000 	ldr	r3, [r0]
    8394:	e1510003 	cmp	r1, r3
    8398:	0a000009 	beq	83c4 <kr_free+0xd8>
    839c:	e5053008 	str	r3, [r5, #-8]
    83a0:	e5903004 	ldr	r3, [r0, #4]
    83a4:	e0802183 	add	r2, r0, r3, lsl #3
    83a8:	e1520004 	cmp	r2, r4
    83ac:	0a00000b 	beq	83e0 <kr_free+0xf4>
    83b0:	e5804000 	str	r4, [r0]
    83b4:	e59f303c 	ldr	r3, [pc, #60]	; 83f8 <kr_free+0x10c>
    83b8:	e5830000 	str	r0, [r3]
    83bc:	ebffffac 	bl	8274 <putu>
    83c0:	e8bd8070 	pop	{r4, r5, r6, pc}
    83c4:	e5933004 	ldr	r3, [r3, #4]
    83c8:	e0822003 	add	r2, r2, r3
    83cc:	e5052004 	str	r2, [r5, #-4]
    83d0:	e5903000 	ldr	r3, [r0]
    83d4:	e5933000 	ldr	r3, [r3]
    83d8:	e5053008 	str	r3, [r5, #-8]
    83dc:	eaffffef 	b	83a0 <kr_free+0xb4>
    83e0:	e5152004 	ldr	r2, [r5, #-4]
    83e4:	e0833002 	add	r3, r3, r2
    83e8:	e5803004 	str	r3, [r0, #4]
    83ec:	e5153008 	ldr	r3, [r5, #-8]
    83f0:	e5803000 	str	r3, [r0]
    83f4:	eaffffee 	b	83b4 <kr_free+0xc8>
    83f8:	00009514 	andeq	r9, r0, r4, lsl r5

000083fc <my_morecore>:
    83fc:	e92d4010 	push	{r4, lr}
    8400:	e1a04000 	mov	r4, r0
    8404:	e1a00180 	lsl	r0, r0, #3
    8408:	ebffff9f 	bl	828c <my_sbrk>
    840c:	e3700001 	cmn	r0, #1, 0
    8410:	0a000005 	beq	842c <my_morecore+0x30>
    8414:	e5804004 	str	r4, [r0, #4]
    8418:	e2800008 	add	r0, r0, #8, 0
    841c:	ebffffb2 	bl	82ec <kr_free>
    8420:	e59f300c 	ldr	r3, [pc, #12]	; 8434 <my_morecore+0x38>
    8424:	e5930000 	ldr	r0, [r3]
    8428:	e8bd8010 	pop	{r4, pc}
    842c:	e3a00000 	mov	r0, #0, 0
    8430:	e8bd8010 	pop	{r4, pc}
    8434:	00009514 	andeq	r9, r0, r4, lsl r5

00008438 <kr_malloc>:
    8438:	e92d4070 	push	{r4, r5, r6, lr}
    843c:	e3500000 	cmp	r0, #0, 0
    8440:	0a000045 	beq	855c <kr_malloc+0x124>
    8444:	e2800007 	add	r0, r0, #7, 0
    8448:	e1a051a0 	lsr	r5, r0, #3
    844c:	e2855001 	add	r5, r5, #1, 0
    8450:	e59f310c 	ldr	r3, [pc, #268]	; 8564 <kr_malloc+0x12c>
    8454:	e5933000 	ldr	r3, [r3]
    8458:	e3530000 	cmp	r3, #0, 0
    845c:	0a000003 	beq	8470 <kr_malloc+0x38>
    8460:	e3530902 	cmp	r3, #32768	; 0x8000
    8464:	3a000001 	bcc	8470 <kr_malloc+0x38>
    8468:	e3530302 	cmp	r3, #134217728	; 0x8000000
    846c:	9a00000a 	bls	849c <kr_malloc+0x64>
    8470:	e59f40ec 	ldr	r4, [pc, #236]	; 8564 <kr_malloc+0x12c>
    8474:	e2840004 	add	r0, r4, #4, 0
    8478:	e5840004 	str	r0, [r4, #4]
    847c:	e3a03000 	mov	r3, #0, 0
    8480:	e5843008 	str	r3, [r4, #8]
    8484:	e5840000 	str	r0, [r4]
    8488:	ebffff79 	bl	8274 <putu>
    848c:	e5940004 	ldr	r0, [r4, #4]
    8490:	ebffff77 	bl	8274 <putu>
    8494:	e5940008 	ldr	r0, [r4, #8]
    8498:	ebffff75 	bl	8274 <putu>
    849c:	e59f30c0 	ldr	r3, [pc, #192]	; 8564 <kr_malloc+0x12c>
    84a0:	e5936000 	ldr	r6, [r3]
    84a4:	e3560000 	cmp	r6, #0, 0
    84a8:	0a000001 	beq	84b4 <kr_malloc+0x7c>
    84ac:	e5964000 	ldr	r4, [r6]
    84b0:	ea000014 	b	8508 <kr_malloc+0xd0>
    84b4:	e2832004 	add	r2, r3, #4, 0
    84b8:	e5832004 	str	r2, [r3, #4]
    84bc:	e3a01000 	mov	r1, #0, 0
    84c0:	e5831008 	str	r1, [r3, #8]
    84c4:	e5832000 	str	r2, [r3]
    84c8:	eafffff7 	b	84ac <kr_malloc+0x74>
    84cc:	0a000008 	beq	84f4 <kr_malloc+0xbc>
    84d0:	e0433005 	sub	r3, r3, r5
    84d4:	e5843004 	str	r3, [r4, #4]
    84d8:	e0844183 	add	r4, r4, r3, lsl #3
    84dc:	e5845004 	str	r5, [r4, #4]
    84e0:	e59f307c 	ldr	r3, [pc, #124]	; 8564 <kr_malloc+0x12c>
    84e4:	e5836000 	str	r6, [r3]
    84e8:	e2844008 	add	r4, r4, #8, 0
    84ec:	e1a00004 	mov	r0, r4
    84f0:	e8bd8070 	pop	{r4, r5, r6, pc}
    84f4:	e5943000 	ldr	r3, [r4]
    84f8:	e5863000 	str	r3, [r6]
    84fc:	eafffff7 	b	84e0 <kr_malloc+0xa8>
    8500:	e1a06004 	mov	r6, r4
    8504:	e5944000 	ldr	r4, [r4]
    8508:	e1a00004 	mov	r0, r4
    850c:	ebffff58 	bl	8274 <putu>
    8510:	e5940000 	ldr	r0, [r4]
    8514:	ebffff56 	bl	8274 <putu>
    8518:	e59f3044 	ldr	r3, [pc, #68]	; 8564 <kr_malloc+0x12c>
    851c:	e5930000 	ldr	r0, [r3]
    8520:	ebffff53 	bl	8274 <putu>
    8524:	e5940004 	ldr	r0, [r4, #4]
    8528:	ebffff51 	bl	8274 <putu>
    852c:	e5943004 	ldr	r3, [r4, #4]
    8530:	e1530005 	cmp	r3, r5
    8534:	2affffe4 	bcs	84cc <kr_malloc+0x94>
    8538:	e59f3024 	ldr	r3, [pc, #36]	; 8564 <kr_malloc+0x12c>
    853c:	e5933000 	ldr	r3, [r3]
    8540:	e1530004 	cmp	r3, r4
    8544:	1affffed 	bne	8500 <kr_malloc+0xc8>
    8548:	e1a00005 	mov	r0, r5
    854c:	ebffffaa 	bl	83fc <my_morecore>
    8550:	e2504000 	subs	r4, r0, #0, 0
    8554:	1affffe9 	bne	8500 <kr_malloc+0xc8>
    8558:	eaffffe3 	b	84ec <kr_malloc+0xb4>
    855c:	e3a04000 	mov	r4, #0, 0
    8560:	eaffffe1 	b	84ec <kr_malloc+0xb4>
    8564:	00009514 	andeq	r9, r0, r4, lsl r5

00008568 <printk>:
    8568:	e92d000f 	push	{r0, r1, r2, r3}
    856c:	e92d4030 	push	{r4, r5, lr}
    8570:	e24dd00c 	sub	sp, sp, #12, 0
    8574:	e28d301c 	add	r3, sp, #28, 0
    8578:	e58d3004 	str	r3, [sp, #4]
    857c:	e59f5034 	ldr	r5, [pc, #52]	; 85b8 <printk+0x50>
    8580:	e59d2018 	ldr	r2, [sp, #24]
    8584:	e3a01b01 	mov	r1, #1024	; 0x400
    8588:	e1a00005 	mov	r0, r5
    858c:	eb0000c9 	bl	88b8 <va_printk>
    8590:	e1a04000 	mov	r4, r0
    8594:	e59f3020 	ldr	r3, [pc, #32]	; 85bc <printk+0x54>
    8598:	e5933000 	ldr	r3, [r3]
    859c:	e1a00005 	mov	r0, r5
    85a0:	e12fff33 	blx	r3
    85a4:	e1a00004 	mov	r0, r4
    85a8:	e28dd00c 	add	sp, sp, #12, 0
    85ac:	e8bd4030 	pop	{r4, r5, lr}
    85b0:	e28dd010 	add	sp, sp, #16, 0
    85b4:	e12fff1e 	bx	lr
    85b8:	00009520 	andeq	r9, r0, r0, lsr #10
    85bc:	00009510 	andeq	r9, r0, r0, lsl r5

000085c0 <internal_putchar>:
    85c0:	e92d4010 	push	{r4, lr}
    85c4:	e1a04000 	mov	r4, r0
    85c8:	eb00029a 	bl	9038 <uart_putc>
    85cc:	e1a00004 	mov	r0, r4
    85d0:	e8bd8010 	pop	{r4, pc}

000085d4 <rpi_reset_putc>:
    85d4:	e59f3008 	ldr	r3, [pc, #8]	; 85e4 <rpi_reset_putc+0x10>
    85d8:	e59f2008 	ldr	r2, [pc, #8]	; 85e8 <rpi_reset_putc+0x14>
    85dc:	e5832000 	str	r2, [r3]
    85e0:	e12fff1e 	bx	lr
    85e4:	0000950c 	andeq	r9, r0, ip, lsl #10
    85e8:	000085c0 	andeq	r8, r0, r0, asr #11

000085ec <rpi_set_putc>:
    85ec:	e59f3004 	ldr	r3, [pc, #4]	; 85f8 <rpi_set_putc+0xc>
    85f0:	e5830000 	str	r0, [r3]
    85f4:	e12fff1e 	bx	lr
    85f8:	0000950c 	andeq	r9, r0, ip, lsl #10

000085fc <internal_putk>:
    85fc:	e92d4010 	push	{r4, lr}
    8600:	e1a04000 	mov	r4, r0
    8604:	e5d40000 	ldrb	r0, [r4]
    8608:	e3500000 	cmp	r0, #0, 0
    860c:	0a000004 	beq	8624 <internal_putk+0x28>
    8610:	e59f3014 	ldr	r3, [pc, #20]	; 862c <internal_putk+0x30>
    8614:	e5933000 	ldr	r3, [r3]
    8618:	e12fff33 	blx	r3
    861c:	e2844001 	add	r4, r4, #1, 0
    8620:	eafffff7 	b	8604 <internal_putk+0x8>
    8624:	e3a00001 	mov	r0, #1, 0
    8628:	e8bd8010 	pop	{r4, pc}
    862c:	0000950c 	andeq	r9, r0, ip, lsl #10

00008630 <isdigit>:
    8630:	e2400030 	sub	r0, r0, #48, 0	; 0x30
    8634:	e3500009 	cmp	r0, #9, 0
    8638:	83a00000 	movhi	r0, #0, 0
    863c:	93a00001 	movls	r0, #1, 0
    8640:	e12fff1e 	bx	lr

00008644 <pad>:
    8644:	e0401001 	sub	r1, r0, r1
    8648:	e1510002 	cmp	r1, r2
    864c:	b3a03020 	movlt	r3, #32, 0
    8650:	b4c03001 	strblt	r3, [r0], #1
    8654:	b2811001 	addlt	r1, r1, #1, 0
    8658:	bafffffa 	blt	8648 <pad+0x4>
    865c:	e3a03000 	mov	r3, #0, 0
    8660:	e5c03000 	strb	r3, [r0]
    8664:	e12fff1e 	bx	lr

00008668 <reverse>:
    8668:	e042c003 	sub	ip, r2, r3
    866c:	e28cc001 	add	ip, ip, #1, 0
    8670:	e15c0001 	cmp	ip, r1
    8674:	c04cc001 	subgt	ip, ip, r1
    8678:	c083300c 	addgt	r3, r3, ip
    867c:	e2421001 	sub	r1, r2, #1, 0
    8680:	e1a02000 	mov	r2, r0
    8684:	e1510003 	cmp	r1, r3
    8688:	2451c001 	ldrbcs	ip, [r1], #-1
    868c:	24c2c001 	strbcs	ip, [r2], #1
    8690:	2afffffb 	bcs	8684 <reverse+0x1c>
    8694:	e3a03000 	mov	r3, #0, 0
    8698:	e5c23000 	strb	r3, [r2]
    869c:	e12fff1e 	bx	lr

000086a0 <emit>:
    86a0:	e92d40f0 	push	{r4, r5, r6, r7, lr}
    86a4:	e24dd04c 	sub	sp, sp, #76, 0	; 0x4c
    86a8:	e1a05001 	mov	r5, r1
    86ac:	e1a04002 	mov	r4, r2
    86b0:	e59d2060 	ldr	r2, [sp, #96]	; 0x60
    86b4:	e1520004 	cmp	r2, r4
    86b8:	c2442001 	subgt	r2, r4, #1, 0
    86bc:	e1a0c003 	mov	ip, r3
    86c0:	e2400002 	sub	r0, r0, #2, 0
    86c4:	e350000e 	cmp	r0, #14, 0
    86c8:	979ff100 	ldrls	pc, [pc, r0, lsl #2]
    86cc:	ea000050 	b	8814 <emit+0x174>
    86d0:	000087ec 	andeq	r8, r0, ip, ror #15
    86d4:	00008814 	andeq	r8, r0, r4, lsl r8
    86d8:	00008814 	andeq	r8, r0, r4, lsl r8
    86dc:	00008814 	andeq	r8, r0, r4, lsl r8
    86e0:	00008814 	andeq	r8, r0, r4, lsl r8
    86e4:	00008814 	andeq	r8, r0, r4, lsl r8
    86e8:	000087e0 	andeq	r8, r0, r0, ror #15
    86ec:	00008814 	andeq	r8, r0, r4, lsl r8
    86f0:	0000870c 	andeq	r8, r0, ip, lsl #14
    86f4:	00008814 	andeq	r8, r0, r4, lsl r8
    86f8:	00008814 	andeq	r8, r0, r4, lsl r8
    86fc:	00008814 	andeq	r8, r0, r4, lsl r8
    8700:	00008814 	andeq	r8, r0, r4, lsl r8
    8704:	00008814 	andeq	r8, r0, r4, lsl r8
    8708:	00008784 	andeq	r8, r0, r4, lsl #15
    870c:	e59d1064 	ldr	r1, [sp, #100]	; 0x64
    8710:	e2511000 	subs	r1, r1, #0, 0
    8714:	13a01001 	movne	r1, #1, 0
    8718:	e0111fa3 	ands	r1, r1, r3, lsr #31
    871c:	0a000016 	beq	877c <emit+0xdc>
    8720:	e263c000 	rsb	ip, r3, #0, 0
    8724:	e3a06001 	mov	r6, #1, 0
    8728:	e28d0008 	add	r0, sp, #8, 0
    872c:	e59f3100 	ldr	r3, [pc, #256]	; 8834 <emit+0x194>
    8730:	e0831c93 	umull	r1, r3, r3, ip
    8734:	e1a031a3 	lsr	r3, r3, #3
    8738:	e1a0e003 	mov	lr, r3
    873c:	e0833103 	add	r3, r3, r3, lsl #2
    8740:	e04c3083 	sub	r3, ip, r3, lsl #1
    8744:	e1a01000 	mov	r1, r0
    8748:	e2800001 	add	r0, r0, #1, 0
    874c:	e59f70e4 	ldr	r7, [pc, #228]	; 8838 <emit+0x198>
    8750:	e7d73003 	ldrb	r3, [r7, r3]
    8754:	e5c13000 	strb	r3, [r1]
    8758:	e1a0300c 	mov	r3, ip
    875c:	e1a0c00e 	mov	ip, lr
    8760:	e3530009 	cmp	r3, #9, 0
    8764:	8afffff0 	bhi	872c <emit+0x8c>
    8768:	e3560000 	cmp	r6, #0, 0
    876c:	13a0302d 	movne	r3, #45, 0	; 0x2d
    8770:	15c03000 	strbne	r3, [r0]
    8774:	12810002 	addne	r0, r1, #2, 0
    8778:	ea00000f 	b	87bc <emit+0x11c>
    877c:	e3a06000 	mov	r6, #0, 0
    8780:	eaffffe8 	b	8728 <emit+0x88>
    8784:	e28d1008 	add	r1, sp, #8, 0
    8788:	e20c000f 	and	r0, ip, #15, 0
    878c:	e59fe0a8 	ldr	lr, [pc, #168]	; 883c <emit+0x19c>
    8790:	e7de0000 	ldrb	r0, [lr, r0]
    8794:	e5c10000 	strb	r0, [r1]
    8798:	e2811001 	add	r1, r1, #1, 0
    879c:	e35c000f 	cmp	ip, #15, 0
    87a0:	e1a0c22c 	lsr	ip, ip, #4
    87a4:	8afffff7 	bhi	8788 <emit+0xe8>
    87a8:	e1a00001 	mov	r0, r1
    87ac:	e3a03078 	mov	r3, #120, 0	; 0x78
    87b0:	e4c03002 	strb	r3, [r0], #2
    87b4:	e3a03030 	mov	r3, #48, 0	; 0x30
    87b8:	e5c13001 	strb	r3, [r1, #1]
    87bc:	e28d1008 	add	r1, sp, #8, 0
    87c0:	ebffff9f 	bl	8644 <pad>
    87c4:	e1a02000 	mov	r2, r0
    87c8:	e28d3008 	add	r3, sp, #8, 0
    87cc:	e1a01004 	mov	r1, r4
    87d0:	e1a00005 	mov	r0, r5
    87d4:	ebffffa3 	bl	8668 <reverse>
    87d8:	e28dd04c 	add	sp, sp, #76, 0	; 0x4c
    87dc:	e8bd80f0 	pop	{r4, r5, r6, r7, pc}
    87e0:	e5cd3008 	strb	r3, [sp, #8]
    87e4:	e28d0009 	add	r0, sp, #9, 0
    87e8:	eafffff3 	b	87bc <emit+0x11c>
    87ec:	e28d0008 	add	r0, sp, #8, 0
    87f0:	e20c1001 	and	r1, ip, #1, 0
    87f4:	e59fe044 	ldr	lr, [pc, #68]	; 8840 <emit+0x1a0>
    87f8:	e7de1001 	ldrb	r1, [lr, r1]
    87fc:	e5c01000 	strb	r1, [r0]
    8800:	e2800001 	add	r0, r0, #1, 0
    8804:	e35c0001 	cmp	ip, #1, 0
    8808:	e1a0c0ac 	lsr	ip, ip, #1
    880c:	8afffff7 	bhi	87f0 <emit+0x150>
    8810:	eaffffe9 	b	87bc <emit+0x11c>
    8814:	e59f3028 	ldr	r3, [pc, #40]	; 8844 <emit+0x1a4>
    8818:	e58d3000 	str	r3, [sp]
    881c:	e3a03079 	mov	r3, #121, 0	; 0x79
    8820:	e59f2020 	ldr	r2, [pc, #32]	; 8848 <emit+0x1a8>
    8824:	e59f1020 	ldr	r1, [pc, #32]	; 884c <emit+0x1ac>
    8828:	e59f0020 	ldr	r0, [pc, #32]	; 8850 <emit+0x1b0>
    882c:	ebffff4d 	bl	8568 <printk>
    8830:	eb00014e 	bl	8d70 <clean_reboot>
    8834:	cccccccd 	stclgt	12, cr12, [ip], {205}	; 0xcd
    8838:	000093ac 	andeq	r9, r0, ip, lsr #7
    883c:	000093b8 			; <UNDEFINED> instruction: 0x000093b8
    8840:	000093cc 	andeq	r9, r0, ip, asr #7
    8844:	000093a8 	andeq	r9, r0, r8, lsr #7
    8848:	000094d8 	ldrdeq	r9, [r0], -r8
    884c:	00009394 	muleq	r0, r4, r3
    8850:	00009314 	andeq	r9, r0, r4, lsl r3

00008854 <rpi_set_output>:
    8854:	e3500000 	cmp	r0, #0, 0
    8858:	0a000006 	beq	8878 <rpi_set_output+0x24>
    885c:	e59f303c 	ldr	r3, [pc, #60]	; 88a0 <rpi_set_output+0x4c>
    8860:	e5830000 	str	r0, [r3]
    8864:	e3510000 	cmp	r1, #0, 0
    8868:	012fff1e 	bxeq	lr
    886c:	e59f3030 	ldr	r3, [pc, #48]	; 88a4 <rpi_set_output+0x50>
    8870:	e5831000 	str	r1, [r3]
    8874:	e12fff1e 	bx	lr
    8878:	e52de004 	push	{lr}		; (str lr, [sp, #-4]!)
    887c:	e24dd00c 	sub	sp, sp, #12, 0
    8880:	e59f3020 	ldr	r3, [pc, #32]	; 88a8 <rpi_set_output+0x54>
    8884:	e58d3000 	str	r3, [sp]
    8888:	e3a03020 	mov	r3, #32, 0
    888c:	e59f2018 	ldr	r2, [pc, #24]	; 88ac <rpi_set_output+0x58>
    8890:	e59f1018 	ldr	r1, [pc, #24]	; 88b0 <rpi_set_output+0x5c>
    8894:	e59f0018 	ldr	r0, [pc, #24]	; 88b4 <rpi_set_output+0x60>
    8898:	ebffff32 	bl	8568 <printk>
    889c:	eb000133 	bl	8d70 <clean_reboot>
    88a0:	0000950c 	andeq	r9, r0, ip, lsl #10
    88a4:	00009510 	andeq	r9, r0, r0, lsl r5
    88a8:	000093d0 	ldrdeq	r9, [r0], -r0
    88ac:	000094e0 	andeq	r9, r0, r0, ror #9
    88b0:	00009394 	muleq	r0, r4, r3
    88b4:	00009314 	andeq	r9, r0, r4, lsl r3

000088b8 <va_printk>:
    88b8:	e92d4ff0 	push	{r4, r5, r6, r7, r8, r9, sl, fp, lr}
    88bc:	e24ddf45 	sub	sp, sp, #276	; 0x114
    88c0:	e1a09000 	mov	r9, r0
    88c4:	e58d2008 	str	r2, [sp, #8]
    88c8:	e58d300c 	str	r3, [sp, #12]
    88cc:	e2411001 	sub	r1, r1, #1, 0
    88d0:	e0808001 	add	r8, r0, r1
    88d4:	e3a03000 	mov	r3, #0, 0
    88d8:	e5c03000 	strb	r3, [r0]
    88dc:	e1a04000 	mov	r4, r0
    88e0:	e1a06002 	mov	r6, r2
    88e4:	ea000001 	b	88f0 <va_printk+0x38>
    88e8:	e2866001 	add	r6, r6, #1, 0
    88ec:	e4c43001 	strb	r3, [r4], #1
    88f0:	e5d63000 	ldrb	r3, [r6]
    88f4:	e3530000 	cmp	r3, #0, 0
    88f8:	0a000108 	beq	8d20 <va_printk+0x468>
    88fc:	e1540008 	cmp	r4, r8
    8900:	2a000106 	bcs	8d20 <va_printk+0x468>
    8904:	e3530025 	cmp	r3, #37, 0	; 0x25
    8908:	1afffff6 	bne	88e8 <va_printk+0x30>
    890c:	e5d62001 	ldrb	r2, [r6, #1]
    8910:	e3520025 	cmp	r2, #37, 0	; 0x25
    8914:	04c43001 	strbeq	r3, [r4], #1
    8918:	02866002 	addeq	r6, r6, #2, 0
    891c:	0afffff3 	beq	88f0 <va_printk+0x38>
    8920:	e2866001 	add	r6, r6, #1, 0
    8924:	e3a05000 	mov	r5, #0, 0
    8928:	e5d67000 	ldrb	r7, [r6]
    892c:	e1a0a007 	mov	sl, r7
    8930:	e1a00007 	mov	r0, r7
    8934:	ebffff3d 	bl	8630 <isdigit>
    8938:	e3500000 	cmp	r0, #0, 0
    893c:	0a000004 	beq	8954 <va_printk+0x9c>
    8940:	e0855105 	add	r5, r5, r5, lsl #2
    8944:	e0875085 	add	r5, r7, r5, lsl #1
    8948:	e2455030 	sub	r5, r5, #48, 0	; 0x30
    894c:	e2866001 	add	r6, r6, #1, 0
    8950:	eafffff4 	b	8928 <va_printk+0x70>
    8954:	e355001f 	cmp	r5, #31, 0
    8958:	8a00001a 	bhi	89c8 <va_printk+0x110>
    895c:	e2477062 	sub	r7, r7, #98, 0	; 0x62
    8960:	e3570016 	cmp	r7, #22, 0
    8964:	979ff107 	ldrls	pc, [pc, r7, lsl #2]
    8968:	ea0000d4 	b	8cc0 <va_printk+0x408>
    896c:	00008c44 	andeq	r8, r0, r4, asr #24
    8970:	00008c8c 	andeq	r8, r0, ip, lsl #25
    8974:	00008ba4 	andeq	r8, r0, r4, lsr #23
    8978:	00008cc0 	andeq	r8, r0, r0, asr #25
    897c:	00008b8c 	andeq	r8, r0, ip, lsl #23
    8980:	00008cc0 	andeq	r8, r0, r0, asr #25
    8984:	00008cc0 	andeq	r8, r0, r0, asr #25
    8988:	00008cc0 	andeq	r8, r0, r0, asr #25
    898c:	00008cc0 	andeq	r8, r0, r0, asr #25
    8990:	00008cc0 	andeq	r8, r0, r0, asr #25
    8994:	000089e8 	andeq	r8, r0, r8, ror #19
    8998:	00008cc0 	andeq	r8, r0, r0, asr #25
    899c:	00008cc0 	andeq	r8, r0, r0, asr #25
    89a0:	00008cc0 	andeq	r8, r0, r0, asr #25
    89a4:	00008c10 	andeq	r8, r0, r0, lsl ip
    89a8:	00008cc0 	andeq	r8, r0, r0, asr #25
    89ac:	00008cc0 	andeq	r8, r0, r0, asr #25
    89b0:	00008c78 	andeq	r8, r0, r8, ror ip
    89b4:	00008cc0 	andeq	r8, r0, r0, asr #25
    89b8:	00008bdc 	ldrdeq	r8, [r0], -ip
    89bc:	00008cc0 	andeq	r8, r0, r0, asr #25
    89c0:	00008cc0 	andeq	r8, r0, r0, asr #25
    89c4:	00008c10 	andeq	r8, r0, r0, lsl ip
    89c8:	e59f3364 	ldr	r3, [pc, #868]	; 8d34 <va_printk+0x47c>
    89cc:	e58d3000 	str	r3, [sp]
    89d0:	e3a03098 	mov	r3, #152, 0	; 0x98
    89d4:	e59f235c 	ldr	r2, [pc, #860]	; 8d38 <va_printk+0x480>
    89d8:	e59f135c 	ldr	r1, [pc, #860]	; 8d3c <va_printk+0x484>
    89dc:	e59f035c 	ldr	r0, [pc, #860]	; 8d40 <va_printk+0x488>
    89e0:	ebfffee0 	bl	8568 <printk>
    89e4:	eb0000e1 	bl	8d70 <clean_reboot>
    89e8:	e3a02003 	mov	r2, #3, 0
    89ec:	e59f1350 	ldr	r1, [pc, #848]	; 8d44 <va_printk+0x48c>
    89f0:	e1a00006 	mov	r0, r6
    89f4:	eb0001d5 	bl	9150 <strncmp>
    89f8:	e3500000 	cmp	r0, #0, 0
    89fc:	0a000005 	beq	8a18 <va_printk+0x160>
    8a00:	e3a02003 	mov	r2, #3, 0
    8a04:	e59f133c 	ldr	r1, [pc, #828]	; 8d48 <va_printk+0x490>
    8a08:	e1a00006 	mov	r0, r6
    8a0c:	eb0001cf 	bl	9150 <strncmp>
    8a10:	e3500000 	cmp	r0, #0, 0
    8a14:	1a000033 	bne	8ae8 <va_printk+0x230>
    8a18:	e286b002 	add	fp, r6, #2, 0
    8a1c:	e59d300c 	ldr	r3, [sp, #12]
    8a20:	e2833007 	add	r3, r3, #7, 0
    8a24:	e3c33007 	bic	r3, r3, #7, 0
    8a28:	e2832008 	add	r2, r3, #8, 0
    8a2c:	e58d200c 	str	r2, [sp, #12]
    8a30:	e593a000 	ldr	sl, [r3]
    8a34:	e5937004 	ldr	r7, [r3, #4]
    8a38:	e1a01007 	mov	r1, r7
    8a3c:	e59f0308 	ldr	r0, [pc, #776]	; 8d4c <va_printk+0x494>
    8a40:	ebfffec8 	bl	8568 <printk>
    8a44:	e1a0100a 	mov	r1, sl
    8a48:	e59f0300 	ldr	r0, [pc, #768]	; 8d50 <va_printk+0x498>
    8a4c:	ebfffec5 	bl	8568 <printk>
    8a50:	e3a02003 	mov	r2, #3, 0
    8a54:	e59f12e8 	ldr	r1, [pc, #744]	; 8d44 <va_printk+0x48c>
    8a58:	e1a00006 	mov	r0, r6
    8a5c:	eb0001bb 	bl	9150 <strncmp>
    8a60:	e3500000 	cmp	r0, #0, 0
    8a64:	0a000027 	beq	8b08 <va_printk+0x250>
    8a68:	e3a02003 	mov	r2, #3, 0
    8a6c:	e59f12d4 	ldr	r1, [pc, #724]	; 8d48 <va_printk+0x490>
    8a70:	e1a00006 	mov	r0, r6
    8a74:	eb0001b5 	bl	9150 <strncmp>
    8a78:	e3500000 	cmp	r0, #0, 0
    8a7c:	1a00003b 	bne	8b70 <va_printk+0x2b8>
    8a80:	e3a06000 	mov	r6, #0, 0
    8a84:	e58d6004 	str	r6, [sp, #4]
    8a88:	e58d5000 	str	r5, [sp]
    8a8c:	e1a03007 	mov	r3, r7
    8a90:	e3a02080 	mov	r2, #128, 0	; 0x80
    8a94:	e28d1010 	add	r1, sp, #16, 0
    8a98:	e3a0000a 	mov	r0, #10, 0
    8a9c:	ebfffeff 	bl	86a0 <emit>
    8aa0:	e1a07000 	mov	r7, r0
    8aa4:	e58d6004 	str	r6, [sp, #4]
    8aa8:	e58d5000 	str	r5, [sp]
    8aac:	e1a0300a 	mov	r3, sl
    8ab0:	e3a02080 	mov	r2, #128, 0	; 0x80
    8ab4:	e28d1090 	add	r1, sp, #144, 0	; 0x90
    8ab8:	e3a0000a 	mov	r0, #10, 0
    8abc:	ebfffef7 	bl	86a0 <emit>
    8ac0:	e59f128c 	ldr	r1, [pc, #652]	; 8d54 <va_printk+0x49c>
    8ac4:	e28d0010 	add	r0, sp, #16, 0
    8ac8:	eb00018d 	bl	9104 <strcmp>
    8acc:	e1500006 	cmp	r0, r6
    8ad0:	1a000021 	bne	8b5c <va_printk+0x2a4>
    8ad4:	e28d1090 	add	r1, sp, #144, 0	; 0x90
    8ad8:	e28d0010 	add	r0, sp, #16, 0
    8adc:	eb000193 	bl	9130 <strcpy>
    8ae0:	e1a0600b 	mov	r6, fp
    8ae4:	ea00003a 	b	8bd4 <va_printk+0x31c>
    8ae8:	e59f3268 	ldr	r3, [pc, #616]	; 8d58 <va_printk+0x4a0>
    8aec:	e58d3000 	str	r3, [sp]
    8af0:	e3a0309f 	mov	r3, #159, 0	; 0x9f
    8af4:	e59f223c 	ldr	r2, [pc, #572]	; 8d38 <va_printk+0x480>
    8af8:	e59f123c 	ldr	r1, [pc, #572]	; 8d3c <va_printk+0x484>
    8afc:	e59f023c 	ldr	r0, [pc, #572]	; 8d40 <va_printk+0x488>
    8b00:	ebfffe98 	bl	8568 <printk>
    8b04:	eb000099 	bl	8d70 <clean_reboot>
    8b08:	e3a06000 	mov	r6, #0, 0
    8b0c:	e58d6004 	str	r6, [sp, #4]
    8b10:	e58d5000 	str	r5, [sp]
    8b14:	e1a03007 	mov	r3, r7
    8b18:	e3a02080 	mov	r2, #128, 0	; 0x80
    8b1c:	e28d1010 	add	r1, sp, #16, 0
    8b20:	e3a00010 	mov	r0, #16, 0
    8b24:	ebfffedd 	bl	86a0 <emit>
    8b28:	e1a07000 	mov	r7, r0
    8b2c:	e58d6004 	str	r6, [sp, #4]
    8b30:	e58d5000 	str	r5, [sp]
    8b34:	e1a0300a 	mov	r3, sl
    8b38:	e3a02080 	mov	r2, #128, 0	; 0x80
    8b3c:	e28d1090 	add	r1, sp, #144, 0	; 0x90
    8b40:	e3a00010 	mov	r0, #16, 0
    8b44:	ebfffed5 	bl	86a0 <emit>
    8b48:	e28d1092 	add	r1, sp, #146, 0	; 0x92
    8b4c:	e28d0010 	add	r0, sp, #16, 0
    8b50:	eb00015e 	bl	90d0 <strcat>
    8b54:	e1a0600b 	mov	r6, fp
    8b58:	ea00001d 	b	8bd4 <va_printk+0x31c>
    8b5c:	e28d1090 	add	r1, sp, #144, 0	; 0x90
    8b60:	e28d0010 	add	r0, sp, #16, 0
    8b64:	eb000159 	bl	90d0 <strcat>
    8b68:	e1a0600b 	mov	r6, fp
    8b6c:	ea000018 	b	8bd4 <va_printk+0x31c>
    8b70:	e58d6000 	str	r6, [sp]
    8b74:	e3a030b6 	mov	r3, #182, 0	; 0xb6
    8b78:	e59f21b8 	ldr	r2, [pc, #440]	; 8d38 <va_printk+0x480>
    8b7c:	e59f11b8 	ldr	r1, [pc, #440]	; 8d3c <va_printk+0x484>
    8b80:	e59f01d4 	ldr	r0, [pc, #468]	; 8d5c <va_printk+0x4a4>
    8b84:	ebfffe77 	bl	8568 <printk>
    8b88:	eb000078 	bl	8d70 <clean_reboot>
    8b8c:	e3a030be 	mov	r3, #190, 0	; 0xbe
    8b90:	e59f21a0 	ldr	r2, [pc, #416]	; 8d38 <va_printk+0x480>
    8b94:	e59f11a0 	ldr	r1, [pc, #416]	; 8d3c <va_printk+0x484>
    8b98:	e59f01c0 	ldr	r0, [pc, #448]	; 8d60 <va_printk+0x4a8>
    8b9c:	ebfffe71 	bl	8568 <printk>
    8ba0:	eb000072 	bl	8d70 <clean_reboot>
    8ba4:	e59d300c 	ldr	r3, [sp, #12]
    8ba8:	e2832004 	add	r2, r3, #4, 0
    8bac:	e58d200c 	str	r2, [sp, #12]
    8bb0:	e5933000 	ldr	r3, [r3]
    8bb4:	e3a02001 	mov	r2, #1, 0
    8bb8:	e58d2004 	str	r2, [sp, #4]
    8bbc:	e58d5000 	str	r5, [sp]
    8bc0:	e3a02080 	mov	r2, #128, 0	; 0x80
    8bc4:	e28d1010 	add	r1, sp, #16, 0
    8bc8:	e3a0000a 	mov	r0, #10, 0
    8bcc:	ebfffeb3 	bl	86a0 <emit>
    8bd0:	e1a07000 	mov	r7, r0
    8bd4:	e2866001 	add	r6, r6, #1, 0
    8bd8:	ea00004a 	b	8d08 <va_printk+0x450>
    8bdc:	e59d300c 	ldr	r3, [sp, #12]
    8be0:	e2832004 	add	r2, r3, #4, 0
    8be4:	e58d200c 	str	r2, [sp, #12]
    8be8:	e5933000 	ldr	r3, [r3]
    8bec:	e3a02000 	mov	r2, #0, 0
    8bf0:	e58d2004 	str	r2, [sp, #4]
    8bf4:	e58d5000 	str	r5, [sp]
    8bf8:	e3a02080 	mov	r2, #128, 0	; 0x80
    8bfc:	e28d1010 	add	r1, sp, #16, 0
    8c00:	e3a0000a 	mov	r0, #10, 0
    8c04:	ebfffea5 	bl	86a0 <emit>
    8c08:	e1a07000 	mov	r7, r0
    8c0c:	eafffff0 	b	8bd4 <va_printk+0x31c>
    8c10:	e59d300c 	ldr	r3, [sp, #12]
    8c14:	e2832004 	add	r2, r3, #4, 0
    8c18:	e58d200c 	str	r2, [sp, #12]
    8c1c:	e5933000 	ldr	r3, [r3]
    8c20:	e3a02000 	mov	r2, #0, 0
    8c24:	e58d2004 	str	r2, [sp, #4]
    8c28:	e58d5000 	str	r5, [sp]
    8c2c:	e3a02080 	mov	r2, #128, 0	; 0x80
    8c30:	e28d1010 	add	r1, sp, #16, 0
    8c34:	e3a00010 	mov	r0, #16, 0
    8c38:	ebfffe98 	bl	86a0 <emit>
    8c3c:	e1a07000 	mov	r7, r0
    8c40:	eaffffe3 	b	8bd4 <va_printk+0x31c>
    8c44:	e59d300c 	ldr	r3, [sp, #12]
    8c48:	e2832004 	add	r2, r3, #4, 0
    8c4c:	e58d200c 	str	r2, [sp, #12]
    8c50:	e5933000 	ldr	r3, [r3]
    8c54:	e3a02000 	mov	r2, #0, 0
    8c58:	e58d2004 	str	r2, [sp, #4]
    8c5c:	e58d5000 	str	r5, [sp]
    8c60:	e3a02080 	mov	r2, #128, 0	; 0x80
    8c64:	e28d1010 	add	r1, sp, #16, 0
    8c68:	e3a00002 	mov	r0, #2, 0
    8c6c:	ebfffe8b 	bl	86a0 <emit>
    8c70:	e1a07000 	mov	r7, r0
    8c74:	eaffffd6 	b	8bd4 <va_printk+0x31c>
    8c78:	e59d300c 	ldr	r3, [sp, #12]
    8c7c:	e2832004 	add	r2, r3, #4, 0
    8c80:	e58d200c 	str	r2, [sp, #12]
    8c84:	e5937000 	ldr	r7, [r3]
    8c88:	eaffffd1 	b	8bd4 <va_printk+0x31c>
    8c8c:	e59d300c 	ldr	r3, [sp, #12]
    8c90:	e2832004 	add	r2, r3, #4, 0
    8c94:	e58d200c 	str	r2, [sp, #12]
    8c98:	e5933000 	ldr	r3, [r3]
    8c9c:	e3a02000 	mov	r2, #0, 0
    8ca0:	e58d2004 	str	r2, [sp, #4]
    8ca4:	e58d5000 	str	r5, [sp]
    8ca8:	e3a02080 	mov	r2, #128, 0	; 0x80
    8cac:	e28d1010 	add	r1, sp, #16, 0
    8cb0:	e3a00008 	mov	r0, #8, 0
    8cb4:	ebfffe79 	bl	86a0 <emit>
    8cb8:	e1a07000 	mov	r7, r0
    8cbc:	eaffffc4 	b	8bd4 <va_printk+0x31c>
    8cc0:	e3a03000 	mov	r3, #0, 0
    8cc4:	e5c63001 	strb	r3, [r6, #1]
    8cc8:	e1a0200a 	mov	r2, sl
    8ccc:	e1a0100a 	mov	r1, sl
    8cd0:	e59f008c 	ldr	r0, [pc, #140]	; 8d64 <va_printk+0x4ac>
    8cd4:	ebfffe23 	bl	8568 <printk>
    8cd8:	e59f3088 	ldr	r3, [pc, #136]	; 8d68 <va_printk+0x4b0>
    8cdc:	e5933000 	ldr	r3, [r3]
    8ce0:	e59d0008 	ldr	r0, [sp, #8]
    8ce4:	e12fff33 	blx	r3
    8ce8:	e3a030e2 	mov	r3, #226, 0	; 0xe2
    8cec:	e59f2044 	ldr	r2, [pc, #68]	; 8d38 <va_printk+0x480>
    8cf0:	e59f1044 	ldr	r1, [pc, #68]	; 8d3c <va_printk+0x484>
    8cf4:	e59f0070 	ldr	r0, [pc, #112]	; 8d6c <va_printk+0x4b4>
    8cf8:	ebfffe1a 	bl	8568 <printk>
    8cfc:	eb00001b 	bl	8d70 <clean_reboot>
    8d00:	e2877001 	add	r7, r7, #1, 0
    8d04:	e4c43001 	strb	r3, [r4], #1
    8d08:	e1540008 	cmp	r4, r8
    8d0c:	2afffef7 	bcs	88f0 <va_printk+0x38>
    8d10:	e5d73000 	ldrb	r3, [r7]
    8d14:	e3530000 	cmp	r3, #0, 0
    8d18:	1afffff8 	bne	8d00 <va_printk+0x448>
    8d1c:	eafffef3 	b	88f0 <va_printk+0x38>
    8d20:	e3a03000 	mov	r3, #0, 0
    8d24:	e4c43001 	strb	r3, [r4], #1
    8d28:	e0440009 	sub	r0, r4, r9
    8d2c:	e28ddf45 	add	sp, sp, #276	; 0x114
    8d30:	e8bd8ff0 	pop	{r4, r5, r6, r7, r8, r9, sl, fp, pc}
    8d34:	000093d8 	ldrdeq	r9, [r0], -r8
    8d38:	000094f0 	strdeq	r9, [r0], -r0
    8d3c:	00009394 	muleq	r0, r4, r3
    8d40:	00009314 	andeq	r9, r0, r4, lsl r3
    8d44:	000093e4 	andeq	r9, r0, r4, ror #7
    8d48:	000093e8 	andeq	r9, r0, r8, ror #7
    8d4c:	000093ec 	andeq	r9, r0, ip, ror #7
    8d50:	000093f4 	strdeq	r9, [r0], -r4
    8d54:	000093a8 	andeq	r9, r0, r8, lsr #7
    8d58:	000093fc 	strdeq	r9, [r0], -ip
    8d5c:	00009438 	andeq	r9, r0, r8, lsr r4
    8d60:	00009460 	andeq	r9, r0, r0, ror #8
    8d64:	00009488 	andeq	r9, r0, r8, lsl #9
    8d68:	00009510 	andeq	r9, r0, r0, lsl r5
    8d6c:	000094b8 			; <UNDEFINED> instruction: 0x000094b8

00008d70 <clean_reboot>:
    8d70:	e92d4010 	push	{r4, lr}
    8d74:	e59f3018 	ldr	r3, [pc, #24]	; 8d94 <clean_reboot+0x24>
    8d78:	e5933000 	ldr	r3, [r3]
    8d7c:	e59f0014 	ldr	r0, [pc, #20]	; 8d98 <clean_reboot+0x28>
    8d80:	e12fff33 	blx	r3
    8d84:	eb0000c3 	bl	9098 <uart_flush_tx>
    8d88:	e3a0000a 	mov	r0, #10, 0
    8d8c:	eb000047 	bl	8eb0 <delay_ms>
    8d90:	eb00001c 	bl	8e08 <rpi_reboot>
    8d94:	00009510 	andeq	r9, r0, r0, lsl r5
    8d98:	000094fc 	strdeq	r9, [r0], -ip

00008d9c <_cstart>:
    8d9c:	e92d4010 	push	{r4, lr}
    8da0:	eb00000c 	bl	8dd8 <custom_loader>
    8da4:	e59f3024 	ldr	r3, [pc, #36]	; 8dd0 <_cstart+0x34>
    8da8:	e59f2024 	ldr	r2, [pc, #36]	; 8dd4 <_cstart+0x38>
    8dac:	e1530002 	cmp	r3, r2
    8db0:	33a02000 	movcc	r2, #0, 0
    8db4:	34832004 	strcc	r2, [r3], #4
    8db8:	3afffffa 	bcc	8da8 <_cstart+0xc>
    8dbc:	eb000057 	bl	8f20 <uart_init>
    8dc0:	e3a03001 	mov	r3, #1, 0
    8dc4:	ee0f3f1c 	mcr	15, 0, r3, cr15, cr12, {0}
    8dc8:	ebfffcdf 	bl	814c <notmain>
    8dcc:	ebffffe7 	bl	8d70 <clean_reboot>
    8dd0:	00009520 	andeq	r9, r0, r0, lsr #10
    8dd4:	00009920 	andeq	r9, r0, r0, lsr #18

00008dd8 <custom_loader>:
    8dd8:	e12fff1e 	bx	lr

00008ddc <at_user_level>:
    8ddc:	e10f0000 	mrs	r0, CPSR
    8de0:	e200001f 	and	r0, r0, #31, 0
    8de4:	e3500010 	cmp	r0, #16, 0
    8de8:	13a00000 	movne	r0, #0, 0
    8dec:	03a00001 	moveq	r0, #1, 0
    8df0:	e12fff1e 	bx	lr

00008df4 <set_user_level>:
    8df4:	e10f3000 	mrs	r3, CPSR
    8df8:	e3c3301f 	bic	r3, r3, #31, 0
    8dfc:	e3833010 	orr	r3, r3, #16, 0
    8e00:	e129f003 	msr	CPSR_fc, r3
    8e04:	e12fff1e 	bx	lr

00008e08 <rpi_reboot>:
    8e08:	e92d4010 	push	{r4, lr}
    8e0c:	ebfffff2 	bl	8ddc <at_user_level>
    8e10:	e3500000 	cmp	r0, #0, 0
    8e14:	1a00000a 	bne	8e44 <rpi_reboot+0x3c>
    8e18:	eb0000d7 	bl	917c <reboot_callout>
    8e1c:	eb00009d 	bl	9098 <uart_flush_tx>
    8e20:	e3a0000a 	mov	r0, #10, 0
    8e24:	eb000021 	bl	8eb0 <delay_ms>
    8e28:	e59f101c 	ldr	r1, [pc, #28]	; 8e4c <rpi_reboot+0x44>
    8e2c:	e59f001c 	ldr	r0, [pc, #28]	; 8e50 <rpi_reboot+0x48>
    8e30:	ebfffc7b 	bl	8024 <PUT32>
    8e34:	e59f1018 	ldr	r1, [pc, #24]	; 8e54 <rpi_reboot+0x4c>
    8e38:	e59f0018 	ldr	r0, [pc, #24]	; 8e58 <rpi_reboot+0x50>
    8e3c:	ebfffc78 	bl	8024 <PUT32>
    8e40:	eafffffe 	b	8e40 <rpi_reboot+0x38>
    8e44:	ebffffea 	bl	8df4 <set_user_level>
    8e48:	eafffff2 	b	8e18 <rpi_reboot+0x10>
    8e4c:	5a000001 	bpl	8e58 <rpi_reboot+0x50>
    8e50:	20100024 	andscs	r0, r0, r4, lsr #32
    8e54:	5a000020 	bpl	8edc <delay_sec+0x14>
    8e58:	2010001c 	andscs	r0, r0, ip, lsl r0

00008e5c <timer_get_usec_raw>:
    8e5c:	e92d4010 	push	{r4, lr}
    8e60:	e59f0004 	ldr	r0, [pc, #4]	; 8e6c <timer_get_usec_raw+0x10>
    8e64:	ebfffc70 	bl	802c <GET32>
    8e68:	e8bd8010 	pop	{r4, pc}
    8e6c:	20003004 	andcs	r3, r0, r4

00008e70 <timer_get_usec>:
    8e70:	e92d4010 	push	{r4, lr}
    8e74:	eb0000c1 	bl	9180 <dev_barrier>
    8e78:	ebfffff7 	bl	8e5c <timer_get_usec_raw>
    8e7c:	e1a04000 	mov	r4, r0
    8e80:	eb0000be 	bl	9180 <dev_barrier>
    8e84:	e1a00004 	mov	r0, r4
    8e88:	e8bd8010 	pop	{r4, pc}

00008e8c <delay_us>:
    8e8c:	e92d4070 	push	{r4, r5, r6, lr}
    8e90:	e1a05000 	mov	r5, r0
    8e94:	ebfffff5 	bl	8e70 <timer_get_usec>
    8e98:	e1a04000 	mov	r4, r0
    8e9c:	ebfffff3 	bl	8e70 <timer_get_usec>
    8ea0:	e0400004 	sub	r0, r0, r4
    8ea4:	e1500005 	cmp	r0, r5
    8ea8:	3afffffb 	bcc	8e9c <delay_us+0x10>
    8eac:	e8bd8070 	pop	{r4, r5, r6, pc}

00008eb0 <delay_ms>:
    8eb0:	e92d4010 	push	{r4, lr}
    8eb4:	e0603280 	rsb	r3, r0, r0, lsl #5
    8eb8:	e0800103 	add	r0, r0, r3, lsl #2
    8ebc:	e1a00180 	lsl	r0, r0, #3
    8ec0:	ebfffff1 	bl	8e8c <delay_us>
    8ec4:	e8bd8010 	pop	{r4, pc}

00008ec8 <delay_sec>:
    8ec8:	e92d4010 	push	{r4, lr}
    8ecc:	e0603280 	rsb	r3, r0, r0, lsl #5
    8ed0:	e0800103 	add	r0, r0, r3, lsl #2
    8ed4:	e1a00180 	lsl	r0, r0, #3
    8ed8:	ebfffff4 	bl	8eb0 <delay_ms>
    8edc:	e8bd8010 	pop	{r4, pc}

00008ee0 <and_in32>:
    8ee0:	e92d4070 	push	{r4, r5, r6, lr}
    8ee4:	e1a04000 	mov	r4, r0
    8ee8:	e1a05001 	mov	r5, r1
    8eec:	ebfffc4e 	bl	802c <GET32>
    8ef0:	e0001005 	and	r1, r0, r5
    8ef4:	e1a00004 	mov	r0, r4
    8ef8:	ebfffc49 	bl	8024 <PUT32>
    8efc:	e8bd8070 	pop	{r4, r5, r6, pc}

00008f00 <or_in32>:
    8f00:	e92d4070 	push	{r4, r5, r6, lr}
    8f04:	e1a04000 	mov	r4, r0
    8f08:	e1a05001 	mov	r5, r1
    8f0c:	ebfffc46 	bl	802c <GET32>
    8f10:	e1801005 	orr	r1, r0, r5
    8f14:	e1a00004 	mov	r0, r4
    8f18:	ebfffc41 	bl	8024 <PUT32>
    8f1c:	e8bd8070 	pop	{r4, r5, r6, pc}

00008f20 <uart_init>:
    8f20:	e92d4010 	push	{r4, lr}
    8f24:	e3a01002 	mov	r1, #2, 0
    8f28:	e3a0000e 	mov	r0, #14, 0
    8f2c:	eb000099 	bl	9198 <gpio_set_function>
    8f30:	e3a01002 	mov	r1, #2, 0
    8f34:	e3a0000f 	mov	r0, #15, 0
    8f38:	eb000096 	bl	9198 <gpio_set_function>
    8f3c:	eb00008f 	bl	9180 <dev_barrier>
    8f40:	e3a01001 	mov	r1, #1, 0
    8f44:	e59f0064 	ldr	r0, [pc, #100]	; 8fb0 <uart_init+0x90>
    8f48:	ebffffec 	bl	8f00 <or_in32>
    8f4c:	eb00008b 	bl	9180 <dev_barrier>
    8f50:	e59f405c 	ldr	r4, [pc, #92]	; 8fb4 <uart_init+0x94>
    8f54:	e3a01000 	mov	r1, #0, 0
    8f58:	e1a00004 	mov	r0, r4
    8f5c:	ebfffc30 	bl	8024 <PUT32>
    8f60:	e3a01000 	mov	r1, #0, 0
    8f64:	e59f004c 	ldr	r0, [pc, #76]	; 8fb8 <uart_init+0x98>
    8f68:	ebfffc2d 	bl	8024 <PUT32>
    8f6c:	e3a01003 	mov	r1, #3, 0
    8f70:	e59f0044 	ldr	r0, [pc, #68]	; 8fbc <uart_init+0x9c>
    8f74:	ebfffc2a 	bl	8024 <PUT32>
    8f78:	e3a01000 	mov	r1, #0, 0
    8f7c:	e59f003c 	ldr	r0, [pc, #60]	; 8fc0 <uart_init+0xa0>
    8f80:	ebfffc27 	bl	8024 <PUT32>
    8f84:	e3a010c7 	mov	r1, #199, 0	; 0xc7
    8f88:	e59f0034 	ldr	r0, [pc, #52]	; 8fc4 <uart_init+0xa4>
    8f8c:	ebfffc24 	bl	8024 <PUT32>
    8f90:	e59f1030 	ldr	r1, [pc, #48]	; 8fc8 <uart_init+0xa8>
    8f94:	e59f0030 	ldr	r0, [pc, #48]	; 8fcc <uart_init+0xac>
    8f98:	ebfffc21 	bl	8024 <PUT32>
    8f9c:	e3a01003 	mov	r1, #3, 0
    8fa0:	e1a00004 	mov	r0, r4
    8fa4:	ebfffc1e 	bl	8024 <PUT32>
    8fa8:	eb000074 	bl	9180 <dev_barrier>
    8fac:	e8bd8010 	pop	{r4, pc}
    8fb0:	20215004 	eorcs	r5, r1, r4
    8fb4:	20215060 	eorcs	r5, r1, r0, rrx
    8fb8:	20215044 	eorcs	r5, r1, r4, asr #32
    8fbc:	2021504c 	eorcs	r5, r1, ip, asr #32
    8fc0:	20215050 	eorcs	r5, r1, r0, asr r0
    8fc4:	20215048 	eorcs	r5, r1, r8, asr #32
    8fc8:	0000010e 	andeq	r0, r0, lr, lsl #2
    8fcc:	20215068 	eorcs	r5, r1, r8, rrx

00008fd0 <uart_can_getc>:
    8fd0:	e92d4010 	push	{r4, lr}
    8fd4:	e59f0008 	ldr	r0, [pc, #8]	; 8fe4 <uart_can_getc+0x14>
    8fd8:	ebfffc13 	bl	802c <GET32>
    8fdc:	e2000001 	and	r0, r0, #1, 0
    8fe0:	e8bd8010 	pop	{r4, pc}
    8fe4:	20215064 	eorcs	r5, r1, r4, rrx

00008fe8 <uart_can_putc>:
    8fe8:	e92d4010 	push	{r4, lr}
    8fec:	e59f0010 	ldr	r0, [pc, #16]	; 9004 <uart_can_putc+0x1c>
    8ff0:	ebfffc0d 	bl	802c <GET32>
    8ff4:	e3100002 	tst	r0, #2, 0
    8ff8:	13a00001 	movne	r0, #1, 0
    8ffc:	03a00000 	moveq	r0, #0, 0
    9000:	e8bd8010 	pop	{r4, pc}
    9004:	20215064 	eorcs	r5, r1, r4, rrx

00009008 <uart_getc>:
    9008:	e92d4010 	push	{r4, lr}
    900c:	eb00005b 	bl	9180 <dev_barrier>
    9010:	ebffffee 	bl	8fd0 <uart_can_getc>
    9014:	e3500000 	cmp	r0, #0, 0
    9018:	0afffffc 	beq	9010 <uart_getc+0x8>
    901c:	e59f0010 	ldr	r0, [pc, #16]	; 9034 <uart_getc+0x2c>
    9020:	ebfffc01 	bl	802c <GET32>
    9024:	e6ef4070 	uxtb	r4, r0
    9028:	eb000054 	bl	9180 <dev_barrier>
    902c:	e1a00004 	mov	r0, r4
    9030:	e8bd8010 	pop	{r4, pc}
    9034:	20215040 	eorcs	r5, r1, r0, asr #32

00009038 <uart_putc>:
    9038:	e92d4010 	push	{r4, lr}
    903c:	e1a04000 	mov	r4, r0
    9040:	eb00004e 	bl	9180 <dev_barrier>
    9044:	ebffffe7 	bl	8fe8 <uart_can_putc>
    9048:	e3500000 	cmp	r0, #0, 0
    904c:	0afffffc 	beq	9044 <uart_putc+0xc>
    9050:	e6ef1074 	uxtb	r1, r4
    9054:	e59f0008 	ldr	r0, [pc, #8]	; 9064 <uart_putc+0x2c>
    9058:	ebfffbf1 	bl	8024 <PUT32>
    905c:	eb000047 	bl	9180 <dev_barrier>
    9060:	e8bd8010 	pop	{r4, pc}
    9064:	20215040 	eorcs	r5, r1, r0, asr #32

00009068 <uart_has_data>:
    9068:	e92d4010 	push	{r4, lr}
    906c:	eb000043 	bl	9180 <dev_barrier>
    9070:	ebffffd6 	bl	8fd0 <uart_can_getc>
    9074:	e8bd8010 	pop	{r4, pc}

00009078 <uart_tx_is_empty>:
    9078:	e92d4010 	push	{r4, lr}
    907c:	eb00003f 	bl	9180 <dev_barrier>
    9080:	e59f000c 	ldr	r0, [pc, #12]	; 9094 <uart_tx_is_empty+0x1c>
    9084:	ebfffbe8 	bl	802c <GET32>
    9088:	e1a004a0 	lsr	r0, r0, #9
    908c:	e2000001 	and	r0, r0, #1, 0
    9090:	e8bd8010 	pop	{r4, pc}
    9094:	20215064 	eorcs	r5, r1, r4, rrx

00009098 <uart_flush_tx>:
    9098:	e92d4010 	push	{r4, lr}
    909c:	ebfffff5 	bl	9078 <uart_tx_is_empty>
    90a0:	e3500000 	cmp	r0, #0, 0
    90a4:	0afffffc 	beq	909c <uart_flush_tx+0x4>
    90a8:	e8bd8010 	pop	{r4, pc}

000090ac <uart_disable>:
    90ac:	e92d4010 	push	{r4, lr}
    90b0:	ebfffff8 	bl	9098 <uart_flush_tx>
    90b4:	eb000031 	bl	9180 <dev_barrier>
    90b8:	e3e01001 	mvn	r1, #1, 0
    90bc:	e59f0008 	ldr	r0, [pc, #8]	; 90cc <uart_disable+0x20>
    90c0:	ebffff86 	bl	8ee0 <and_in32>
    90c4:	eb00002d 	bl	9180 <dev_barrier>
    90c8:	e8bd8010 	pop	{r4, pc}
    90cc:	20215004 	eorcs	r5, r1, r4

000090d0 <strcat>:
    90d0:	e1a02000 	mov	r2, r0
    90d4:	e1a03002 	mov	r3, r2
    90d8:	e2822001 	add	r2, r2, #1, 0
    90dc:	e5d3c000 	ldrb	ip, [r3]
    90e0:	e35c0000 	cmp	ip, #0, 0
    90e4:	1afffffa 	bne	90d4 <strcat+0x4>
    90e8:	e2433001 	sub	r3, r3, #1, 0
    90ec:	e5d12000 	ldrb	r2, [r1]
    90f0:	e2811001 	add	r1, r1, #1, 0
    90f4:	e5e32001 	strb	r2, [r3, #1]!
    90f8:	e3520000 	cmp	r2, #0, 0
    90fc:	1afffffa 	bne	90ec <strcat+0x1c>
    9100:	e12fff1e 	bx	lr

00009104 <strcmp>:
    9104:	e5d03000 	ldrb	r3, [r0]
    9108:	e3530000 	cmp	r3, #0, 0
    910c:	0a000004 	beq	9124 <strcmp+0x20>
    9110:	e5d12000 	ldrb	r2, [r1]
    9114:	e1530002 	cmp	r3, r2
    9118:	02800001 	addeq	r0, r0, #1, 0
    911c:	02811001 	addeq	r1, r1, #1, 0
    9120:	0afffff7 	beq	9104 <strcmp>
    9124:	e5d10000 	ldrb	r0, [r1]
    9128:	e0430000 	sub	r0, r3, r0
    912c:	e12fff1e 	bx	lr

00009130 <strcpy>:
    9130:	e1a0c000 	mov	ip, r0
    9134:	e5d12000 	ldrb	r2, [r1]
    9138:	e2811001 	add	r1, r1, #1, 0
    913c:	e5cc2000 	strb	r2, [ip]
    9140:	e28cc001 	add	ip, ip, #1, 0
    9144:	e3520000 	cmp	r2, #0, 0
    9148:	1afffff9 	bne	9134 <strcpy+0x4>
    914c:	e12fff1e 	bx	lr

00009150 <strncmp>:
    9150:	e3520000 	cmp	r2, #0, 0
    9154:	e2422001 	sub	r2, r2, #1, 0
    9158:	0a000005 	beq	9174 <strncmp+0x24>
    915c:	e4d03001 	ldrb	r3, [r0], #1
    9160:	e4d1c001 	ldrb	ip, [r1], #1
    9164:	e153000c 	cmp	r3, ip
    9168:	0afffff8 	beq	9150 <strncmp>
    916c:	e043000c 	sub	r0, r3, ip
    9170:	e12fff1e 	bx	lr
    9174:	e3a00000 	mov	r0, #0, 0
    9178:	e12fff1e 	bx	lr

0000917c <reboot_callout>:
    917c:	e12fff1e 	bx	lr

00009180 <dev_barrier>:
    9180:	ea000002 	b	9190 <dsb>

00009184 <dmb>:
    9184:	e3a00000 	mov	r0, #0, 0
    9188:	ee070fba 	mcr	15, 0, r0, cr7, cr10, {5}
    918c:	e12fff1e 	bx	lr

00009190 <dsb>:
    9190:	ee070f9a 	mcr	15, 0, r0, cr7, cr10, {4}
    9194:	e12fff1e 	bx	lr

00009198 <gpio_set_function>:
    9198:	e350001f 	cmp	r0, #31, 0
    919c:	812fff1e 	bxhi	lr
    91a0:	e92d4070 	push	{r4, r5, r6, lr}
    91a4:	e1a05001 	mov	r5, r1
    91a8:	e3d13007 	bics	r3, r1, #7, 0
    91ac:	18bd8070 	popne	{r4, r5, r6, pc}
    91b0:	e59f3040 	ldr	r3, [pc, #64]	; 91f8 <gpio_set_function+0x60>
    91b4:	e0832093 	umull	r2, r3, r3, r0
    91b8:	e1a031a3 	lsr	r3, r3, #3
    91bc:	e1a02003 	mov	r2, r3
    91c0:	e0833103 	add	r3, r3, r3, lsl #2
    91c4:	e0403083 	sub	r3, r0, r3, lsl #1
    91c8:	e0834083 	add	r4, r3, r3, lsl #1
    91cc:	e2820302 	add	r0, r2, #134217728	; 0x8000000
    91d0:	e2800702 	add	r0, r0, #524288	; 0x80000
    91d4:	e1a06100 	lsl	r6, r0, #2
    91d8:	e1a00006 	mov	r0, r6
    91dc:	ebfffb92 	bl	802c <GET32>
    91e0:	e3a01007 	mov	r1, #7, 0
    91e4:	e1c01411 	bic	r1, r0, r1, lsl r4
    91e8:	e1811415 	orr	r1, r1, r5, lsl r4
    91ec:	e1a00006 	mov	r0, r6
    91f0:	ebfffb8b 	bl	8024 <PUT32>
    91f4:	e8bd8070 	pop	{r4, r5, r6, pc}
    91f8:	cccccccd 	stclgt	12, cr12, [ip], {205}	; 0xcd

000091fc <gpio_set_output>:
    91fc:	e92d4010 	push	{r4, lr}
    9200:	e3a01001 	mov	r1, #1, 0
    9204:	ebffffe3 	bl	9198 <gpio_set_function>
    9208:	e8bd8010 	pop	{r4, pc}

0000920c <gpio_set_on>:
    920c:	e350001f 	cmp	r0, #31, 0
    9210:	812fff1e 	bxhi	lr
    9214:	e92d4010 	push	{r4, lr}
    9218:	e3a01001 	mov	r1, #1, 0
    921c:	e1a01011 	lsl	r1, r1, r0
    9220:	e59f0004 	ldr	r0, [pc, #4]	; 922c <gpio_set_on+0x20>
    9224:	ebfffb7e 	bl	8024 <PUT32>
    9228:	e8bd8010 	pop	{r4, pc}
    922c:	2020001c 	eorcs	r0, r0, ip, lsl r0

00009230 <gpio_set_off>:
    9230:	e350001f 	cmp	r0, #31, 0
    9234:	812fff1e 	bxhi	lr
    9238:	e92d4010 	push	{r4, lr}
    923c:	e3a01001 	mov	r1, #1, 0
    9240:	e1a01011 	lsl	r1, r1, r0
    9244:	e59f0004 	ldr	r0, [pc, #4]	; 9250 <gpio_set_off+0x20>
    9248:	ebfffb75 	bl	8024 <PUT32>
    924c:	e8bd8010 	pop	{r4, pc}
    9250:	20200028 	eorcs	r0, r0, r8, lsr #32

00009254 <gpio_set_input>:
    9254:	e92d4010 	push	{r4, lr}
    9258:	e3a01000 	mov	r1, #0, 0
    925c:	ebffffcd 	bl	9198 <gpio_set_function>
    9260:	e8bd8010 	pop	{r4, pc}

00009264 <gpio_write>:
    9264:	e92d4010 	push	{r4, lr}
    9268:	e3510000 	cmp	r1, #0, 0
    926c:	0a000001 	beq	9278 <gpio_write+0x14>
    9270:	ebffffe5 	bl	920c <gpio_set_on>
    9274:	e8bd8010 	pop	{r4, pc}
    9278:	ebffffec 	bl	9230 <gpio_set_off>
    927c:	e8bd8010 	pop	{r4, pc}

00009280 <gpio_read>:
    9280:	e350001f 	cmp	r0, #31, 0
    9284:	8a000007 	bhi	92a8 <gpio_read+0x28>
    9288:	e92d4010 	push	{r4, lr}
    928c:	e200401f 	and	r4, r0, #31, 0
    9290:	e59f3018 	ldr	r3, [pc, #24]	; 92b0 <gpio_read+0x30>
    9294:	e08302a0 	add	r0, r3, r0, lsr #5
    9298:	ebfffb63 	bl	802c <GET32>
    929c:	e1a00430 	lsr	r0, r0, r4
    92a0:	e2000001 	and	r0, r0, #1, 0
    92a4:	e8bd8010 	pop	{r4, pc}
    92a8:	e3e00000 	mvn	r0, #0, 0
    92ac:	e12fff1e 	bx	lr
    92b0:	20200034 	eorcs	r0, r0, r4, lsr r0

000092b4 <__code_end__>:
    92b4:	00000000 	andeq	r0, r0, r0

Disassembly of section .rodata:

000092b8 <__FUNCTION__.3952-0xc4>:
    92b8:	65742d32 	ldrbvs	r2, [r4, #-3378]!	; 0xfffff2ce
    92bc:	6d2d7473 	cfstrsvs	mvf7, [sp, #-460]!	; 0xfffffe34
    92c0:	6f6c6c61 	svcvs	0x006c6c61
    92c4:	00632e63 	rsbeq	r2, r3, r3, ror #28
    92c8:	4f525245 	svcmi	0x00525245
    92cc:	73253a52 			; <UNDEFINED> instruction: 0x73253a52
    92d0:	3a73253a 	bcc	1cd27c0 <__bss_end__+0x1cc8ea0>
    92d4:	203a6425 	eorscs	r6, sl, r5, lsr #8
    92d8:	534c4146 	movtpl	r4, #49478	; 0xc146
    92dc:	253c2845 	ldrcs	r2, [ip, #-2117]!	; 0xfffff7bb
    92e0:	3a293e73 	bcc	a58cb4 <__bss_end__+0xa4f394>
    92e4:	5b622220 	blpl	1891b6c <__bss_end__+0x188824c>
    92e8:	3d5d6425 	cfldrdcc	mvd6, [sp, #-148]	; 0xffffff6c
    92ec:	202c6425 	eorcs	r6, ip, r5, lsr #8
    92f0:	64253d69 	strtvs	r3, [r5], #-3433	; 0xfffff297
    92f4:	0a226e5c 	beq	8a4c6c <__bss_end__+0x89b34c>
    92f8:	00000000 	andeq	r0, r0, r0
    92fc:	7274702a 	rsbsvc	r7, r4, #42, 0	; 0x2a
    9300:	5d695b73 	fstmdbxpl	r9!, {d21-d77}	;@ Deprecated
    9304:	203d3d20 	eorscs	r3, sp, r0, lsr #26
    9308:	6e697528 	cdpvs	5, 6, cr7, cr9, cr8, {1}
    930c:	745f3874 	ldrbvc	r3, [pc], #-2164	; 9314 <__code_end__+0x60>
    9310:	00006929 	andeq	r6, r0, r9, lsr #18
    9314:	494e4150 	stmdbmi	lr, {r4, r6, r8, lr}^
    9318:	73253a43 			; <UNDEFINED> instruction: 0x73253a43
    931c:	3a73253a 	bcc	1cd280c <__bss_end__+0x1cc8eec>
    9320:	253a6425 	ldrcs	r6, [sl, #-1061]!	; 0xfffffbdb
    9324:	00000a73 	andeq	r0, r0, r3, ror sl
    9328:	3d203070 	stccc	0, cr3, [r0, #-448]!	; 0xfffffe40
    932c:	3170203d 	cmncc	r0, sp, lsr r0
    9330:	00000000 	andeq	r0, r0, r0
    9334:	43415254 	movtmi	r5, #4692	; 0x1254
    9338:	65743a45 	ldrbvs	r3, [r4, #-2629]!	; 0xfffff5bb
    933c:	69207473 	stmdbvs	r0!, {r0, r1, r4, r5, r6, sl, ip, sp, lr}
    9340:	20726574 	rsbscs	r6, r2, r4, ror r5
    9344:	70206425 	eorvc	r6, r0, r5, lsr #8
    9348:	65737361 	ldrbvs	r7, [r3, #-865]!	; 0xfffffc9f
    934c:	00000a64 	andeq	r0, r0, r4, ror #20
    9350:	43415254 	movtmi	r5, #4692	; 0x1254
    9354:	75733a45 	ldrbvc	r3, [r3, #-2629]!	; 0xfffff5bb
    9358:	73656363 	cmnvc	r5, #-1946157055	; 0x8c000001
    935c:	6d203a73 	vstmdbvs	r0!, {s6-s120}
    9360:	6f6c6c61 	svcvs	0x006c6c61
    9364:	72662f63 	rsbvc	r2, r6, #396	; 0x18c
    9368:	61206565 			; <UNDEFINED> instruction: 0x61206565
    936c:	61657070 	smcvs	22272	; 0x5700
    9370:	6f742072 	svcvs	0x00742072
    9374:	726f7720 	rsbvc	r7, pc, #32, 14	; 0x800000
    9378:	000a216b 	andeq	r2, sl, fp, ror #2

0000937c <__FUNCTION__.3952>:
    937c:	74736574 	ldrbtvc	r6, [r3], #-1396	; 0xfffffa8c
    9380:	6c6c615f 	stfvse	f6, [ip], #-380	; 0xfffffe84
    9384:	665f636f 	ldrbvs	r6, [pc], -pc, ror #6
    9388:	00656572 	rsbeq	r6, r5, r2, ror r5

0000938c <__FUNCTION__.3974>:
    938c:	6d746f6e 	ldclvs	15, cr6, [r4, #-440]!	; 0xfffffe48
    9390:	006e6961 	rsbeq	r6, lr, r1, ror #18
    9394:	696c2f2e 	stmdbvs	ip!, {r1, r2, r3, r5, r8, r9, sl, fp, sp}^
    9398:	762f6362 	strtvc	r6, [pc], -r2, ror #6
    939c:	72702d61 	rsbsvc	r2, r0, #6208	; 0x1840
    93a0:	6b746e69 	blvs	1d24d4c <__bss_end__+0x1d1b42c>
    93a4:	0000632e 	andeq	r6, r0, lr, lsr #6
    93a8:	00000030 	andeq	r0, r0, r0, lsr r0
    93ac:	33323130 	teqcc	r2, #12
    93b0:	37363534 			; <UNDEFINED> instruction: 0x37363534
    93b4:	00003938 	andeq	r3, r0, r8, lsr r9
    93b8:	33323130 	teqcc	r2, #12
    93bc:	37363534 			; <UNDEFINED> instruction: 0x37363534
    93c0:	62613938 	rsbvs	r3, r1, #56, 18	; 0xe0000
    93c4:	66656463 	strbtvs	r6, [r5], -r3, ror #8
    93c8:	00000000 	andeq	r0, r0, r0
    93cc:	00003130 	andeq	r3, r0, r0, lsr r1
    93d0:	63747570 	cmnvs	r4, #112, 10	; 0x1c000000
    93d4:	0070665f 	rsbseq	r6, r0, pc, asr r6
    93d8:	74646977 	strbtvc	r6, [r4], #-2423	; 0xfffff689
    93dc:	203c2068 	eorscs	r2, ip, r8, rrx
    93e0:	00003233 	andeq	r3, r0, r3, lsr r2
    93e4:	00786c6c 	rsbseq	r6, r8, ip, ror #24
    93e8:	00646c6c 	rsbeq	r6, r4, ip, ror #24
    93ec:	253d3078 	ldrcs	r3, [sp, #-120]!	; 0xffffff88
    93f0:	00000a78 	andeq	r0, r0, r8, ror sl
    93f4:	253d3178 	ldrcs	r3, [sp, #-376]!	; 0xfffffe88
    93f8:	00000a78 	andeq	r0, r0, r8, ror sl
    93fc:	6e727473 	mrcvs	4, 3, r7, cr2, cr3, {3}
    9400:	28706d63 	ldmdacs	r0!, {r0, r1, r5, r6, r8, sl, fp, sp, lr}^
    9404:	202c7974 	eorcs	r7, ip, r4, ror r9
    9408:	786c6c22 	stmdavc	ip!, {r1, r5, sl, fp, sp, lr}^
    940c:	33202c22 			; <UNDEFINED> instruction: 0x33202c22
    9410:	3d3d2029 	ldccc	0, cr2, [sp, #-164]!	; 0xffffff5c
    9414:	7c203020 	stcvc	0, cr3, [r0], #-128	; 0xffffff80
    9418:	7473207c 	ldrbtvc	r2, [r3], #-124	; 0xffffff84
    941c:	6d636e72 	stclvs	14, cr6, [r3, #-456]!	; 0xfffffe38
    9420:	79742870 	ldmdbvc	r4!, {r4, r5, r6, fp, sp}^
    9424:	6c22202c 	stcvs	0, cr2, [r2], #-176	; 0xffffff50
    9428:	2c22646c 	cfstrscs	mvf6, [r2], #-432	; 0xfffffe50
    942c:	20293320 	eorcs	r3, r9, r0, lsr #6
    9430:	30203d3d 	eorcc	r3, r0, sp, lsr sp
    9434:	00000000 	andeq	r0, r0, r0
    9438:	494e4150 	stmdbmi	lr, {r4, r6, r8, lr}^
    943c:	73253a43 			; <UNDEFINED> instruction: 0x73253a43
    9440:	3a73253a 	bcc	1cd2930 <__bss_end__+0x1cc9010>
    9444:	693a6425 	ldmdbvs	sl!, {r0, r2, r5, sl, sp, lr}
    9448:	736f706d 	cmnvc	pc, #109, 0	; 0x6d
    944c:	6c626973 			; <UNDEFINED> instruction: 0x6c626973
    9450:	66203a65 	strtvs	r3, [r0], -r5, ror #20
    9454:	3c3d746d 	cfldrscc	mvf7, [sp], #-436	; 0xfffffe4c
    9458:	0a3e7325 	beq	fa60f4 <__bss_end__+0xf9c7d4>
    945c:	0000000a 	andeq	r0, r0, sl
    9460:	494e4150 	stmdbmi	lr, {r4, r6, r8, lr}^
    9464:	73253a43 			; <UNDEFINED> instruction: 0x73253a43
    9468:	3a73253a 	bcc	1cd2958 <__bss_end__+0x1cc9038>
    946c:	663a6425 	ldrtvs	r6, [sl], -r5, lsr #8
    9470:	74616f6c 	strbtvc	r6, [r1], #-3948	; 0xfffff094
    9474:	746f6e20 	strbtvc	r6, [pc], #-3616	; 947c <__FUNCTION__.3974+0xf0>
    9478:	616e6520 	cmnvs	lr, r0, lsr #10
    947c:	64656c62 	strbtvs	r6, [r5], #-3170	; 0xfffff39e
    9480:	0a212121 	beq	85190c <__bss_end__+0x847fec>
    9484:	00000000 	andeq	r0, r0, r0
    9488:	6e697270 	mcrvs	2, 3, r7, cr9, cr0, {3}
    948c:	203a6b74 	eorscs	r6, sl, r4, ror fp
    9490:	20746f6e 	rsbscs	r6, r4, lr, ror #30
    9494:	646e6168 	strbtvs	r6, [lr], #-360	; 0xfffffe98
    9498:	676e696c 	strbvs	r6, [lr, -ip, ror #18]!
    949c:	65707320 	ldrbvs	r7, [r0, #-800]!	; 0xfffffce0
    94a0:	69666963 	stmdbvs	r6!, {r0, r1, r5, r6, r8, fp, sp, lr}^
    94a4:	27207265 	strcs	r7, [r0, -r5, ror #4]!
    94a8:	20276325 	eorcs	r6, r7, r5, lsr #6
    94ac:	63736128 	cmnvs	r3, #10
    94b0:	253d6969 	ldrcs	r6, [sp, #-2409]!	; 0xfffff697
    94b4:	000a2964 	andeq	r2, sl, r4, ror #18
    94b8:	494e4150 	stmdbmi	lr, {r4, r6, r8, lr}^
    94bc:	73253a43 			; <UNDEFINED> instruction: 0x73253a43
    94c0:	3a73253a 	bcc	1cd29b0 <__bss_end__+0x1cc9090>
    94c4:	703a6425 	eorsvc	r6, sl, r5, lsr #8
    94c8:	746e6972 	strbtvc	r6, [lr], #-2418	; 0xfffff68e
    94cc:	7265206b 	rsbvc	r2, r5, #107, 0	; 0x6b
    94d0:	0a726f72 	beq	1ca52a0 <__bss_end__+0x1c9b980>
    94d4:	0000000a 	andeq	r0, r0, sl

000094d8 <__FUNCTION__.4008>:
    94d8:	74696d65 	strbtvc	r6, [r9], #-3429	; 0xfffff29b
    94dc:	00000000 	andeq	r0, r0, r0

000094e0 <__FUNCTION__.3956>:
    94e0:	5f697072 	svcpl	0x00697072
    94e4:	5f746573 	svcpl	0x00746573
    94e8:	7074756f 	rsbsvc	r7, r4, pc, ror #10
    94ec:	00007475 	andeq	r7, r0, r5, ror r4

000094f0 <__FUNCTION__.4034>:
    94f0:	705f6176 	subsvc	r6, pc, r6, ror r1	; <UNPREDICTABLE>
    94f4:	746e6972 	strbtvc	r6, [lr], #-2418	; 0xfffff68e
    94f8:	0000006b 	andeq	r0, r0, fp, rrx
    94fc:	454e4f44 	strbmi	r4, [lr, #-3908]	; 0xfffff0bc
    9500:	0a212121 	beq	85198c <__bss_end__+0x84806c>
	...

Disassembly of section .data:

00009508 <__data_start__>:
    9508:	00040000 	andeq	r0, r4, r0

0000950c <rpi_putchar>:
    950c:	000085c0 	andeq	r8, r0, r0, asr #11

00009510 <putk>:
    9510:	000085fc 	strdeq	r8, [r0], -ip

Disassembly of section .mydata:

00009514 <freep>:
    9514:	00000000 	andeq	r0, r0, r0

00009518 <base>:
	...

Disassembly of section .bss:

00009520 <__bss_start__>:
	...

Disassembly of section .ARM.attributes:

00000000 <.ARM.attributes>:
   0:	00002a41 	andeq	r2, r0, r1, asr #20
   4:	61656100 	cmnvs	r5, r0, lsl #2
   8:	01006962 	tsteq	r0, r2, ror #18
   c:	00000020 	andeq	r0, r0, r0, lsr #32
  10:	4b5a3605 	blmi	168d82c <__bss_end__+0x1683f0c>
  14:	08070600 	stmdaeq	r7, {r9, sl}
  18:	12010901 	andne	r0, r1, #16384	; 0x4000
  1c:	15011404 	strne	r1, [r1, #-1028]	; 0xfffffbfc
  20:	18031701 	stmdane	r3, {r0, r8, r9, sl, ip}
  24:	22011a01 	andcs	r1, r1, #4096	; 0x1000
  28:	Address 0x0000000000000028 is out of bounds.


Disassembly of section .comment:

00000000 <.comment>:
   0:	3a434347 	bcc	10d0d24 <__bss_end__+0x10c7404>
   4:	4e472820 	cdpmi	8, 4, cr2, cr7, cr0, {1}
   8:	6f542055 	svcvs	0x00542055
   c:	20736c6f 	rsbscs	r6, r3, pc, ror #24
  10:	20726f66 	rsbscs	r6, r2, r6, ror #30
  14:	206d7241 	rsbcs	r7, sp, r1, asr #4
  18:	65626d45 	strbvs	r6, [r2, #-3397]!	; 0xfffff2bb
  1c:	64656464 	strbtvs	r6, [r5], #-1124	; 0xfffffb9c
  20:	6f725020 	svcvs	0x00725020
  24:	73736563 	cmnvc	r3, #415236096	; 0x18c00000
  28:	2073726f 	rsbscs	r7, r3, pc, ror #4
  2c:	30322d39 	eorscc	r2, r2, r9, lsr sp
  30:	712d3931 			; <UNDEFINED> instruction: 0x712d3931
  34:	616d2d34 	cmnvs	sp, r4, lsr sp
  38:	29726f6a 	ldmdbcs	r2!, {r1, r3, r5, r6, r8, r9, sl, fp, sp, lr}^
  3c:	322e3920 	eorcc	r3, lr, #32, 18	; 0x80000
  40:	3220312e 	eorcc	r3, r0, #-2147483637	; 0x8000000b
  44:	31393130 	teqcc	r9, r0, lsr r1
  48:	20353230 	eorscs	r3, r5, r0, lsr r2
  4c:	6c657228 	sfmvs	f7, 2, [r5], #-160	; 0xffffff60
  50:	65736165 	ldrbvs	r6, [r3, #-357]!	; 0xfffffe9b
  54:	415b2029 	cmpmi	fp, r9, lsr #32
  58:	612f4d52 			; <UNDEFINED> instruction: 0x612f4d52
  5c:	392d6d72 	pushcc	{r1, r4, r5, r6, r8, sl, fp, sp, lr}
  60:	6172622d 	cmnvs	r2, sp, lsr #4
  64:	2068636e 	rsbcs	r6, r8, lr, ror #6
  68:	69766572 	ldmdbvs	r6!, {r1, r4, r5, r6, r8, sl, sp, lr}^
  6c:	6e6f6973 			; <UNDEFINED> instruction: 0x6e6f6973
  70:	37373220 	ldrcc	r3, [r7, -r0, lsr #4]!
  74:	5d393935 			; <UNDEFINED> instruction: 0x5d393935
  78:	43434700 	movtmi	r4, #14080	; 0x3700
  7c:	4728203a 			; <UNDEFINED> instruction: 0x4728203a
  80:	4120554e 			; <UNDEFINED> instruction: 0x4120554e
  84:	45206d72 	strmi	r6, [r0, #-3442]!	; 0xfffff28e
  88:	6465626d 	strbtvs	r6, [r5], #-621	; 0xfffffd93
  8c:	20646564 	rsbcs	r6, r4, r4, ror #10
  90:	6c6f6f54 	stclvs	15, cr6, [pc], #-336	; ffffff48 <__bss_end__+0xffff6628>
  94:	69616863 	stmdbvs	r1!, {r0, r1, r5, r6, fp, sp, lr}^
  98:	3031206e 	eorscc	r2, r1, lr, rrx
  9c:	322d332e 	eorcc	r3, sp, #-1207959552	; 0xb8000000
  a0:	2e313230 	mrccs	2, 1, r3, cr1, cr0, {1}
  a4:	20293031 	eorcs	r3, r9, r1, lsr r0
  a8:	332e3031 			; <UNDEFINED> instruction: 0x332e3031
  ac:	3220312e 	eorcc	r3, r0, #-2147483637	; 0x8000000b
  b0:	30313230 	eorscc	r3, r1, r0, lsr r2
  b4:	20343238 	eorscs	r3, r4, r8, lsr r2
  b8:	6c657228 	sfmvs	f7, 2, [r5], #-160	; 0xffffff60
  bc:	65736165 	ldrbvs	r6, [r3, #-357]!	; 0xfffffe9b
  c0:	Address 0x00000000000000c0 is out of bounds.


Disassembly of section .debug_info:

00000000 <.debug_info>:
       0:	00000403 	andeq	r0, r0, r3, lsl #8
       4:	00000004 	andeq	r0, r0, r4
       8:	01040000 	mrseq	r0, (UNDEF: 4)
       c:	00000111 	andeq	r0, r0, r1, lsl r1
      10:	0000c30c 	andeq	ip, r0, ip, lsl #6
      14:	00005700 	andeq	r5, r0, r0, lsl #14
      18:	00803800 	addeq	r3, r0, r0, lsl #16
      1c:	0001a000 	andeq	sl, r1, r0
      20:	00000000 	andeq	r0, r0, r0
      24:	05040200 	streq	r0, [r4, #-512]	; 0xfffffe00
      28:	00746e69 	rsbseq	r6, r4, r9, ror #28
      2c:	ae070403 	cdpge	4, 0, cr0, cr7, cr3, {0}
      30:	03000000 	movweq	r0, #0
      34:	000a0601 	andeq	r0, sl, r1, lsl #12
      38:	02030000 	andeq	r0, r3, #0, 0
      3c:	0000fd05 	andeq	pc, r0, r5, lsl #26
      40:	05040300 	streq	r0, [r4, #-768]	; 0xfffffd00
      44:	000000e8 	andeq	r0, r0, r8, ror #1
      48:	e3050803 	movw	r0, #22531	; 0x5803
      4c:	04000000 	streq	r0, [r0], #-0
      50:	000000bb 	strheq	r0, [r0], -fp
      54:	5b182e04 	blpl	60b86c <__bss_end__+0x601f4c>
      58:	03000000 	movweq	r0, #0
      5c:	00080801 	andeq	r0, r8, r1, lsl #16
      60:	02030000 	andeq	r0, r3, #0, 0
      64:	00002307 	andeq	r2, r0, r7, lsl #6
      68:	07040300 	streq	r0, [r4, -r0, lsl #6]
      6c:	000000a9 	andeq	r0, r0, r9, lsr #1
      70:	a4070803 	strge	r0, [r7], #-2051	; 0xfffff7fd
      74:	05000000 	streq	r0, [r0, #-0]
      78:	00000025 	andeq	r0, r0, r5, lsr #32
      7c:	00000086 	andeq	r0, r0, r6, lsl #1
      80:	00002506 	andeq	r2, r0, r6, lsl #10
      84:	f1070000 			; <UNDEFINED> instruction: 0xf1070000
      88:	02000000 	andeq	r0, r0, #0, 0
      8c:	00920e1c 	addseq	r0, r2, ip, lsl lr
      90:	04080000 	streq	r0, [r8], #-0
      94:	00000077 	andeq	r0, r0, r7, ror r0
      98:	00002505 	andeq	r2, r0, r5, lsl #10
      9c:	0000a700 	andeq	sl, r0, r0, lsl #14
      a0:	00a70600 	adceq	r0, r7, r0, lsl #12
      a4:	08000000 	stmdaeq	r0, {}	; <UNPREDICTABLE>
      a8:	0000b404 	andeq	fp, r0, r4, lsl #8
      ac:	08010300 	stmdaeq	r1, {r8, r9}
      b0:	00000011 	andeq	r0, r0, r1, lsl r0
      b4:	0000ad09 	andeq	sl, r0, r9, lsl #26
      b8:	03de0700 	bicseq	r0, lr, #0, 14
      bc:	21020000 	mrscs	r0, (UNDEF: 2)
      c0:	0000c50e 	andeq	ip, r0, lr, lsl #10
      c4:	98040800 	stmdals	r4, {fp}
      c8:	0a000000 	beq	d0 <__code_start__-0x7f30>
      cc:	00000000 	andeq	r0, r0, r0
      d0:	4c062501 	cfstr32mi	mvfx2, [r6], {1}
      d4:	8c000081 	stchi	0, cr0, [r0], {129}	; 0x81
      d8:	01000000 	mrseq	r0, (UNDEF: 0)
      dc:	0001ef9c 	muleq	r1, ip, pc	; <UNPREDICTABLE>
      e0:	006e0b00 	rsbeq	r0, lr, r0, lsl #22
      e4:	2c0e2801 	stccs	8, cr2, [lr], {1}
      e8:	80000000 	andhi	r0, r0, r0
      ec:	0030700c 	eorseq	r7, r0, ip
      f0:	ef0b2a01 	svc	0x000b2a01
      f4:	04000001 	streq	r0, [r0], #-1
      f8:	00000000 	andeq	r0, r0, r0
      fc:	0d000000 	stceq	0, cr0, [r0, #-0]
     100:	00000050 	andeq	r0, r0, r0, asr r0
     104:	25092b01 	strcs	r2, [r9, #-2817]	; 0xfffff4ff
     108:	0a000000 	beq	110 <__code_start__-0x7ef0>
     10c:	0000430e 	andeq	r4, r0, lr, lsl #6
     110:	00020100 	andeq	r0, r2, r0, lsl #2
     114:	8c030500 	cfstr32hi	mvfx0, [r3], {-0}
     118:	0f000093 	svceq	0x00000093
     11c:	00008160 	andeq	r8, r0, r0, ror #2
     120:	00000050 	andeq	r0, r0, r0, asr r0
     124:	000001c7 	andeq	r0, r0, r7, asr #3
     128:	0100690c 	tsteq	r0, ip, lsl #18
     12c:	00250d2c 	eoreq	r0, r5, ip, lsr #26
     130:	00260000 	eoreq	r0, r6, r0
     134:	00220000 	eoreq	r0, r2, r0
     138:	18100000 	ldmdane	r0, {}	; <UNPREDICTABLE>
     13c:	0c000000 	stceq	0, cr0, [r0], {-0}
     140:	01003170 	tsteq	r0, r0, ror r1
     144:	01ef0f2d 	mvneq	r0, sp, lsr #30
     148:	00490000 	subeq	r0, r9, r0
     14c:	00450000 	subeq	r0, r5, r0
     150:	74110000 	ldrvc	r0, [r1], #-0
     154:	06000081 	streq	r0, [r0], -r1, lsl #1
     158:	66000002 	strvs	r0, [r0], -r2
     15c:	12000001 	andne	r0, r0, #1, 0
     160:	08025001 	stmdaeq	r2, {r0, ip, lr}
     164:	88110080 	ldmdahi	r1, {r7}
     168:	ca000081 	bgt	374 <__code_start__-0x7c8c>
     16c:	83000003 	movwhi	r0, #3
     170:	12000001 	andne	r0, r0, #1, 0
     174:	03055001 	movweq	r5, #20481	; 0x5001
     178:	00009334 	andeq	r9, r0, r4, lsr r3
     17c:	02510112 	subseq	r0, r1, #-2147483644	; 0x80000004
     180:	11000074 	tstne	r0, r4, ror r0
     184:	000081ac 	andeq	r8, r0, ip, lsr #3
     188:	000003ca 	andeq	r0, r0, sl, asr #7
     18c:	000001bc 			; <UNDEFINED> instruction: 0x000001bc
     190:	05500112 	ldrbeq	r0, [r0, #-274]	; 0xfffffeee
     194:	00931403 	addseq	r1, r3, r3, lsl #8
     198:	51011200 	mrspl	r1, R9_usr
     19c:	92b80305 	adcsls	r0, r8, #335544320	; 0x14000000
     1a0:	01120000 	tsteq	r2, r0
     1a4:	8c030552 	cfstr32hi	mvfx0, [r3], {82}	; 0x52
     1a8:	12000093 	andne	r0, r0, #147, 0	; 0x93
     1ac:	08025301 	stmdaeq	r2, {r0, r8, r9, ip, lr}
     1b0:	7d021230 	sfmvc	f1, 4, [r2, #-192]	; 0xffffff40
     1b4:	28030500 	stmdacs	r3, {r8, sl}
     1b8:	00000093 	muleq	r0, r3, r0
     1bc:	0081b013 	addeq	fp, r1, r3, lsl r0
     1c0:	0003d600 	andeq	sp, r3, r0, lsl #12
     1c4:	11000000 	mrsne	r0, (UNDEF: 0)
     1c8:	0000815c 	andeq	r8, r0, ip, asr r1
     1cc:	00000206 	andeq	r0, r0, r6, lsl #4
     1d0:	000001db 	ldrdeq	r0, [r0], -fp
     1d4:	02500112 	subseq	r0, r0, #-2147483644	; 0x80000004
     1d8:	14008008 	strne	r8, [r0], #-8
     1dc:	000081b8 			; <UNDEFINED> instruction: 0x000081b8
     1e0:	000003ca 	andeq	r0, r0, sl, asr #7
     1e4:	05500112 	ldrbeq	r0, [r0, #-274]	; 0xfffffeee
     1e8:	00935003 	addseq	r5, r3, r3
     1ec:	15000000 	strne	r0, [r0, #-0]
     1f0:	00b41604 	adcseq	r1, r4, r4, lsl #12
     1f4:	02010000 	andeq	r0, r1, #0, 0
     1f8:	2c170000 	ldccs	0, cr0, [r7], {-0}
     1fc:	07000000 	streq	r0, [r0, -r0]
     200:	01f10900 	mvnseq	r0, r0, lsl #18
     204:	d3180000 	tstle	r8, #0, 0
     208:	01000000 	mrseq	r0, (UNDEF: 0)
     20c:	01ef0e08 	mvneq	r0, r8, lsl #28
     210:	80380000 	eorshi	r0, r8, r0
     214:	01140000 	tsteq	r4, r0
     218:	9c010000 	stcls	0, cr0, [r1], {-0}
     21c:	000003a9 	andeq	r0, r0, r9, lsr #7
     220:	01006e19 	tsteq	r0, r9, lsl lr
     224:	002c2708 	eoreq	r2, ip, r8, lsl #14
     228:	00730000 	rsbseq	r0, r3, r0
     22c:	00670000 	rsbeq	r0, r7, r0
     230:	3e1a0000 	cdpcc	0, 1, cr0, cr10, cr0, {0}
     234:	01000000 	mrseq	r0, (UNDEF: 0)
     238:	03a90f0c 			; <UNDEFINED> instruction: 0x03a90f0c
     23c:	00c60000 	sbceq	r0, r6, r0
     240:	00c00000 	sbceq	r0, r0, r0
     244:	430e0000 	movwmi	r0, #57344	; 0xe000
     248:	c5000000 	strgt	r0, [r0, #-0]
     24c:	05000003 	streq	r0, [r0, #-3]
     250:	00937c03 	addseq	r7, r3, r3, lsl #24
     254:	80500f00 	subshi	r0, r0, r0, lsl #30
     258:	00740000 	rsbseq	r0, r4, r0
     25c:	02f80000 	rscseq	r0, r8, #0, 0
     260:	690c0000 	stmdbvs	ip, {}	; <UNPREDICTABLE>
     264:	0d0e0100 	stfeqs	f0, [lr, #-0]
     268:	00000025 	andeq	r0, r0, r5, lsr #32
     26c:	000000f3 	strdeq	r0, [r0], -r3
     270:	000000ef 	andeq	r0, r0, pc, ror #1
     274:	00000010 	andeq	r0, r0, r0, lsl r0
     278:	00700c00 	rsbseq	r0, r0, r0, lsl #24
     27c:	af120f01 	svcge	0x00120f01
     280:	14000003 	strne	r0, [r0], #-3
     284:	12000001 	andne	r0, r0, #1, 0
     288:	11000001 	tstne	r0, r1
     28c:	0000806c 	andeq	r8, r0, ip, rrx
     290:	000003e2 	andeq	r0, r0, r2, ror #7
     294:	0000029e 	muleq	r0, lr, r2
     298:	01500112 	cmpeq	r0, r2, lsl r1
     29c:	90130031 	andsls	r0, r3, r1, lsr r0
     2a0:	ee000080 	cdp	0, 0, cr0, cr0, cr0, {4}
     2a4:	11000003 	tstne	r0, r3
     2a8:	000080c0 	andeq	r8, r0, r0, asr #1
     2ac:	000003ca 	andeq	r0, r0, sl, asr #7
     2b0:	000002ed 	andeq	r0, r0, sp, ror #5
     2b4:	05500112 	ldrbeq	r0, [r0, #-274]	; 0xfffffeee
     2b8:	0092c803 	addseq	ip, r2, r3, lsl #16
     2bc:	51011200 	mrspl	r1, R9_usr
     2c0:	92b80305 	adcsls	r0, r8, #335544320	; 0x14000000
     2c4:	01120000 	tsteq	r2, r0
     2c8:	7c030552 	cfstr32vc	mvfx0, [r3], {82}	; 0x52
     2cc:	12000093 	andne	r0, r0, #147, 0	; 0x93
     2d0:	43015301 	movwmi	r5, #4865	; 0x1301
     2d4:	007d0212 	rsbseq	r0, sp, r2, lsl r2
     2d8:	92fc0305 	rscsls	r0, ip, #335544320	; 0x14000000
     2dc:	02120000 	andseq	r0, r2, #0, 0
     2e0:	7402047d 	strvc	r0, [r2], #-1149	; 0xfffffb83
     2e4:	7d021200 	sfmvc	f1, 4, [r2, #-0]
     2e8:	0074020c 	rsbseq	r0, r4, ip, lsl #4
     2ec:	80c41300 	sbchi	r1, r4, r0, lsl #6
     2f0:	03d60000 	bicseq	r0, r6, #0, 0
     2f4:	00000000 	andeq	r0, r0, r0
     2f8:	0080c40f 	addeq	ip, r0, pc, lsl #8
     2fc:	00004400 	andeq	r4, r0, r0, lsl #8
     300:	00035900 	andeq	r5, r3, r0, lsl #18
     304:	00690c00 	rsbeq	r0, r9, r0, lsl #24
     308:	250d1a01 	strcs	r1, [sp, #-2561]	; 0xfffff5ff
     30c:	2b000000 	blcs	314 <__code_start__-0x7cec>
     310:	27000001 	strcs	r0, [r0, -r1]
     314:	11000001 	tstne	r0, r1
     318:	00008104 	andeq	r8, r0, r4, lsl #2
     31c:	000003ca 	andeq	r0, r0, sl, asr #7
     320:	0000034f 	andeq	r0, r0, pc, asr #6
     324:	05500112 	ldrbeq	r0, [r0, #-274]	; 0xfffffeee
     328:	00931403 	addseq	r1, r3, r3, lsl #8
     32c:	51011200 	mrspl	r1, R9_usr
     330:	92b80305 	adcsls	r0, r8, #335544320	; 0x14000000
     334:	01120000 	tsteq	r2, r0
     338:	7c030552 	cfstr32vc	mvfx0, [r3], {82}	; 0x52
     33c:	12000093 	andne	r0, r0, #147, 0	; 0x93
     340:	4b015301 	blmi	54f4c <__bss_end__+0x4b62c>
     344:	007d0212 	rsbseq	r0, sp, r2, lsl r2
     348:	92fc0305 	rscsls	r0, ip, #335544320	; 0x14000000
     34c:	13000000 	movwne	r0, #0
     350:	00008108 	andeq	r8, r0, r8, lsl #2
     354:	000003d6 	ldrdeq	r0, [r0], -r6
     358:	81080f00 	tsthi	r8, r0, lsl #30
     35c:	001c0000 	andseq	r0, ip, r0
     360:	03820000 	orreq	r0, r2, #0, 0
     364:	690c0000 	stmdbvs	ip, {}	; <UNPREDICTABLE>
     368:	0d1e0100 	ldfeqs	f0, [lr, #-0]
     36c:	00000025 	andeq	r0, r0, r5, lsr #32
     370:	0000014b 	andeq	r0, r0, fp, asr #2
     374:	00000149 	andeq	r0, r0, r9, asr #2
     378:	00811813 	addeq	r1, r1, r3, lsl r8
     37c:	0003fa00 	andeq	pc, r3, r0, lsl #20
     380:	4c110000 	ldcmi	0, cr0, [r1], {-0}
     384:	e2000080 	and	r0, r0, #128, 0	; 0x80
     388:	98000003 	stmdals	r0, {r0, r1}
     38c:	12000003 	andne	r0, r0, #3, 0
     390:	77045001 	strvc	r5, [r4, -r1]
     394:	00243200 	eoreq	r3, r4, r0, lsl #4
     398:	00812c14 	addeq	r2, r1, r4, lsl ip
     39c:	0003fa00 	andeq	pc, r3, r0, lsl #20
     3a0:	50011200 	andpl	r1, r1, r0, lsl #4
     3a4:	00007502 	andeq	r7, r0, r2, lsl #10
     3a8:	af040800 	svcge	0x00040800
     3ac:	08000003 	stmdaeq	r0, {r0, r1}
     3b0:	00004f04 	andeq	r4, r0, r4, lsl #30
     3b4:	00b41600 	adcseq	r1, r4, r0, lsl #12
     3b8:	03c50000 	biceq	r0, r5, #0, 0
     3bc:	2c170000 	ldccs	0, cr0, [r7], {-0}
     3c0:	0f000000 	svceq	0x00000000
     3c4:	03b50900 			; <UNDEFINED> instruction: 0x03b50900
     3c8:	671b0000 	ldrvs	r0, [fp, -r0]
     3cc:	67000003 	strvs	r0, [r0, -r3]
     3d0:	02000003 	andeq	r0, r0, #3, 0
     3d4:	161b0628 	ldrne	r0, [fp], -r8, lsr #12
     3d8:	16000000 	strne	r0, [r0], -r0
     3dc:	02000000 	andeq	r0, r0, #0, 0
     3e0:	071b066e 	ldreq	r0, [fp, -lr, ror #12]
     3e4:	07000001 	streq	r0, [r0, -r1]
     3e8:	03000001 	movweq	r0, #1
     3ec:	c61b071e 			; <UNDEFINED> instruction: 0xc61b071e
     3f0:	c6000001 	strgt	r0, [r0], -r1
     3f4:	02000001 	andeq	r0, r0, #1, 0
     3f8:	361b061d 			; <UNDEFINED> instruction: 0x361b061d
     3fc:	36000000 	strcc	r0, [r0], -r0
     400:	03000000 	movweq	r0, #0
     404:	8500061f 	strhi	r0, [r0, #-1567]	; 0xfffff9e1
     408:	04000004 	streq	r0, [r0], #-4
     40c:	00017e00 	andeq	r7, r1, r0, lsl #28
     410:	11010400 	tstne	r1, r0, lsl #8
     414:	0c000001 	stceq	0, cr0, [r0], {1}
     418:	00000210 	andeq	r0, r0, r0, lsl r2
     41c:	00000057 	andeq	r0, r0, r7, asr r0
     420:	000081d8 	ldrdeq	r8, [r0], -r8	; <UNPREDICTABLE>
     424:	00000390 	muleq	r0, r0, r3
     428:	000002a4 	andeq	r0, r0, r4, lsr #5
     42c:	69050402 	stmdbvs	r5, {r1, sl}
     430:	0300746e 	movweq	r7, #1134	; 0x46e
     434:	00ae0704 	adceq	r0, lr, r4, lsl #14
     438:	01030000 	mrseq	r0, (UNDEF: 3)
     43c:	00000a06 	andeq	r0, r0, r6, lsl #20
     440:	05020300 	streq	r0, [r2, #-768]	; 0xfffffd00
     444:	000000fd 	strdeq	r0, [r0], -sp
     448:	e8050403 	stmda	r5, {r0, r1, sl}
     44c:	03000000 	movweq	r0, #0
     450:	00e30508 	rsceq	r0, r3, r8, lsl #10
     454:	01030000 	mrseq	r0, (UNDEF: 3)
     458:	00000808 	andeq	r0, r0, r8, lsl #16
     45c:	07020300 	streq	r0, [r2, -r0, lsl #6]
     460:	00000023 	andeq	r0, r0, r3, lsr #32
     464:	a9070403 	stmdbge	r7, {r0, r1, sl}
     468:	03000000 	movweq	r0, #0
     46c:	00a40708 	adceq	r0, r4, r8, lsl #14
     470:	25040000 	strcs	r0, [r4, #-0]
     474:	7a000000 	bvc	47c <__code_start__-0x7b84>
     478:	05000000 	streq	r0, [r0, #-0]
     47c:	00000025 	andeq	r0, r0, r5, lsr #32
     480:	00f10600 	rscseq	r0, r1, r0, lsl #12
     484:	1c020000 	stcne	0, cr0, [r2], {-0}
     488:	0000860e 	andeq	r8, r0, lr, lsl #12
     48c:	6b040700 	blvs	102094 <__bss_end__+0xf8774>
     490:	04000000 	streq	r0, [r0], #-0
     494:	00000025 	andeq	r0, r0, r5, lsr #32
     498:	0000009b 	muleq	r0, fp, r0
     49c:	00009b05 	andeq	r9, r0, r5, lsl #22
     4a0:	04070000 	streq	r0, [r7], #-0
     4a4:	000000a8 	andeq	r0, r0, r8, lsr #1
     4a8:	11080103 	tstne	r8, r3, lsl #2
     4ac:	08000000 	stmdaeq	r0, {}	; <UNPREDICTABLE>
     4b0:	000000a1 	andeq	r0, r0, r1, lsr #1
     4b4:	0003de06 	andeq	sp, r3, r6, lsl #28
     4b8:	0e210200 	cdpeq	2, 2, cr0, cr1, cr0, {0}
     4bc:	000000b9 	strheq	r0, [r0], -r9
     4c0:	008c0407 	addeq	r0, ip, r7, lsl #8
     4c4:	08090000 	stmdaeq	r9, {}	; <UNPREDICTABLE>
     4c8:	e3055001 	movw	r5, #20481	; 0x5001
     4cc:	0a000000 	beq	4d4 <__code_start__-0x7b2c>
     4d0:	00727470 	rsbseq	r7, r2, r0, ror r4
     4d4:	05175101 	ldreq	r5, [r7, #-257]	; 0xfffffeff
     4d8:	00000001 	andeq	r0, r0, r1
     4dc:	0002460b 	andeq	r4, r2, fp, lsl #12
     4e0:	12520100 	subsne	r0, r2, #0
     4e4:	0000002c 	andeq	r0, r0, ip, lsr #32
     4e8:	e10c0004 	tst	ip, r4
     4ec:	08000001 	stmdaeq	r0, {r0}
     4f0:	050e4f01 	streq	r4, [lr, #-3841]	; 0xfffff0ff
     4f4:	0d000001 	stceq	0, cr0, [r0, #-4]
     4f8:	53010073 	movwpl	r0, #4211	; 0x1073
     4fc:	0000bf07 	andeq	fp, r0, r7, lsl #30
     500:	00780d00 	rsbseq	r0, r8, r0, lsl #26
     504:	410a5401 	tstmi	sl, r1, lsl #8
     508:	00000000 	andeq	r0, r0, r0
     50c:	00e30407 	rsceq	r0, r3, r7, lsl #8
     510:	320e0000 	andcc	r0, lr, #0, 0
     514:	01000002 	tsteq	r0, r2
     518:	00e30355 	rsceq	r0, r3, r5, asr r3
     51c:	03050000 	movweq	r0, #20480	; 0x5000
     520:	00009518 	andeq	r9, r0, r8, lsl r5
     524:	0001f80e 	andeq	pc, r1, lr, lsl #16
     528:	16580100 	ldrbne	r0, [r8], -r0, lsl #2
     52c:	00000105 	andeq	r0, r0, r5, lsl #2
     530:	95140305 	ldrls	r0, [r4, #-773]	; 0xfffffcfb
     534:	360f0000 	strcc	r0, [pc], -r0
     538:	01000000 	mrseq	r0, (UNDEF: 0)
     53c:	82ec06c0 	rschi	r0, ip, #192, 12	; 0xc000000
     540:	01100000 	tsteq	r0, r0
     544:	9c010000 	stcls	0, cr0, [r1], {-0}
     548:	000001a4 	andeq	r0, r0, r4, lsr #3
     54c:	00706110 	rsbseq	r6, r0, r0, lsl r1
     550:	a414c001 	ldrge	ip, [r4], #-1
     554:	62000001 	andvs	r0, r0, #1, 0
     558:	5e000001 	cdppl	0, 0, cr0, cr0, cr1, {0}
     55c:	11000001 	tstne	r0, r1
     560:	01007062 	tsteq	r0, r2, rrx
     564:	010513c7 	smlabteq	r5, r7, r3, r1
     568:	01820000 	orreq	r0, r2, r0
     56c:	01800000 	orreq	r0, r0, r0
     570:	70110000 	andsvc	r0, r1, r0
     574:	13d60100 	bicsne	r0, r6, #0
     578:	00000105 	andeq	r0, r0, r5, lsl #2
     57c:	0000019b 	muleq	r0, fp, r1
     580:	00000195 	muleq	r0, r5, r1
     584:	00830412 	addeq	r0, r3, r2, lsl r4
     588:	0003ae00 	andeq	sl, r3, r0, lsl #28
     58c:	00019100 	andeq	r9, r1, r0, lsl #2
     590:	50011300 	andpl	r1, r1, r0, lsl #6
     594:	00007402 	andeq	r7, r0, r2, lsl #8
     598:	00830c14 	addeq	r0, r3, r4, lsl ip
     59c:	0003ae00 	andeq	sl, r3, r0, lsl #28
     5a0:	83c01400 	bichi	r1, r0, #0, 8
     5a4:	03ae0000 			; <UNDEFINED> instruction: 0x03ae0000
     5a8:	15000000 	strne	r0, [r0, #-0]
     5ac:	01071604 	tsteq	r7, r4, lsl #12
     5b0:	74010000 	strvc	r0, [r1], #-0
     5b4:	0001a407 	andeq	sl, r1, r7, lsl #8
     5b8:	00843800 	addeq	r3, r4, r0, lsl #16
     5bc:	00013000 	andeq	r3, r1, r0
     5c0:	749c0100 	ldrvc	r0, [ip], #256	; 0x100
     5c4:	17000002 	strne	r0, [r0, -r2]
     5c8:	0000024b 	andeq	r0, r0, fp, asr #4
     5cc:	2c1a7401 	cfldrscs	mvf7, [sl], {1}
     5d0:	cc000000 	stcgt	0, cr0, [r0], {-0}
     5d4:	c4000001 	strgt	r0, [r0], #-1
     5d8:	11000001 	tstne	r0, r1
     5dc:	77010070 	smlsdxvc	r1, r0, r0, r0
     5e0:	00010513 	andeq	r0, r1, r3, lsl r5
     5e4:	00021100 	andeq	r1, r2, r0, lsl #2
     5e8:	00020500 	andeq	r0, r2, r0, lsl #10
     5ec:	01e81800 	mvneq	r1, r0, lsl #16
     5f0:	77010000 	strvc	r0, [r1, -r0]
     5f4:	00010517 	andeq	r0, r1, r7, lsl r5
     5f8:	00026400 	andeq	r6, r2, r0, lsl #8
     5fc:	00025c00 	andeq	r5, r2, r0, lsl #24
     600:	02091800 	andeq	r1, r9, #0, 16
     604:	78010000 	stmdavc	r1, {}	; <UNPREDICTABLE>
     608:	00002c0e 	andeq	r2, r0, lr, lsl #24
     60c:	00029c00 	andeq	r9, r2, r0, lsl #24
     610:	00029800 	andeq	r9, r2, r0, lsl #16
     614:	848c1200 	strhi	r1, [ip], #512	; 0x200
     618:	03ae0000 			; <UNDEFINED> instruction: 0x03ae0000
     61c:	02220000 	eoreq	r0, r2, #0, 0
     620:	01130000 	tsteq	r3, r0
     624:	04740250 	ldrbteq	r0, [r4], #-592	; 0xfffffdb0
     628:	84941400 	ldrhi	r1, [r4], #1024	; 0x400
     62c:	03ae0000 			; <UNDEFINED> instruction: 0x03ae0000
     630:	9c140000 	ldcls	0, cr0, [r4], {-0}
     634:	ae000084 	cdpge	0, 0, cr0, cr0, cr4, {4}
     638:	12000003 	andne	r0, r0, #3, 0
     63c:	00008510 	andeq	r8, r0, r0, lsl r5
     640:	000003ae 	andeq	r0, r0, lr, lsr #7
     644:	00000248 	andeq	r0, r0, r8, asr #4
     648:	02500113 	subseq	r0, r0, #-1073741820	; 0xc0000004
     64c:	14000074 	strne	r0, [r0], #-116	; 0xffffff8c
     650:	00008518 	andeq	r8, r0, r8, lsl r5
     654:	000003ae 	andeq	r0, r0, lr, lsr #7
     658:	00852414 	addeq	r2, r5, r4, lsl r4
     65c:	0003ae00 	andeq	sl, r3, r0, lsl #28
     660:	852c1400 	strhi	r1, [ip, #-1024]!	; 0xfffffc00
     664:	03ae0000 			; <UNDEFINED> instruction: 0x03ae0000
     668:	50190000 	andspl	r0, r9, r0
     66c:	74000085 	strvc	r0, [r0], #-133	; 0xffffff7b
     670:	13000002 	movwne	r0, #2
     674:	75025001 	strvc	r5, [r2, #-1]
     678:	1a000000 	bne	680 <__code_start__-0x7980>
     67c:	000001d5 	ldrdeq	r0, [r0], -r5
     680:	05165d01 	ldreq	r5, [r6, #-3329]	; 0xfffff2ff
     684:	fc000001 	stc2	0, cr0, [r0], {1}
     688:	3c000083 	stccc	0, cr0, [r0], {131}	; 0x83
     68c:	01000000 	mrseq	r0, (UNDEF: 0)
     690:	0002f99c 	muleq	r2, ip, r9
     694:	756e1000 	strbvc	r1, [lr, #-0]!
     698:	2b5d0100 	blcs	1740aa0 <__bss_end__+0x1737180>
     69c:	0000002c 	andeq	r0, r0, ip, lsr #32
     6a0:	000002be 			; <UNDEFINED> instruction: 0x000002be
     6a4:	000002ba 			; <UNDEFINED> instruction: 0x000002ba
     6a8:	00706311 	rsbseq	r6, r0, r1, lsl r3
     6ac:	f90b5f01 			; <UNDEFINED> instruction: 0xf90b5f01
     6b0:	e2000002 	and	r0, r0, #2, 0
     6b4:	dc000002 	stcle	0, cr0, [r0], {2}
     6b8:	11000002 	tstne	r0, r2
     6bc:	01007075 	tsteq	r0, r5, ror r0
     6c0:	01051365 	tsteq	r5, r5, ror #6
     6c4:	03110000 	tsteq	r1, #0, 0
     6c8:	030d0000 	movweq	r0, #53248	; 0xd000
     6cc:	361b0000 	ldrcc	r0, [fp], -r0
     6d0:	01000000 	mrseq	r0, (UNDEF: 0)
     6d4:	02d9116a 	sbcseq	r1, r9, #-2147483622	; 0x8000001a
     6d8:	a4050000 	strge	r0, [r5], #-0
     6dc:	00000001 	andeq	r0, r0, r1
     6e0:	00840c12 	addeq	r0, r4, r2, lsl ip
     6e4:	0002ff00 	andeq	pc, r2, r0, lsl #30
     6e8:	0002ef00 	andeq	lr, r2, r0, lsl #30
     6ec:	50011300 	andpl	r1, r1, r0, lsl #6
     6f0:	33007404 	movwcc	r7, #1028	; 0x404
     6f4:	20140024 	andscs	r0, r4, r4, lsr #32
     6f8:	2f000084 	svccs	0x00000084
     6fc:	00000001 	andeq	r0, r0, r1
     700:	00a10407 	adceq	r0, r1, r7, lsl #8
     704:	21160000 	tstcs	r6, r0
     708:	01000002 	tsteq	r0, r2
     70c:	01a40728 			; <UNDEFINED> instruction: 0x01a40728
     710:	828c0000 	addhi	r0, ip, #0, 0
     714:	00600000 	rsbeq	r0, r0, r0
     718:	9c010000 	stcls	0, cr0, [r1], {-0}
     71c:	000003ae 	andeq	r0, r0, lr, lsr #7
     720:	0001ee17 	andeq	lr, r1, r7, lsl lr
     724:	14280100 	strtne	r0, [r8], #-256	; 0xffffff00
     728:	00000041 	andeq	r0, r0, r1, asr #32
     72c:	0000033b 	andeq	r0, r0, fp, lsr r3
     730:	00000331 	andeq	r0, r0, r1, lsr r3
     734:	0001fe1c 	andeq	pc, r1, ip, lsl lr	; <UNPREDICTABLE>
     738:	12310100 	eorsne	r0, r1, #0
     73c:	000002f9 	strdeq	r0, [r0], -r9
     740:	00040000 	andeq	r0, r4, r0
     744:	0002370e 	andeq	r3, r2, lr, lsl #14
     748:	12320100 	eorsne	r0, r2, #0
     74c:	000002f9 	strdeq	r0, [r0], -r9
     750:	95080305 	strls	r0, [r8, #-773]	; 0xfffffcfb
     754:	291c0000 	ldmdbcs	ip, {}	; <UNPREDICTABLE>
     758:	01000002 	tsteq	r0, r2
     75c:	02f91233 	rscseq	r1, r9, #805306371	; 0x30000003
     760:	00000000 	andeq	r0, r0, r0
     764:	6f110005 	svcvs	0x00110005
     768:	0100646c 	tsteq	r0, ip, ror #8
     76c:	02f90b40 	rscseq	r0, r9, #64, 22	; 0x10000
     770:	03820000 	orreq	r0, r2, #0, 0
     774:	03800000 	orreq	r0, r0, #0, 0
     778:	a4140000 	ldrge	r0, [r4], #-0
     77c:	ae000082 	cdpge	0, 0, cr0, cr0, cr2, {4}
     780:	12000003 	andne	r0, r0, #3, 0
     784:	000082ac 	andeq	r8, r0, ip, lsr #5
     788:	000003ae 	andeq	r0, r0, lr, lsr #7
     78c:	00000390 	muleq	r0, r0, r3
     790:	02500113 	subseq	r0, r0, #-1073741820	; 0xc0000004
     794:	12000074 	andne	r0, r0, #116, 0	; 0x74
     798:	000082d0 	ldrdeq	r8, [r0], -r0
     79c:	000003ae 	andeq	r0, r0, lr, lsr #7
     7a0:	000003a4 	andeq	r0, r0, r4, lsr #7
     7a4:	02500113 	subseq	r0, r0, #-1073741820	; 0xc0000004
     7a8:	14000075 	strne	r0, [r0], #-117	; 0xffffff8b
     7ac:	000082d8 	ldrdeq	r8, [r0], -r8	; <UNPREDICTABLE>
     7b0:	000003ae 	andeq	r0, r0, lr, lsr #7
     7b4:	021c1d00 	andseq	r1, ip, #0, 26
     7b8:	1e010000 	cdpne	0, 0, cr0, cr1, cr0, {0}
     7bc:	0082740d 	addeq	r7, r2, sp, lsl #8
     7c0:	00001800 	andeq	r1, r0, r0, lsl #16
     7c4:	fd9c0100 	ldc2	1, cr0, [ip]
     7c8:	10000003 	andne	r0, r0, r3
     7cc:	1e010078 	mcrne	0, 0, r0, cr1, cr8, {3}
     7d0:	00002c1b 	andeq	r2, r0, fp, lsl ip
     7d4:	00039900 	andeq	r9, r3, r0, lsl #18
     7d8:	00039500 	andeq	r9, r3, r0, lsl #10
     7dc:	75621e00 	strbvc	r1, [r2, #-3584]!	; 0xfffff200
     7e0:	1f010066 	svcne	0x00010066
     7e4:	0003fd0a 	andeq	pc, r3, sl, lsl #26
     7e8:	58910200 	ldmpl	r1, {r9}
     7ec:	00828419 	addeq	r8, r2, r9, lsl r4
     7f0:	00040d00 	andeq	r0, r4, r0, lsl #26
     7f4:	50011300 	andpl	r1, r1, r0, lsl #6
     7f8:	5001f303 	andpl	pc, r1, r3, lsl #6
     7fc:	02510113 	subseq	r0, r1, #-1073741820	; 0xc0000004
     800:	0000007d 	andeq	r0, r0, sp, ror r0
     804:	0000a11f 	andeq	sl, r0, pc, lsl r1
     808:	00040d00 	andeq	r0, r4, r0, lsl #26
     80c:	002c2000 	eoreq	r2, ip, r0
     810:	001f0000 	andseq	r0, pc, r0
     814:	00024021 	andeq	r4, r2, r1, lsr #32
     818:	0d0c0100 	stfeqs	f0, [ip, #-0]
     81c:	000081d8 	ldrdeq	r8, [r0], -r8	; <UNPREDICTABLE>
     820:	0000009c 	muleq	r0, ip, r0
     824:	78109c01 	ldmdavc	r0, {r0, sl, fp, ip, pc}
     828:	1c0c0100 	stfnes	f0, [ip], {-0}
     82c:	0000002c 	andeq	r0, r0, ip, lsr #32
     830:	000003be 			; <UNDEFINED> instruction: 0x000003be
     834:	000003ba 			; <UNDEFINED> instruction: 0x000003ba
     838:	66756222 	ldrbtvs	r6, [r5], -r2, lsr #4
     83c:	250c0100 	strcs	r0, [ip, #-256]	; 0xffffff00
     840:	000002f9 	strdeq	r0, [r0], -r9
     844:	69115101 	ldmdbvs	r1, {r0, r8, ip, lr}
     848:	09120100 	ldmdbeq	r2, {r8}
     84c:	00000025 	andeq	r0, r0, r5, lsr #32
     850:	000003e4 	andeq	r0, r0, r4, ror #7
     854:	000003dc 	ldrdeq	r0, [r0], -ip
     858:	00003023 	andeq	r3, r0, r3, lsr #32
     85c:	006a1100 	rsbeq	r1, sl, r0, lsl #2
     860:	250d1801 	strcs	r1, [sp, #-2049]	; 0xfffff7ff
     864:	1c000000 	stcne	0, cr0, [r0], {-0}
     868:	1a000004 	bne	880 <__code_start__-0x7780>
     86c:	24000004 	strcs	r0, [r0], #-4
     870:	00008244 	andeq	r8, r0, r4, asr #4
     874:	00000018 	andeq	r0, r0, r8, lsl r0
     878:	706d7411 	rsbvc	r7, sp, r1, lsl r4
     87c:	0e190100 	mufeqe	f0, f1, f0
     880:	000000a1 	andeq	r0, r0, r1, lsr #1
     884:	00000431 	andeq	r0, r0, r1, lsr r4
     888:	0000042f 	andeq	r0, r0, pc, lsr #8
     88c:	00000000 	andeq	r0, r0, r0
     890:	0000019d 	muleq	r0, sp, r1
     894:	03b70004 			; <UNDEFINED> instruction: 0x03b70004
     898:	01040000 	mrseq	r0, (UNDEF: 4)
     89c:	0000025c 	andeq	r0, r0, ip, asr r2
     8a0:	0003820c 	andeq	r8, r3, ip, lsl #4
     8a4:	00032b00 	andeq	r2, r3, r0, lsl #22
     8a8:	00856800 	addeq	r6, r5, r0, lsl #16
     8ac:	00005800 	andeq	r5, r0, r0, lsl #16
     8b0:	00068c00 	andeq	r8, r6, r0, lsl #24
     8b4:	036e0200 	cmneq	lr, #0, 4
     8b8:	28020000 	stmdacs	r2, {}	; <UNPREDICTABLE>
     8bc:	0000311b 	andeq	r3, r0, fp, lsl r1
     8c0:	03920300 	orrseq	r0, r2, #0, 6
     8c4:	04040000 	streq	r0, [r4], #-0
     8c8:	00004800 	andeq	r4, r0, r0, lsl #16
     8cc:	037d0400 	cmneq	sp, #0, 8
     8d0:	00480000 	subeq	r0, r8, r0
     8d4:	00000000 	andeq	r0, r0, r0
     8d8:	94020405 	strls	r0, [r2], #-1029	; 0xfffffbfb
     8dc:	02000003 	andeq	r0, r0, #3, 0
     8e0:	00251863 	eoreq	r1, r5, r3, ror #16
     8e4:	04060000 	streq	r0, [r6], #-0
     8e8:	746e6905 	strbtvc	r6, [lr], #-2309	; 0xfffff6fb
     8ec:	07040700 	streq	r0, [r4, -r0, lsl #14]
     8f0:	000000ae 	andeq	r0, r0, lr, lsr #1
     8f4:	0a060107 	beq	180d18 <__bss_end__+0x1773f8>
     8f8:	07000000 	streq	r0, [r0, -r0]
     8fc:	00fd0502 	rscseq	r0, sp, r2, lsl #10
     900:	04070000 	streq	r0, [r7], #-0
     904:	0000e805 	andeq	lr, r0, r5, lsl #16
     908:	05080700 	streq	r0, [r8, #-1792]	; 0xfffff900
     90c:	000000e3 	andeq	r0, r0, r3, ror #1
     910:	08080107 	stmdaeq	r8, {r0, r1, r2, r8}
     914:	07000000 	streq	r0, [r0, -r0]
     918:	00230702 	eoreq	r0, r3, r2, lsl #14
     91c:	04070000 	streq	r0, [r7], #-0
     920:	0000a907 	andeq	sl, r0, r7, lsl #18
     924:	07080700 	streq	r0, [r8, -r0, lsl #14]
     928:	000000a4 	andeq	r0, r0, r4, lsr #1
     92c:	00005608 	andeq	r5, r0, r8, lsl #12
     930:	0000ab00 	andeq	sl, r0, r0, lsl #22
     934:	00560900 	subseq	r0, r6, r0, lsl #18
     938:	0a000000 	beq	940 <__code_start__-0x76c0>
     93c:	000000f1 	strdeq	r0, [r0], -r1
     940:	b70e1c03 	strlt	r1, [lr, -r3, lsl #24]
     944:	0b000000 	bleq	94c <__code_start__-0x76b4>
     948:	00009c04 	andeq	r9, r0, r4, lsl #24
     94c:	00560800 	subseq	r0, r6, r0, lsl #16
     950:	00cc0000 	sbceq	r0, ip, r0
     954:	cc090000 	stcgt	0, cr0, [r9], {-0}
     958:	00000000 	andeq	r0, r0, r0
     95c:	00d9040b 	sbcseq	r0, r9, fp, lsl #8
     960:	01070000 	mrseq	r0, (UNDEF: 7)
     964:	00001108 	andeq	r1, r0, r8, lsl #2
     968:	00d20c00 	sbcseq	r0, r2, r0, lsl #24
     96c:	de0a0000 	cdple	0, 0, cr0, cr10, cr0, {0}
     970:	03000003 	movweq	r0, #3
     974:	00ea0e21 	rsceq	r0, sl, r1, lsr #28
     978:	040b0000 	streq	r0, [fp], #-0
     97c:	000000bd 	strheq	r0, [r0], -sp
     980:	0003670d 	andeq	r6, r3, sp, lsl #14
     984:	05060100 	streq	r0, [r6, #-256]	; 0xffffff00
     988:	00000056 	andeq	r0, r0, r6, asr r0
     98c:	00008568 	andeq	r8, r0, r8, ror #10
     990:	00000058 	andeq	r0, r0, r8, asr r0
     994:	01839c01 	orreq	r9, r3, r1, lsl #24
     998:	660e0000 	strvs	r0, [lr], -r0
     99c:	0100746d 	tsteq	r0, sp, ror #8
     9a0:	00cc1806 	sbceq	r1, ip, r6, lsl #16
     9a4:	91020000 	mrsls	r0, (UNDEF: 2)
     9a8:	62100f70 	andsvs	r0, r0, #112, 30	; 0x1c0
     9ac:	01006675 	tsteq	r0, r5, ror r6
     9b0:	01831108 	orreq	r1, r3, r8, lsl #2
     9b4:	03050000 	movweq	r0, #20480	; 0x5000
     9b8:	00009520 	andeq	r9, r0, r0, lsr #10
     9bc:	00032611 	andeq	r2, r3, r1, lsl r6
     9c0:	0d090100 	stfeqs	f0, [r9, #-0]
     9c4:	0000004a 	andeq	r0, r0, sl, asr #32
     9c8:	125c9102 	subsne	r9, ip, #-2147483648	; 0x80000000
     9cc:	01007a73 	tsteq	r0, r3, ror sl
     9d0:	00560d0c 	subseq	r0, r6, ip, lsl #26
     9d4:	044a0000 	strbeq	r0, [sl], #-0
     9d8:	04440000 	strbeq	r0, [r4], #-0
     9dc:	90130000 	andsls	r0, r3, r0
     9e0:	94000085 	strls	r0, [r0], #-133	; 0xffffff7b
     9e4:	76000001 	strvc	r0, [r0], -r1
     9e8:	14000001 	strne	r0, [r0], #-1
     9ec:	75025001 	strvc	r5, [r2, #-1]
     9f0:	51011400 	tstpl	r1, r0, lsl #8
     9f4:	04000a03 	streq	r0, [r0], #-2563	; 0xfffff5fd
     9f8:	03520114 	cmpeq	r2, #5
     9fc:	14064891 	strne	r4, [r6], #-2193	; 0xfffff76f
     a00:	91025301 	tstls	r2, r1, lsl #6
     a04:	a415004c 	ldrge	r0, [r5], #-76	; 0xffffffb4
     a08:	14000085 	strne	r0, [r0], #-133	; 0xffffff7b
     a0c:	75025001 	strvc	r5, [r2, #-1]
     a10:	16000000 	strne	r0, [r0], -r0
     a14:	000000d2 	ldrdeq	r0, [r0], -r2
     a18:	00000194 	muleq	r0, r4, r1
     a1c:	00005d17 	andeq	r5, r0, r7, lsl sp
     a20:	0003ff00 	andeq	pc, r3, r0, lsl #30
     a24:	00036418 	andeq	r6, r3, r8, lsl r4
     a28:	00036400 	andeq	r6, r3, r0, lsl #8
     a2c:	05020500 	streq	r0, [r2, #-1280]	; 0xfffffb00
     a30:	00014900 	andeq	r4, r1, r0, lsl #18
     a34:	f9000400 			; <UNDEFINED> instruction: 0xf9000400
     a38:	04000004 	streq	r0, [r0], #-4
     a3c:	00025c01 	andeq	r5, r2, r1, lsl #24
     a40:	03ba0c00 			; <UNDEFINED> instruction: 0x03ba0c00
     a44:	032b0000 			; <UNDEFINED> instruction: 0x032b0000
     a48:	85c00000 	strbhi	r0, [r0]
     a4c:	003c0000 	eorseq	r0, ip, r0
     a50:	07b80000 	ldreq	r0, [r8, r0]!
     a54:	04020000 	streq	r0, [r2], #-0
     a58:	746e6905 	strbtvc	r6, [lr], #-2309	; 0xfffff6fb
     a5c:	07040300 	streq	r0, [r4, -r0, lsl #6]
     a60:	000000ae 	andeq	r0, r0, lr, lsr #1
     a64:	0a060103 	beq	180e78 <__bss_end__+0x177558>
     a68:	03000000 	movweq	r0, #0
     a6c:	00fd0502 	rscseq	r0, sp, r2, lsl #10
     a70:	04030000 	streq	r0, [r3], #-0
     a74:	0000e805 	andeq	lr, r0, r5, lsl #16
     a78:	05080300 	streq	r0, [r8, #-768]	; 0xfffffd00
     a7c:	000000e3 	andeq	r0, r0, r3, ror #1
     a80:	08080103 	stmdaeq	r8, {r0, r1, r8}
     a84:	03000000 	movweq	r0, #0
     a88:	00230702 	eoreq	r0, r3, r2, lsl #14
     a8c:	04030000 	streq	r0, [r3], #-0
     a90:	0000a907 	andeq	sl, r0, r7, lsl #18
     a94:	07080300 	streq	r0, [r8, -r0, lsl #6]
     a98:	000000a4 	andeq	r0, r0, r4, lsr #1
     a9c:	00002504 	andeq	r2, r0, r4, lsl #10
     aa0:	00007a00 	andeq	r7, r0, r0, lsl #20
     aa4:	00250500 	eoreq	r0, r5, r0, lsl #10
     aa8:	06000000 	streq	r0, [r0], -r0
     aac:	000000f1 	strdeq	r0, [r0], -r1
     ab0:	860e1c02 	strhi	r1, [lr], -r2, lsl #24
     ab4:	07000000 	streq	r0, [r0, -r0]
     ab8:	00006b04 	andeq	r6, r0, r4, lsl #22
     abc:	00250400 	eoreq	r0, r5, r0, lsl #8
     ac0:	009b0000 	addseq	r0, fp, r0
     ac4:	9b050000 	blls	140acc <__bss_end__+0x1371ac>
     ac8:	00000000 	andeq	r0, r0, r0
     acc:	00a80407 	adceq	r0, r8, r7, lsl #8
     ad0:	01030000 	mrseq	r0, (UNDEF: 3)
     ad4:	00001108 	andeq	r1, r0, r8, lsl #2
     ad8:	00a10800 	adceq	r0, r1, r0, lsl #16
     adc:	de060000 	cdple	0, 0, cr0, cr6, cr0, {0}
     ae0:	02000003 	andeq	r0, r0, #3, 0
     ae4:	00b90e21 	adcseq	r0, r9, r1, lsr #28
     ae8:	04070000 	streq	r0, [r7], #-0
     aec:	0000008c 	andeq	r0, r0, ip, lsl #1
     af0:	00007a09 	andeq	r7, r0, r9, lsl #20
     af4:	07060100 	streq	r0, [r6, -r0, lsl #2]
     af8:	950c0305 	strls	r0, [ip, #-773]	; 0xfffffcfb
     afc:	ad0a0000 	stcge	0, cr0, [sl, #-0]
     b00:	01000003 	tsteq	r0, r3
     b04:	85ec060b 	strbhi	r0, [ip, #1547]!	; 0x60b
     b08:	00100000 	andseq	r0, r0, r0
     b0c:	9c010000 	stcls	0, cr0, [r1], {-0}
     b10:	000000f1 	strdeq	r0, [r0], -r1
     b14:	0070660b 	rsbseq	r6, r0, fp, lsl #12
     b18:	86190b01 	ldrhi	r0, [r9], -r1, lsl #22
     b1c:	01000000 	mrseq	r0, (UNDEF: 0)
     b20:	c60c0050 			; <UNDEFINED> instruction: 0xc60c0050
     b24:	01000001 	tsteq	r0, r1
     b28:	85d40608 	ldrbhi	r0, [r4, #1544]	; 0x608
     b2c:	00180000 	andseq	r0, r8, r0
     b30:	9c010000 	stcls	0, cr0, [r1], {-0}
     b34:	00039c0d 	andeq	r9, r3, sp, lsl #24
     b38:	0c030100 	stfeqs	f0, [r3], {-0}
     b3c:	00000025 	andeq	r0, r0, r5, lsr #32
     b40:	000085c0 	andeq	r8, r0, r0, asr #11
     b44:	00000014 	andeq	r0, r0, r4, lsl r0
     b48:	01409c01 	cmpeq	r0, r1, lsl #24
     b4c:	630e0000 	movwvs	r0, #57344	; 0xe000
     b50:	21030100 	mrscs	r0, (UNDEF: 19)
     b54:	00000025 	andeq	r0, r0, r5, lsr #32
     b58:	00000477 	andeq	r0, r0, r7, ror r4
     b5c:	00000473 	andeq	r0, r0, r3, ror r4
     b60:	0085cc0f 	addeq	ip, r5, pc, lsl #24
     b64:	00014000 	andeq	r4, r1, r0
     b68:	50011000 	andpl	r1, r1, r0
     b6c:	00007402 	andeq	r7, r0, r2, lsl #8
     b70:	03cb1100 	biceq	r1, fp, #0
     b74:	03cb0000 	biceq	r0, fp, #0, 0
     b78:	42020000 	andmi	r0, r2, #0, 0
     b7c:	00f30006 	rscseq	r0, r3, r6
     b80:	00040000 	andeq	r0, r4, r0
     b84:	00000608 	andeq	r0, r0, r8, lsl #12
     b88:	025c0104 	subseq	r0, ip, #1
     b8c:	e30c0000 	movw	r0, #49152	; 0xc000
     b90:	2b000003 	blcs	ba4 <__code_start__-0x745c>
     b94:	fc000003 	stc2	0, cr0, [r0], {3}
     b98:	34000085 	strcc	r0, [r0], #-133	; 0xffffff7b
     b9c:	6c000000 	stcvs	0, cr0, [r0], {-0}
     ba0:	02000008 	andeq	r0, r0, #8, 0
     ba4:	6e690504 	cdpvs	5, 6, cr0, cr9, cr4, {0}
     ba8:	04030074 	streq	r0, [r3], #-116	; 0xffffff8c
     bac:	0000ae07 	andeq	sl, r0, r7, lsl #28
     bb0:	06010300 	streq	r0, [r1], -r0, lsl #6
     bb4:	0000000a 	andeq	r0, r0, sl
     bb8:	fd050203 	stc2	2, cr0, [r5, #-12]
     bbc:	03000000 	movweq	r0, #0
     bc0:	00e80504 	rsceq	r0, r8, r4, lsl #10
     bc4:	08030000 	stmdaeq	r3, {}	; <UNPREDICTABLE>
     bc8:	0000e305 	andeq	lr, r0, r5, lsl #6
     bcc:	08010300 	stmdaeq	r1, {r8, r9}
     bd0:	00000008 	andeq	r0, r0, r8
     bd4:	23070203 	movwcs	r0, #29187	; 0x7203
     bd8:	03000000 	movweq	r0, #0
     bdc:	00a90704 	adceq	r0, r9, r4, lsl #14
     be0:	08030000 	stmdaeq	r3, {}	; <UNPREDICTABLE>
     be4:	0000a407 	andeq	sl, r0, r7, lsl #8
     be8:	00250400 	eoreq	r0, r5, r0, lsl #8
     bec:	007a0000 	rsbseq	r0, sl, r0
     bf0:	25050000 	strcs	r0, [r5, #-0]
     bf4:	00000000 	andeq	r0, r0, r0
     bf8:	0000f106 	andeq	pc, r0, r6, lsl #2
     bfc:	0e1c0200 	cdpeq	2, 1, cr0, cr12, cr0, {0}
     c00:	00000086 	andeq	r0, r0, r6, lsl #1
     c04:	006b0407 	rsbeq	r0, fp, r7, lsl #8
     c08:	25040000 	strcs	r0, [r4, #-0]
     c0c:	9b000000 	blls	c14 <__code_start__-0x73ec>
     c10:	05000000 	streq	r0, [r0, #-0]
     c14:	0000009b 	muleq	r0, fp, r0
     c18:	a8040700 	stmdage	r4, {r8, r9, sl}
     c1c:	03000000 	movweq	r0, #0
     c20:	00110801 	andseq	r0, r1, r1, lsl #16
     c24:	a1080000 	mrsge	r0, (UNDEF: 8)
     c28:	06000000 	streq	r0, [r0], -r0
     c2c:	000003de 	ldrdeq	r0, [r0], -lr
     c30:	b90e2102 	stmdblt	lr, {r1, r8, sp}
     c34:	07000000 	streq	r0, [r0, -r0]
     c38:	00008c04 	andeq	r8, r0, r4, lsl #24
     c3c:	00ad0900 	adceq	r0, sp, r0, lsl #18
     c40:	0c010000 	stceq	0, cr0, [r1], {-0}
     c44:	10030507 	andne	r0, r3, r7, lsl #10
     c48:	0a000095 	beq	ea4 <__code_start__-0x715c>
     c4c:	000003d5 	ldrdeq	r0, [r0], -r5
     c50:	25050401 	strcs	r0, [r5, #-1025]	; 0xfffffbff
     c54:	fc000000 	stc2	0, cr0, [r0], {-0}
     c58:	34000085 	strcc	r0, [r0], #-133	; 0xffffff7b
     c5c:	01000000 	mrseq	r0, (UNDEF: 0)
     c60:	00700b9c 			; <UNDEFINED> instruction: 0x00700b9c
     c64:	9b1f0401 	blls	7c1c70 <__bss_end__+0x7b8350>
     c68:	99000000 	stmdbls	r0, {}	; <UNPREDICTABLE>
     c6c:	95000004 	strls	r0, [r0, #-4]
     c70:	00000004 	andeq	r0, r0, r4
     c74:	000ad700 	andeq	sp, sl, r0, lsl #14
     c78:	a6000400 	strge	r0, [r0], -r0, lsl #8
     c7c:	04000006 	streq	r0, [r0], #-6
     c80:	00025c01 	andeq	r5, r2, r1, lsl #24
     c84:	04020c00 	streq	r0, [r2], #-3072	; 0xfffff400
     c88:	032b0000 			; <UNDEFINED> instruction: 0x032b0000
     c8c:	86300000 	ldrthi	r0, [r0], -r0
     c90:	07400000 	strbeq	r0, [r0, -r0]
     c94:	092d0000 	pusheq	{}	; <UNPREDICTABLE>
     c98:	04020000 	streq	r0, [r2], #-0
     c9c:	746e6905 	strbtvc	r6, [lr], #-2309	; 0xfffff6fb
     ca0:	07040300 	streq	r0, [r4, -r0, lsl #6]
     ca4:	000000ae 	andeq	r0, r0, lr, lsr #1
     ca8:	0a060103 	beq	1810bc <__bss_end__+0x17779c>
     cac:	03000000 	movweq	r0, #0
     cb0:	00fd0502 	rscseq	r0, sp, r2, lsl #10
     cb4:	04030000 	streq	r0, [r3], #-0
     cb8:	0000e805 	andeq	lr, r0, r5, lsl #16
     cbc:	05080300 	streq	r0, [r8, #-768]	; 0xfffffd00
     cc0:	000000e3 	andeq	r0, r0, r3, ror #1
     cc4:	08080103 	stmdaeq	r8, {r0, r1, r8}
     cc8:	03000000 	movweq	r0, #0
     ccc:	00230702 	eoreq	r0, r3, r2, lsl #14
     cd0:	68040000 	stmdavs	r4, {}	; <UNPREDICTABLE>
     cd4:	02000004 	andeq	r0, r0, #4, 0
     cd8:	00691934 	rsbeq	r1, r9, r4, lsr r9
     cdc:	04030000 	streq	r0, [r3], #-0
     ce0:	0000a907 	andeq	sl, r0, r7, lsl #18
     ce4:	03f90400 	mvnseq	r0, #0, 8
     ce8:	37020000 	strcc	r0, [r2, -r0]
     cec:	00007c19 	andeq	r7, r0, r9, lsl ip
     cf0:	07080300 	streq	r0, [r8, -r0, lsl #6]
     cf4:	000000a4 	andeq	r0, r0, r4, lsr #1
     cf8:	00002505 	andeq	r2, r0, r5, lsl #10
     cfc:	00009200 	andeq	r9, r0, r0, lsl #4
     d00:	00250600 	eoreq	r0, r5, r0, lsl #12
     d04:	07000000 	streq	r0, [r0, -r0]
     d08:	000000f1 	strdeq	r0, [r0], -r1
     d0c:	9e0e1c03 	cdpls	12, 0, cr1, cr14, cr3, {0}
     d10:	08000000 	stmdaeq	r0, {}	; <UNPREDICTABLE>
     d14:	00008304 	andeq	r8, r0, r4, lsl #6
     d18:	00250500 	eoreq	r0, r5, r0, lsl #10
     d1c:	00b30000 	adcseq	r0, r3, r0
     d20:	b3060000 	movwlt	r0, #24576	; 0x6000
     d24:	00000000 	andeq	r0, r0, r0
     d28:	00c00408 	sbceq	r0, r0, r8, lsl #8
     d2c:	01030000 	mrseq	r0, (UNDEF: 3)
     d30:	00001108 	andeq	r1, r0, r8, lsl #2
     d34:	00b90900 	adcseq	r0, r9, r0, lsl #18
     d38:	de070000 	cdple	0, 0, cr0, cr7, cr0, {0}
     d3c:	03000003 	movweq	r0, #3
     d40:	00d10e21 	sbcseq	r0, r1, r1, lsr #28
     d44:	04080000 	streq	r0, [r8], #-0
     d48:	000000a4 	andeq	r0, r0, r4, lsr #1
     d4c:	00041507 	andeq	r1, r4, r7, lsl #10
     d50:	0d0b0400 	cfstrseq	mvf0, [fp, #-0]
     d54:	000000b9 	strheq	r0, [r0], -r9
     d58:	00049707 	andeq	r9, r4, r7, lsl #14
     d5c:	0d0c0400 	cfstrseq	mvf0, [ip, #-0]
     d60:	000000b9 	strheq	r0, [r0], -r9
     d64:	00042407 	andeq	r2, r4, r7, lsl #8
     d68:	0d0d0400 	cfstrseq	mvf0, [sp, #-0]
     d6c:	000000b9 	strheq	r0, [r0], -r9
     d70:	00044d07 	andeq	r4, r4, r7, lsl #26
     d74:	0d0e0400 	cfstrseq	mvf0, [lr, #-0]
     d78:	000000b9 	strheq	r0, [r0], -r9
     d7c:	0004c707 	andeq	ip, r4, r7, lsl #14
     d80:	0d0f0400 	cfstrseq	mvf0, [pc, #-0]	; d88 <__code_start__-0x7278>
     d84:	000000b9 	strheq	r0, [r0], -r9
     d88:	00043807 	andeq	r3, r4, r7, lsl #16
     d8c:	0d100400 	cfldrseq	mvf0, [r0, #-0]
     d90:	000000b9 	strheq	r0, [r0], -r9
     d94:	0004d607 	andeq	sp, r4, r7, lsl #12
     d98:	0d110400 	cfldrseq	mvf0, [r1, #-0]
     d9c:	000000b9 	strheq	r0, [r0], -r9
     da0:	00045907 	andeq	r5, r4, r7, lsl #18
     da4:	0d120400 	cfldrseq	mvf0, [r2, #-0]
     da8:	000000b9 	strheq	r0, [r0], -r9
     dac:	00036e04 	andeq	r6, r3, r4, lsl #28
     db0:	1b280500 	blne	a021b8 <__bss_end__+0x9f8898>
     db4:	00000143 	andeq	r0, r0, r3, asr #2
     db8:	0003920a 	andeq	r9, r3, sl, lsl #4
     dbc:	00060400 	andeq	r0, r6, r0, lsl #8
     dc0:	0000015a 	andeq	r0, r0, sl, asr r1
     dc4:	00037d0b 	andeq	r7, r3, fp, lsl #26
     dc8:	00015a00 	andeq	r5, r1, r0, lsl #20
     dcc:	0c000000 	stceq	0, cr0, [r0], {-0}
     dd0:	03940404 	orrseq	r0, r4, #4, 8	; 0x4000000
     dd4:	63050000 	movwvs	r0, #20480	; 0x5000
     dd8:	00013718 	andeq	r3, r1, r8, lsl r7
     ddc:	03640d00 	cmneq	r4, #0, 26
     de0:	81010000 	mrshi	r0, (UNDEF: 1)
     de4:	00002505 	andeq	r2, r0, r5, lsl #10
     de8:	0088b800 	addeq	fp, r8, r0, lsl #16
     dec:	0004b800 	andeq	fp, r4, r0, lsl #16
     df0:	179c0100 	ldrne	r0, [ip, r0, lsl #2]
     df4:	0e000007 	cdpeq	0, 0, cr0, cr0, cr7, {0}
     df8:	00667562 	rsbeq	r7, r6, r2, ror #10
     dfc:	17158101 	ldrne	r8, [r5, -r1, lsl #2]
     e00:	bd000007 	stclt	0, cr0, [r0, #-28]	; 0xffffffe4
     e04:	b7000004 	strlt	r0, [r0, -r4]
     e08:	0e000004 	cdpeq	0, 0, cr0, cr0, cr4, {0}
     e0c:	8101006e 	tsthi	r1, lr, rrx
     e10:	0000251e 	andeq	r2, r0, lr, lsl r5
     e14:	0004ef00 	andeq	lr, r4, r0, lsl #30
     e18:	0004e900 	andeq	lr, r4, r0, lsl #18
     e1c:	6d660e00 	stclvs	14, cr0, [r6, #-0]
     e20:	81010074 	tsthi	r1, r4, ror r0
     e24:	0000b32d 	andeq	fp, r0, sp, lsr #6
     e28:	00052900 	andeq	r2, r5, r0, lsl #18
     e2c:	00051d00 	andeq	r1, r5, r0, lsl #26
     e30:	03260f00 			; <UNDEFINED> instruction: 0x03260f00
     e34:	81010000 	mrshi	r0, (UNDEF: 1)
     e38:	00015c3a 	andeq	r5, r1, sl, lsr ip
     e3c:	d4910300 	ldrle	r0, [r1], #768	; 0x300
     e40:	0070107d 	rsbseq	r1, r0, sp, ror r0
     e44:	17088201 	strne	r8, [r8, -r1, lsl #4]
     e48:	87000007 	strhi	r0, [r0, -r7]
     e4c:	73000005 	movwvc	r0, #5
     e50:	10000005 	andne	r0, r0, r5
     e54:	82010065 	andhi	r0, r1, #101, 0	; 0x65
     e58:	00071712 	andeq	r1, r7, r2, lsl r7
     e5c:	00060900 	andeq	r0, r6, r0, lsl #18
     e60:	00060500 	andeq	r0, r6, r0, lsl #10
     e64:	30781000 	rsbscc	r1, r8, r0
     e68:	0e830100 	rmfeqs	f0, f3, f0
     e6c:	0000005d 	andeq	r0, r0, sp, asr r0
     e70:	00000636 	andeq	r0, r0, r6, lsr r6
     e74:	00000630 	andeq	r0, r0, r0, lsr r6
     e78:	00317810 	eorseq	r7, r1, r0, lsl r8
     e7c:	5d118301 	ldcpl	3, cr8, [r1, #-4]
     e80:	63000000 	movwvs	r0, #0
     e84:	5f000006 	svcpl	0x00000006
     e88:	11000006 	tstne	r0, r6
     e8c:	00000480 	andeq	r0, r0, r0, lsl #9
     e90:	b3118601 	tstlt	r1, #1048576	; 0x100000
     e94:	85000000 	strhi	r0, [r0, #-0]
     e98:	81000006 	tsthi	r0, r6
     e9c:	12000006 	andne	r0, r0, #6, 0
     ea0:	00000043 	andeq	r0, r0, r3, asr #32
     ea4:	0000072d 	andeq	r0, r0, sp, lsr #14
     ea8:	94f00305 	ldrbtls	r0, [r0], #773	; 0x305
     eac:	20130000 	andscs	r0, r3, r0
     eb0:	00000089 	andeq	r0, r0, r9, lsl #1
     eb4:	10000004 	andne	r0, r0, r4
     eb8:	91010073 	tstls	r1, r3, ror r0
     ebc:	0007170a 	andeq	r1, r7, sl, lsl #14
     ec0:	0006bb00 	andeq	fp, r6, r0, lsl #22
     ec4:	0006a500 	andeq	sl, r6, r0, lsl #10
     ec8:	756e1400 	strbvc	r1, [lr, #-1024]!	; 0xfffffc00
     ecc:	9101006d 	tstls	r1, sp, rrx
     ed0:	0007320d 	andeq	r3, r7, sp, lsl #4
     ed4:	d8910300 	ldmle	r1, {r8, r9}
     ed8:	04e3157d 	strbteq	r1, [r3], #1405	; 0x57d
     edc:	91010000 	mrsls	r0, (UNDEF: 1)
     ee0:	00073217 	andeq	r3, r7, r7, lsl r2
     ee4:	d8910300 	ldmle	r1, {r8, r9}
     ee8:	0432117e 	ldrteq	r1, [r2], #-382	; 0xfffffe82
     eec:	92010000 	andls	r0, r1, #0, 0
     ef0:	00002c0d 	andeq	r2, r0, sp, lsl #24
     ef4:	00074200 	andeq	r4, r7, r0, lsl #4
     ef8:	00073c00 	andeq	r3, r7, r0, lsl #24
     efc:	89e81600 	stmibhi	r8!, {r9, sl, ip}^
     f00:	01a40000 			; <UNDEFINED> instruction: 0x01a40000
     f04:	05390000 	ldreq	r0, [r9, #-0]!
     f08:	74100000 	ldrvc	r0, [r0], #-0
     f0c:	9e010079 	mcrls	0, 0, r0, cr1, cr9, {3}
     f10:	0000b31d 	andeq	fp, r0, sp, lsl r3
     f14:	00077600 	andeq	r7, r7, r0, lsl #12
     f18:	00076c00 	andeq	r6, r7, r0, lsl #24
     f1c:	78781700 	ldmdavc	r8!, {r8, r9, sl, ip}^
     f20:	1aa20100 	bne	fe881328 <__bss_end__+0xfe877a08>
     f24:	00000070 	andeq	r0, r0, r0, ror r0
     f28:	0089f818 	addeq	pc, r9, r8, lsl r8	; <UNPREDICTABLE>
     f2c:	000a9200 	andeq	r9, sl, r0, lsl #4
     f30:	0002d500 	andeq	sp, r2, r0, lsl #10
     f34:	50011900 	andpl	r1, r1, r0, lsl #18
     f38:	19007602 	stmdbne	r0, {r1, r9, sl, ip, sp, lr}
     f3c:	03055101 	movweq	r5, #20737	; 0x5101
     f40:	000093e4 	andeq	r9, r0, r4, ror #7
     f44:	01520119 	cmpeq	r2, r9, lsl r1
     f48:	10180033 	andsne	r0, r8, r3, lsr r0
     f4c:	9200008a 	andls	r0, r0, #138, 0	; 0x8a
     f50:	f700000a 			; <UNDEFINED> instruction: 0xf700000a
     f54:	19000002 	stmdbne	r0, {r1}
     f58:	76025001 	strvc	r5, [r2], -r1
     f5c:	51011900 	tstpl	r1, r0, lsl #18
     f60:	93e80305 	mvnls	r0, #335544320	; 0x14000000
     f64:	01190000 	tsteq	r9, r0
     f68:	00330152 	eorseq	r0, r3, r2, asr r1
     f6c:	008a4418 	addeq	r4, sl, r8, lsl r4
     f70:	000a9e00 	andeq	r9, sl, r0, lsl #28
     f74:	00031400 	andeq	r1, r3, r0, lsl #8
     f78:	50011900 	andpl	r1, r1, r0, lsl #18
     f7c:	93ec0305 	mvnls	r0, #335544320	; 0x14000000
     f80:	01190000 	tsteq	r9, r0
     f84:	00770251 	rsbseq	r0, r7, r1, asr r2
     f88:	8a501800 	bhi	1406f90 <__bss_end__+0x13fd670>
     f8c:	0a9e0000 	beq	fe780f94 <__bss_end__+0xfe777674>
     f90:	03310000 	teqeq	r1, #0, 0
     f94:	01190000 	tsteq	r9, r0
     f98:	f4030550 	vst3.16	{d0,d2,d4}, [r3 :64], r0
     f9c:	19000093 	stmdbne	r0, {r0, r1, r4, r7}
     fa0:	7a025101 	bvc	953ac <__bss_end__+0x8ba8c>
     fa4:	60180000 	andsvs	r0, r8, r0
     fa8:	9200008a 	andls	r0, r0, #138, 0	; 0x8a
     fac:	5300000a 	movwpl	r0, #10
     fb0:	19000003 	stmdbne	r0, {r0, r1}
     fb4:	76025001 	strvc	r5, [r2], -r1
     fb8:	51011900 	tstpl	r1, r0, lsl #18
     fbc:	93e40305 	mvnls	r0, #335544320	; 0x14000000
     fc0:	01190000 	tsteq	r9, r0
     fc4:	00330152 	eorseq	r0, r3, r2, asr r1
     fc8:	008a7818 	addeq	r7, sl, r8, lsl r8
     fcc:	000a9200 	andeq	r9, sl, r0, lsl #4
     fd0:	00037500 	andeq	r7, r3, r0, lsl #10
     fd4:	50011900 	andpl	r1, r1, r0, lsl #18
     fd8:	19007602 	stmdbne	r0, {r1, r9, sl, ip, sp, lr}
     fdc:	03055101 	movweq	r5, #20737	; 0x5101
     fe0:	000093e8 	andeq	r9, r0, r8, ror #7
     fe4:	01520119 	cmpeq	r2, r9, lsl r1
     fe8:	a0180033 	andsge	r0, r8, r3, lsr r0
     fec:	4200008a 	andmi	r0, r0, #138, 0	; 0x8a
     ff0:	a9000007 	stmdbge	r0, {r0, r1, r2}
     ff4:	19000003 	stmdbne	r0, {r0, r1}
     ff8:	3a015001 	bcc	55004 <__bss_end__+0x4b6e4>
     ffc:	03510119 	cmpeq	r1, #1073741830	; 0x40000006
    1000:	197dd091 	ldmdbne	sp!, {r0, r4, r7, ip, lr, pc}^
    1004:	08025201 	stmdaeq	r2, {r0, r9, ip, lr}
    1008:	53011980 	movwpl	r1, #6528	; 0x1980
    100c:	19007702 	stmdbne	r0, {r1, r8, r9, sl, ip, sp, lr}
    1010:	02007d02 	andeq	r7, r0, #128	; 0x80
    1014:	02190075 	andseq	r0, r9, #117, 0	; 0x75
    1018:	7602047d 			; <UNDEFINED> instruction: 0x7602047d
    101c:	c0180000 	andsgt	r0, r8, r0
    1020:	4200008a 	andmi	r0, r0, #138, 0	; 0x8a
    1024:	dd000007 	stcle	0, cr0, [r0, #-28]	; 0xffffffe4
    1028:	19000003 	stmdbne	r0, {r0, r1}
    102c:	3a015001 	bcc	55038 <__bss_end__+0x4b718>
    1030:	03510119 	cmpeq	r1, #1073741830	; 0x40000006
    1034:	197ed091 	ldmdbne	lr!, {r0, r4, r7, ip, lr, pc}^
    1038:	08025201 	stmdaeq	r2, {r0, r9, ip, lr}
    103c:	53011980 	movwpl	r1, #6528	; 0x1980
    1040:	19007a02 	stmdbne	r0, {r1, r9, fp, ip, sp, lr}
    1044:	02007d02 	andeq	r7, r0, #128	; 0x80
    1048:	02190075 	andseq	r0, r9, #117, 0	; 0x75
    104c:	7602047d 			; <UNDEFINED> instruction: 0x7602047d
    1050:	cc180000 	ldcgt	0, cr0, [r8], {-0}
    1054:	aa00008a 	bge	1284 <__code_start__-0x6d7c>
    1058:	fb00000a 	blx	108a <__code_start__-0x6f76>
    105c:	19000003 	stmdbne	r0, {r0, r1}
    1060:	91035001 	tstls	r3, r1
    1064:	01197dd0 			; <UNDEFINED> instruction: 0x01197dd0
    1068:	a8030551 	stmdage	r3, {r0, r4, r6, r8, sl}
    106c:	00000093 	muleq	r0, r3, r0
    1070:	008ae018 	addeq	lr, sl, r8, lsl r0
    1074:	000ab600 	andeq	fp, sl, r0, lsl #12
    1078:	00041700 	andeq	r1, r4, r0, lsl #14
    107c:	50011900 	andpl	r1, r1, r0, lsl #18
    1080:	7dd09103 	ldfvcp	f1, [r0, #12]
    1084:	03510119 	cmpeq	r1, #1073741830	; 0x40000006
    1088:	007ed091 			; <UNDEFINED> instruction: 0x007ed091
    108c:	008b0418 	addeq	r0, fp, r8, lsl r4
    1090:	000a9e00 	andeq	r9, sl, r0, lsl #28
    1094:	00045000 	andeq	r5, r4, r0
    1098:	50011900 	andpl	r1, r1, r0, lsl #18
    109c:	93140305 	tstls	r4, #335544320	; 0x14000000
    10a0:	01190000 	tsteq	r9, r0
    10a4:	94030551 	strls	r0, [r3], #-1361	; 0xfffffaaf
    10a8:	19000093 	stmdbne	r0, {r0, r1, r4, r7}
    10ac:	03055201 	movweq	r5, #20993	; 0x5201
    10b0:	000094f0 	strdeq	r9, [r0], -r0
    10b4:	02530119 	subseq	r0, r3, #1073741830	; 0x40000006
    10b8:	02199f08 	andseq	r9, r9, #8, 30
    10bc:	0305007d 	movweq	r0, #20605	; 0x507d
    10c0:	000093fc 	strdeq	r9, [r0], -ip
    10c4:	8b081a00 	blhi	2078cc <__bss_end__+0x1fdfac>
    10c8:	0ac20000 	beq	ff0810d0 <__bss_end__+0xff0777b0>
    10cc:	28180000 	ldmdacs	r8, {}	; <UNPREDICTABLE>
    10d0:	4200008b 	andmi	r0, r0, #139, 0	; 0x8b
    10d4:	8d000007 	stchi	0, cr0, [r0, #-28]	; 0xffffffe4
    10d8:	19000004 	stmdbne	r0, {r2}
    10dc:	40015001 	andmi	r5, r1, r1
    10e0:	03510119 	cmpeq	r1, #1073741830	; 0x40000006
    10e4:	197dd091 	ldmdbne	sp!, {r0, r4, r7, ip, lr, pc}^
    10e8:	08025201 	stmdaeq	r2, {r0, r9, ip, lr}
    10ec:	53011980 	movwpl	r1, #6528	; 0x1980
    10f0:	19007702 	stmdbne	r0, {r1, r8, r9, sl, ip, sp, lr}
    10f4:	02007d02 	andeq	r7, r0, #128	; 0x80
    10f8:	02190075 	andseq	r0, r9, #117, 0	; 0x75
    10fc:	7602047d 			; <UNDEFINED> instruction: 0x7602047d
    1100:	48180000 	ldmdami	r8, {}	; <UNPREDICTABLE>
    1104:	4200008b 	andmi	r0, r0, #139, 0	; 0x8b
    1108:	c1000007 	tstgt	r0, r7
    110c:	19000004 	stmdbne	r0, {r2}
    1110:	40015001 	andmi	r5, r1, r1
    1114:	03510119 	cmpeq	r1, #1073741830	; 0x40000006
    1118:	197ed091 	ldmdbne	lr!, {r0, r4, r7, ip, lr, pc}^
    111c:	08025201 	stmdaeq	r2, {r0, r9, ip, lr}
    1120:	53011980 	movwpl	r1, #6528	; 0x1980
    1124:	19007a02 	stmdbne	r0, {r1, r9, fp, ip, sp, lr}
    1128:	02007d02 	andeq	r7, r0, #128	; 0x80
    112c:	02190075 	andseq	r0, r9, #117, 0	; 0x75
    1130:	7602047d 			; <UNDEFINED> instruction: 0x7602047d
    1134:	54180000 	ldrpl	r0, [r8], #-0
    1138:	ce00008b 	cdpgt	0, 0, cr0, cr0, cr11, {4}
    113c:	dd00000a 	stcle	0, cr0, [r0, #-40]	; 0xffffffd8
    1140:	19000004 	stmdbne	r0, {r2}
    1144:	91035001 	tstls	r3, r1
    1148:	01197dd0 			; <UNDEFINED> instruction: 0x01197dd0
    114c:	d2910351 	addsle	r0, r1, #1140850689	; 0x44000001
    1150:	6818007e 	ldmdavs	r8, {r1, r2, r3, r4, r5, r6}
    1154:	ce00008b 	cdpgt	0, 0, cr0, cr0, cr11, {4}
    1158:	f900000a 			; <UNDEFINED> instruction: 0xf900000a
    115c:	19000004 	stmdbne	r0, {r2}
    1160:	91035001 	tstls	r3, r1
    1164:	01197dd0 			; <UNDEFINED> instruction: 0x01197dd0
    1168:	d0910351 	addsle	r0, r1, r1, asr r3
    116c:	8818007e 	ldmdahi	r8, {r1, r2, r3, r4, r5, r6}
    1170:	9e00008b 	cdpls	0, 0, cr0, cr0, cr11, {4}
    1174:	2f00000a 	svccs	0x0000000a
    1178:	19000005 	stmdbne	r0, {r0, r2}
    117c:	03055001 	movweq	r5, #20481	; 0x5001
    1180:	00009438 	andeq	r9, r0, r8, lsr r4
    1184:	05510119 	ldrbeq	r0, [r1, #-281]	; 0xfffffee7
    1188:	00939403 	addseq	r9, r3, r3, lsl #8
    118c:	52011900 	andpl	r1, r1, #0, 18
    1190:	94f00305 	ldrbtls	r0, [r0], #773	; 0x305
    1194:	01190000 	tsteq	r9, r0
    1198:	b6080253 			; <UNDEFINED> instruction: 0xb6080253
    119c:	007d0219 	rsbseq	r0, sp, r9, lsl r2
    11a0:	00007602 	andeq	r7, r0, r2, lsl #12
    11a4:	008b8c1a 	addeq	r8, fp, sl, lsl ip
    11a8:	000ac200 	andeq	ip, sl, r0, lsl #4
    11ac:	38180000 	ldmdacc	r8, {}	; <UNPREDICTABLE>
    11b0:	c0000089 	andgt	r0, r0, r9, lsl #1
    11b4:	4d000009 	stcmi	0, cr0, [r0, #-36]	; 0xffffffdc
    11b8:	19000005 	stmdbne	r0, {r0, r2}
    11bc:	77025001 	strvc	r5, [r2, -r1]
    11c0:	e4180000 	ldr	r0, [r8], #-0
    11c4:	9e000089 	cdpls	0, 0, cr0, cr0, cr9, {4}
    11c8:	8600000a 	strhi	r0, [r0], -sl
    11cc:	19000005 	stmdbne	r0, {r0, r2}
    11d0:	03055001 	movweq	r5, #20481	; 0x5001
    11d4:	00009314 	andeq	r9, r0, r4, lsl r3
    11d8:	05510119 	ldrbeq	r0, [r1, #-281]	; 0xfffffee7
    11dc:	00939403 	addseq	r9, r3, r3, lsl #8
    11e0:	52011900 	andpl	r1, r1, #0, 18
    11e4:	94f00305 	ldrbtls	r0, [r0], #773	; 0x305
    11e8:	01190000 	tsteq	r9, r0
    11ec:	98080253 	stmdals	r8, {r0, r1, r4, r6, r9}
    11f0:	007d0219 	rsbseq	r0, sp, r9, lsl r2
    11f4:	93d80305 	bicsls	r0, r8, #335544320	; 0x14000000
    11f8:	1a000000 	bne	1200 <__code_start__-0x6e00>
    11fc:	000089e8 	andeq	r8, r0, r8, ror #19
    1200:	00000ac2 	andeq	r0, r0, r2, asr #21
    1204:	008ba018 	addeq	sl, fp, r8, lsl r0
    1208:	000a9e00 	andeq	r9, sl, r0, lsl #28
    120c:	0005be00 	andeq	fp, r5, r0, lsl #28
    1210:	50011900 	andpl	r1, r1, r0, lsl #18
    1214:	94600305 	strbtls	r0, [r0], #-773	; 0xfffffcfb
    1218:	01190000 	tsteq	r9, r0
    121c:	94030551 	strls	r0, [r3], #-1361	; 0xfffffaaf
    1220:	19000093 	stmdbne	r0, {r0, r1, r4, r7}
    1224:	03055201 	movweq	r5, #20993	; 0x5201
    1228:	000094f0 	strdeq	r9, [r0], -r0
    122c:	02530119 	subseq	r0, r3, #1073741830	; 0x40000006
    1230:	1a00be08 	bne	30a58 <__bss_end__+0x27138>
    1234:	00008ba4 	andeq	r8, r0, r4, lsr #23
    1238:	00000ac2 	andeq	r0, r0, r2, asr #21
    123c:	008bd018 	addeq	sp, fp, r8, lsl r0
    1240:	00074200 	andeq	r4, r7, r0, lsl #4
    1244:	0005f400 	andeq	pc, r5, r0, lsl #8
    1248:	50011900 	andpl	r1, r1, r0, lsl #18
    124c:	01193a01 	tsteq	r9, r1, lsl #20
    1250:	d0910351 	addsle	r0, r1, r1, asr r3
    1254:	5201197d 	andpl	r1, r1, #2048000	; 0x1f4000
    1258:	19800802 	stmibne	r0, {r1, fp}
    125c:	02007d02 	andeq	r7, r0, #128	; 0x80
    1260:	02190075 	andseq	r0, r9, #117, 0	; 0x75
    1264:	3101047d 	tstcc	r1, sp, ror r4
    1268:	8c081800 	stchi	8, cr1, [r8], {-0}
    126c:	07420000 	strbeq	r0, [r2, -r0]
    1270:	06210000 	strteq	r0, [r1], -r0
    1274:	01190000 	tsteq	r9, r0
    1278:	193a0150 	ldmdbne	sl!, {r4, r6, r8}
    127c:	91035101 	tstls	r3, r1, lsl #2
    1280:	01197dd0 			; <UNDEFINED> instruction: 0x01197dd0
    1284:	80080252 	andhi	r0, r8, r2, asr r2
    1288:	007d0219 	rsbseq	r0, sp, r9, lsl r2
    128c:	19007502 	stmdbne	r0, {r1, r8, sl, ip, sp, lr}
    1290:	01047d02 	tsteq	r4, r2, lsl #26
    1294:	3c180030 	ldccc	0, cr0, [r8], {48}	; 0x30
    1298:	4200008c 	andmi	r0, r0, #140, 0	; 0x8c
    129c:	4e000007 	cdpmi	0, 0, cr0, cr0, cr7, {0}
    12a0:	19000006 	stmdbne	r0, {r1, r2}
    12a4:	40015001 	andmi	r5, r1, r1
    12a8:	03510119 	cmpeq	r1, #1073741830	; 0x40000006
    12ac:	197dd091 	ldmdbne	sp!, {r0, r4, r7, ip, lr, pc}^
    12b0:	08025201 	stmdaeq	r2, {r0, r9, ip, lr}
    12b4:	7d021980 	vstrvc.16	s2, [r2, #-256]	; 0xffffff00	; <UNPREDICTABLE>
    12b8:	00750200 	rsbseq	r0, r5, r0, lsl #4
    12bc:	047d0219 	ldrbteq	r0, [sp], #-537	; 0xfffffde7
    12c0:	18003001 	stmdane	r0, {r0, ip, sp}
    12c4:	00008c70 	andeq	r8, r0, r0, ror ip
    12c8:	00000742 	andeq	r0, r0, r2, asr #14
    12cc:	0000067b 	andeq	r0, r0, fp, ror r6
    12d0:	01500119 	cmpeq	r0, r9, lsl r1
    12d4:	51011932 	tstpl	r1, r2, lsr r9
    12d8:	7dd09103 	ldfvcp	f1, [r0, #12]
    12dc:	02520119 	subseq	r0, r2, #1073741830	; 0x40000006
    12e0:	02198008 	andseq	r8, r9, #8, 0
    12e4:	7502007d 	strvc	r0, [r2, #-125]	; 0xffffff83
    12e8:	7d021900 	vstrvc.16	s2, [r2, #-0]	; <UNPREDICTABLE>
    12ec:	00300104 	eorseq	r0, r0, r4, lsl #2
    12f0:	008cb818 	addeq	fp, ip, r8, lsl r8
    12f4:	00074200 	andeq	r4, r7, r0, lsl #4
    12f8:	0006a800 	andeq	sl, r6, r0, lsl #16
    12fc:	50011900 	andpl	r1, r1, r0, lsl #18
    1300:	01193801 	tsteq	r9, r1, lsl #16
    1304:	d0910351 	addsle	r0, r1, r1, asr r3
    1308:	5201197d 	andpl	r1, r1, #2048000	; 0x1f4000
    130c:	19800802 	stmibne	r0, {r1, fp}
    1310:	02007d02 	andeq	r7, r0, #128	; 0x80
    1314:	02190075 	andseq	r0, r9, #117, 0	; 0x75
    1318:	3001047d 	andcc	r0, r1, sp, ror r4
    131c:	8cd81800 	ldclhi	8, cr1, [r8], {0}
    1320:	0a9e0000 	beq	fe781328 <__bss_end__+0xfe777a08>
    1324:	06cb0000 	strbeq	r0, [fp], r0
    1328:	01190000 	tsteq	r9, r0
    132c:	88030550 	stmdahi	r3, {r4, r6, r8, sl}
    1330:	19000094 	stmdbne	r0, {r2, r4, r7}
    1334:	7a025101 	bvc	95740 <__bss_end__+0x8be20>
    1338:	52011900 	andpl	r1, r1, #0, 18
    133c:	00007a02 	andeq	r7, r0, r2, lsl #20
    1340:	008ce81b 	addeq	lr, ip, fp, lsl r8
    1344:	0006dd00 	andeq	sp, r6, r0, lsl #26
    1348:	50011900 	andpl	r1, r1, r0, lsl #18
    134c:	7dc89104 	stfvcp	f1, [r8, #16]
    1350:	fc180006 	ldc2	0, cr0, [r8], {6}
    1354:	9e00008c 	cdpls	0, 0, cr0, cr0, cr12, {4}
    1358:	0c00000a 	stceq	0, cr0, [r0], {10}
    135c:	19000007 	stmdbne	r0, {r0, r1, r2}
    1360:	03055001 	movweq	r5, #20481	; 0x5001
    1364:	000094b8 			; <UNDEFINED> instruction: 0x000094b8
    1368:	05510119 	ldrbeq	r0, [r1, #-281]	; 0xfffffee7
    136c:	00939403 	addseq	r9, r3, r3, lsl #8
    1370:	52011900 	andpl	r1, r1, #0, 18
    1374:	94f00305 	ldrbtls	r0, [r0], #773	; 0x305
    1378:	01190000 	tsteq	r9, r0
    137c:	e2080253 	and	r0, r8, #805306373	; 0x30000005
    1380:	8d001a00 	vstrhi	s2, [r0, #-0]
    1384:	0ac20000 	beq	ff08138c <__bss_end__+0xff077a6c>
    1388:	00000000 	andeq	r0, r0, r0
    138c:	00b90408 	adcseq	r0, r9, r8, lsl #8
    1390:	c01c0000 	andsgt	r0, ip, r0
    1394:	2d000000 	stccs	0, cr0, [r0, #-0]
    1398:	1d000007 	stcne	0, cr0, [r0, #-28]	; 0xffffffe4
    139c:	0000002c 	andeq	r0, r0, ip, lsr #32
    13a0:	1d090009 	stcne	0, cr0, [r9, #-36]	; 0xffffffdc
    13a4:	1c000007 	stcne	0, cr0, [r0], {7}
    13a8:	000000b9 	strheq	r0, [r0], -r9
    13ac:	00000742 	andeq	r0, r0, r2, asr #14
    13b0:	00002c1d 	andeq	r2, r0, sp, lsl ip
    13b4:	1e007f00 	cdpne	15, 0, cr7, cr0, cr0, {0}
    13b8:	000004a4 	andeq	r0, r0, r4, lsr #9
    13bc:	17014901 	strne	r4, [r1, -r1, lsl #18]
    13c0:	a0000007 	andge	r0, r0, r7
    13c4:	b4000086 	strlt	r0, [r0], #-134	; 0xffffff7a
    13c8:	01000001 	tsteq	r0, r1
    13cc:	0008ab9c 	muleq	r8, ip, fp
    13d0:	02321f00 	eorseq	r1, r2, #0, 30
    13d4:	49010000 	stmdbmi	r1, {}	; <UNPREDICTABLE>
    13d8:	00002c0f 	andeq	r2, r0, pc, lsl #24
    13dc:	0007bf00 	andeq	fp, r7, r0, lsl #30
    13e0:	0007b900 	andeq	fp, r7, r0, lsl #18
    13e4:	73640e00 	cmnvc	r4, #0, 28
    13e8:	49010074 	stmdbmi	r1, {r2, r4, r5, r6}
    13ec:	0007171b 	andeq	r1, r7, fp, lsl r7
    13f0:	0007fd00 	andeq	pc, r7, r0, lsl #26
    13f4:	0007ed00 	andeq	lr, r7, r0, lsl #26
    13f8:	006e0e00 	rsbeq	r0, lr, r0, lsl #28
    13fc:	25244901 	strcs	r4, [r4, #-2305]!	; 0xfffff6ff
    1400:	61000000 	mrsvs	r0, (UNDEF: 0)
    1404:	5d000008 	stcpl	0, cr0, [r0, #-32]	; 0xffffffe0
    1408:	0e000008 	cdpeq	0, 0, cr0, cr0, cr8, {0}
    140c:	006c6176 	rsbeq	r6, ip, r6, ror r1
    1410:	252b4901 	strcs	r4, [fp, #-2305]!	; 0xfffff6ff
    1414:	8b000000 	blhi	141c <__code_start__-0x6be4>
    1418:	7f000008 	svcvc	0x00000008
    141c:	1f000008 	svcne	0x00000008
    1420:	00000432 	andeq	r0, r0, r2, lsr r4
    1424:	25344901 	ldrcs	r4, [r4, #-2305]!	; 0xfffff6ff
    1428:	e1000000 	mrs	r0, (UNDEF: 0)
    142c:	db000008 	blle	1454 <__code_start__-0x6bac>
    1430:	0f000008 	svceq	0x00000008
    1434:	000004f0 	strdeq	r0, [r0], -r0	; <UNPREDICTABLE>
    1438:	253f4901 	ldrcs	r4, [pc, #-2305]!	; b3f <__code_start__-0x74c1>
    143c:	02000000 	andeq	r0, r0, #0, 0
    1440:	62140491 	andsvs	r0, r4, #-1862270976	; 0x91000000
    1444:	01006675 	tsteq	r0, r5, ror r6
    1448:	08ab074e 	stmiaeq	fp!, {r1, r2, r3, r6, r8, r9, sl}
    144c:	91030000 	mrsls	r0, (UNDEF: 3)
    1450:	70107fa8 	andsvc	r7, r0, r8, lsr #31
    1454:	114e0100 	mrsne	r0, (UNDEF: 94)
    1458:	00000717 	andeq	r0, r0, r7, lsl r7
    145c:	0000092b 	andeq	r0, r0, fp, lsr #18
    1460:	0000090b 	andeq	r0, r0, fp, lsl #18
    1464:	01007510 	tsteq	r0, r0, lsl r5
    1468:	002c0b4f 	eoreq	r0, ip, pc, asr #22
    146c:	0a110000 	beq	441474 <__bss_end__+0x437b54>
    1470:	09fd0000 	ldmibeq	sp!, {}^	; <UNPREDICTABLE>
    1474:	43120000 	tstmi	r2, #0, 0
    1478:	cb000000 	blgt	1480 <__code_start__-0x6b80>
    147c:	05000008 	streq	r0, [r0, #-8]
    1480:	0094d803 	addseq	sp, r4, r3, lsl #16
    1484:	870c1600 	strhi	r1, [ip, -r0, lsl #12]
    1488:	00780000 	rsbseq	r0, r8, r0
    148c:	08320000 	ldmdaeq	r2!, {}	; <UNPREDICTABLE>
    1490:	91110000 	tstls	r1, r0
    1494:	01000004 	tsteq	r0, r4
    1498:	002c0d54 	eoreq	r0, ip, r4, asr sp
    149c:	0a920000 	beq	fe4814a4 <__bss_end__+0xfe477b84>
    14a0:	0a8a0000 	beq	fe2814a8 <__bss_end__+0xfe277b88>
    14a4:	18000000 	stmdane	r0, {}	; <UNPREDICTABLE>
    14a8:	000087c4 	andeq	r8, r0, r4, asr #15
    14ac:	0000095d 	andeq	r0, r0, sp, asr r9
    14b0:	00000847 	andeq	r0, r0, r7, asr #16
    14b4:	03510119 	cmpeq	r1, #1073741830	; 0x40000006
    14b8:	007fa091 			; <UNDEFINED> instruction: 0x007fa091
    14bc:	0087d818 	addeq	sp, r7, r8, lsl r8
    14c0:	0008d000 	andeq	sp, r8, r0
    14c4:	00086800 	andeq	r6, r8, r0, lsl #16
    14c8:	50011900 	andpl	r1, r1, r0, lsl #18
    14cc:	19007502 	stmdbne	r0, {r1, r8, sl, ip, sp, lr}
    14d0:	74025101 	strvc	r5, [r2], #-257	; 0xfffffeff
    14d4:	53011900 	movwpl	r1, #6400	; 0x1900
    14d8:	7fa09103 	svcvc	0x00a09103
    14dc:	88301800 	ldmdahi	r0!, {fp, ip}
    14e0:	0a9e0000 	beq	fe7814e8 <__bss_end__+0xfe777bc8>
    14e4:	08a10000 	stmiaeq	r1!, {}	; <UNPREDICTABLE>
    14e8:	01190000 	tsteq	r9, r0
    14ec:	14030550 	strne	r0, [r3], #-1360	; 0xfffffab0
    14f0:	19000093 	stmdbne	r0, {r0, r1, r4, r7}
    14f4:	03055101 	movweq	r5, #20737	; 0x5101
    14f8:	00009394 	muleq	r0, r4, r3
    14fc:	05520119 	ldrbeq	r0, [r2, #-281]	; 0xfffffee7
    1500:	0094d803 	addseq	sp, r4, r3, lsl #16
    1504:	53011900 	movwpl	r1, #6400	; 0x1900
    1508:	19790802 	ldmdbne	r9!, {r1, fp}^
    150c:	05007d02 	streq	r7, [r0, #-3330]	; 0xfffff2fe
    1510:	0093a803 	addseq	sl, r3, r3, lsl #16
    1514:	341a0000 	ldrcc	r0, [sl], #-0
    1518:	c2000088 	andgt	r0, r0, #136, 0	; 0x88
    151c:	0000000a 	andeq	r0, r0, sl
    1520:	0000b91c 	andeq	fp, r0, ip, lsl r9
    1524:	0008bb00 	andeq	fp, r8, r0, lsl #22
    1528:	002c1d00 	eoreq	r1, ip, r0, lsl #26
    152c:	003f0000 	eorseq	r0, pc, r0
    1530:	0000c01c 	andeq	ip, r0, ip, lsl r0
    1534:	0008cb00 	andeq	ip, r8, r0, lsl #22
    1538:	002c1d00 	eoreq	r1, ip, r0, lsl #26
    153c:	00040000 	andeq	r0, r4, r0
    1540:	0008bb09 	andeq	fp, r8, r9, lsl #22
    1544:	04b11e00 	ldrteq	r1, [r1], #3584	; 0xe00
    1548:	38010000 	stmdacc	r1, {}	; <UNPREDICTABLE>
    154c:	0007170e 	andeq	r1, r7, lr, lsl #14
    1550:	00866800 	addeq	r6, r6, r0, lsl #16
    1554:	00003800 	andeq	r3, r0, r0, lsl #16
    1558:	5d9c0100 	ldfpls	f0, [ip]
    155c:	0e000009 	cdpeq	0, 0, cr0, cr0, cr9, {0}
    1560:	00747364 	rsbseq	r7, r4, r4, ror #6
    1564:	171c3801 	ldrne	r3, [ip, -r1, lsl #16]
    1568:	d3000007 	movwle	r0, #7
    156c:	c900000a 	stmdbgt	r0, {r1, r3}
    1570:	0e00000a 	cdpeq	0, 0, cr0, cr0, cr10, {0}
    1574:	3801006e 	stmdacc	r1, {r1, r2, r3, r5, r6}
    1578:	00002525 	andeq	r2, r0, r5, lsr #10
    157c:	000b1a00 	andeq	r1, fp, r0, lsl #20
    1580:	000b1600 	andeq	r1, fp, r0, lsl #12
    1584:	00700e00 	rsbseq	r0, r0, r0, lsl #28
    1588:	172e3801 	strne	r3, [lr, -r1, lsl #16]!
    158c:	43000007 	movwmi	r0, #7
    1590:	3b00000b 	blcc	15c4 <__code_start__-0x6a3c>
    1594:	1f00000b 	svcne	0x0000000b
    1598:	00000203 	andeq	r0, r0, r3, lsl #4
    159c:	17373801 	ldrne	r3, [r7, -r1, lsl #16]!
    15a0:	7d000007 	stcvc	0, cr0, [r0, #-28]	; 0xffffffe4
    15a4:	7900000b 	stmdbvc	r0, {r0, r1, r3}
    15a8:	1000000b 	andne	r0, r0, fp
    15ac:	006e656c 	rsbeq	r6, lr, ip, ror #10
    15b0:	25063a01 	strcs	r3, [r6, #-2561]	; 0xfffff5ff
    15b4:	a3000000 	movwge	r0, #0
    15b8:	9b00000b 	blls	15ec <__code_start__-0x6a14>
    15bc:	1000000b 	andne	r0, r0, fp
    15c0:	3e010073 	mcrcc	0, 0, r0, cr1, cr3, {3}
    15c4:	00071708 	andeq	r1, r7, r8, lsl #14
    15c8:	000bf100 	andeq	pc, fp, r0, lsl #2
    15cc:	000bef00 	andeq	lr, fp, r0, lsl #30
    15d0:	70200000 	eorvc	r0, r0, r0
    15d4:	01006461 	tsteq	r0, r1, ror #8
    15d8:	07170e2e 	ldreq	r0, [r7, -lr, lsr #28]
    15dc:	86440000 	strbhi	r0, [r4], -r0
    15e0:	00240000 	eoreq	r0, r4, r0
    15e4:	9c010000 	stcls	0, cr0, [r1], {-0}
    15e8:	000009c0 	andeq	r0, r0, r0, asr #19
    15ec:	0100700e 	tsteq	r0, lr
    15f0:	0717182e 	ldreq	r1, [r7, -lr, lsr #16]
    15f4:	0c0a0000 	stceq	0, cr0, [sl], {-0}
    15f8:	0c040000 	stceq	0, cr0, [r4], {-0}
    15fc:	321f0000 	andscc	r0, pc, #0, 0
    1600:	01000002 	tsteq	r0, r2
    1604:	0717222e 	ldreq	r2, [r7, -lr, lsr #4]
    1608:	0c390000 	ldceq	0, cr0, [r9], #-0
    160c:	0c350000 	ldceq	0, cr0, [r5], #-0
    1610:	320f0000 	andcc	r0, pc, #0, 0
    1614:	01000004 	tsteq	r0, r4
    1618:	00252c2e 	eoreq	r2, r5, lr, lsr #24
    161c:	52010000 	andpl	r0, r1, #0, 0
    1620:	6e656c10 	mcrvs	12, 3, r6, cr5, cr0, {0}
    1624:	062f0100 	strteq	r0, [pc], -r0, lsl #2
    1628:	00000025 	andeq	r0, r0, r5, lsr #32
    162c:	00000c5c 	andeq	r0, r0, ip, asr ip
    1630:	00000c5a 	andeq	r0, r0, sl, asr ip
    1634:	03f11e00 	mvnseq	r1, #0, 28
    1638:	27010000 	strcs	r0, [r1, -r0]
    163c:	0000250c 	andeq	r2, r0, ip, lsl #10
    1640:	00863000 	addeq	r3, r6, r0
    1644:	00001400 	andeq	r1, r0, r0, lsl #8
    1648:	ed9c0100 	ldfs	f0, [ip]
    164c:	0e000009 	cdpeq	0, 0, cr0, cr0, cr9, {0}
    1650:	27010063 	strcs	r0, [r1, -r3, rrx]
    1654:	00002518 	andeq	r2, r0, r8, lsl r5
    1658:	000c7500 	andeq	r7, ip, r0, lsl #10
    165c:	000c6f00 	andeq	r6, ip, r0, lsl #30
    1660:	71210000 			; <UNDEFINED> instruction: 0x71210000
    1664:	01000004 	tsteq	r0, r4
    1668:	8854061f 	ldmdahi	r4, {r0, r1, r2, r3, r4, r9, sl}^
    166c:	00640000 	rsbeq	r0, r4, r0
    1670:	9c010000 	stcls	0, cr0, [r1], {-0}
    1674:	00000a7d 	andeq	r0, r0, sp, ror sl
    1678:	0004451f 	andeq	r4, r4, pc, lsl r5
    167c:	1b1f0100 	blne	7c1a84 <__bss_end__+0x7b8164>
    1680:	0000009e 	muleq	r0, lr, r0
    1684:	00000ca7 	andeq	r0, r0, r7, lsr #25
    1688:	00000ca3 	andeq	r0, r0, r3, lsr #25
    168c:	0004a91f 	andeq	sl, r4, pc, lsl r9
    1690:	301f0100 	andscc	r0, pc, r0, lsl #2
    1694:	000000d1 	ldrdeq	r0, [r0], -r1
    1698:	00000ccc 	andeq	r0, r0, ip, asr #25
    169c:	00000cc8 	andeq	r0, r0, r8, asr #25
    16a0:	00004312 	andeq	r4, r0, r2, lsl r3
    16a4:	000a8d00 	andeq	r8, sl, r0, lsl #26
    16a8:	e0030500 	and	r0, r3, r0, lsl #10
    16ac:	18000094 	stmdane	r0, {r2, r4, r7}
    16b0:	0000889c 	muleq	r0, ip, r8
    16b4:	00000a9e 	muleq	r0, lr, sl
    16b8:	00000a73 	andeq	r0, r0, r3, ror sl
    16bc:	05500119 	ldrbeq	r0, [r0, #-281]	; 0xfffffee7
    16c0:	00931403 	addseq	r1, r3, r3, lsl #8
    16c4:	51011900 	tstpl	r1, r0, lsl #18
    16c8:	93940305 	orrsls	r0, r4, #335544320	; 0x14000000
    16cc:	01190000 	tsteq	r9, r0
    16d0:	e0030552 	and	r0, r3, r2, asr r5
    16d4:	19000094 	stmdbne	r0, {r2, r4, r7}
    16d8:	08025301 	stmdaeq	r2, {r0, r8, r9, ip, lr}
    16dc:	7d021920 	vstrvc.16	s2, [r2, #-64]	; 0xffffffc0	; <UNPREDICTABLE>
    16e0:	d0030500 	andle	r0, r3, r0, lsl #10
    16e4:	00000093 	muleq	r0, r3, r0
    16e8:	0088a01a 	addeq	sl, r8, sl, lsl r0
    16ec:	000ac200 	andeq	ip, sl, r0, lsl #4
    16f0:	c01c0000 	andsgt	r0, ip, r0
    16f4:	8d000000 	stchi	0, cr0, [r0, #-0]
    16f8:	1d00000a 	stcne	0, cr0, [r0, #-40]	; 0xffffffd8
    16fc:	0000002c 	andeq	r0, r0, ip, lsr #32
    1700:	7d09000e 	stcvc	0, cr0, [r9, #-56]	; 0xffffffc8
    1704:	2200000a 	andcs	r0, r0, #10, 0
    1708:	000004e8 	andeq	r0, r0, r8, ror #9
    170c:	000004e8 	andeq	r0, r0, r8, ror #9
    1710:	2205f003 	andcs	pc, r5, #3, 0
    1714:	00000367 	andeq	r0, r0, r7, ror #6
    1718:	00000367 	andeq	r0, r0, r7, ror #6
    171c:	22062803 	andcs	r2, r6, #196608	; 0x30000
    1720:	000004c0 	andeq	r0, r0, r0, asr #9
    1724:	000004c0 	andeq	r0, r0, r0, asr #9
    1728:	2205ef03 	andcs	lr, r5, #3, 30
    172c:	0000048a 	andeq	r0, r0, sl, lsl #9
    1730:	0000048a 	andeq	r0, r0, sl, lsl #9
    1734:	2207f203 	andcs	pc, r7, #805306368	; 0x30000000
    1738:	00000016 	andeq	r0, r0, r6, lsl r0
    173c:	00000016 	andeq	r0, r0, r6, lsl r0
    1740:	22066e03 	andcs	r6, r6, #3, 28	; 0x30
    1744:	000004b9 			; <UNDEFINED> instruction: 0x000004b9
    1748:	000004b9 			; <UNDEFINED> instruction: 0x000004b9
    174c:	0007f303 	andeq	pc, r7, r3, lsl #6
    1750:	0000012f 	andeq	r0, r0, pc, lsr #2
    1754:	08b00004 	ldmeq	r0!, {r2}
    1758:	01040000 	mrseq	r0, (UNDEF: 4)
    175c:	0000025c 	andeq	r0, r0, ip, asr r2
    1760:	00050d0c 	andeq	r0, r5, ip, lsl #26
    1764:	00032b00 	andeq	r2, r3, r0, lsl #22
    1768:	008d7000 	addeq	r7, sp, r0
    176c:	00002c00 	andeq	r2, r0, r0, lsl #24
    1770:	000f4300 	andeq	r4, pc, r0, lsl #6
    1774:	05040200 	streq	r0, [r4, #-512]	; 0xfffffe00
    1778:	00746e69 	rsbseq	r6, r4, r9, ror #28
    177c:	ae070403 	cdpge	4, 0, cr0, cr7, cr3, {0}
    1780:	03000000 	movweq	r0, #0
    1784:	000a0601 	andeq	r0, sl, r1, lsl #12
    1788:	02030000 	andeq	r0, r3, #0, 0
    178c:	0000fd05 	andeq	pc, r0, r5, lsl #26
    1790:	05040300 	streq	r0, [r4, #-768]	; 0xfffffd00
    1794:	000000e8 	andeq	r0, r0, r8, ror #1
    1798:	e3050803 	movw	r0, #22531	; 0x5803
    179c:	03000000 	movweq	r0, #0
    17a0:	00080801 	andeq	r0, r8, r1, lsl #16
    17a4:	02030000 	andeq	r0, r3, #0, 0
    17a8:	00002307 	andeq	r2, r0, r7, lsl #6
    17ac:	07040300 	streq	r0, [r4, -r0, lsl #6]
    17b0:	000000a9 	andeq	r0, r0, r9, lsr #1
    17b4:	a4070803 	strge	r0, [r7], #-2051	; 0xfffff7fd
    17b8:	04000000 	streq	r0, [r0], #-0
    17bc:	00000025 	andeq	r0, r0, r5, lsr #32
    17c0:	0000007a 	andeq	r0, r0, sl, ror r0
    17c4:	00002505 	andeq	r2, r0, r5, lsl #10
    17c8:	f1060000 	cps	#0
    17cc:	02000000 	andeq	r0, r0, #0, 0
    17d0:	00860e1c 	addeq	r0, r6, ip, lsl lr
    17d4:	04070000 	streq	r0, [r7], #-0
    17d8:	0000006b 	andeq	r0, r0, fp, rrx
    17dc:	00002504 	andeq	r2, r0, r4, lsl #10
    17e0:	00009b00 	andeq	r9, r0, r0, lsl #22
    17e4:	009b0500 	addseq	r0, fp, r0, lsl #10
    17e8:	07000000 	streq	r0, [r0, -r0]
    17ec:	0000a804 	andeq	sl, r0, r4, lsl #16
    17f0:	08010300 	stmdaeq	r1, {r8, r9}
    17f4:	00000011 	andeq	r0, r0, r1, lsl r0
    17f8:	0000a108 	andeq	sl, r0, r8, lsl #2
    17fc:	03de0600 	bicseq	r0, lr, #0, 12
    1800:	21020000 	mrscs	r0, (UNDEF: 2)
    1804:	0000b90e 	andeq	fp, r0, lr, lsl #18
    1808:	8c040700 	stchi	7, cr0, [r4], {-0}
    180c:	09000000 	stmdbeq	r0, {}	; <UNPREDICTABLE>
    1810:	00000016 	andeq	r0, r0, r6, lsl r0
    1814:	70060401 	andvc	r0, r6, r1, lsl #8
    1818:	2c00008d 	stccs	0, cr0, [r0], {141}	; 0x8d
    181c:	01000000 	mrseq	r0, (UNDEF: 0)
    1820:	00010e9c 	muleq	r1, ip, lr
    1824:	8d840a00 	vstrhi	s0, [r4]
    1828:	00e80000 	rsceq	r0, r8, r0
    182c:	010b0000 	mrseq	r0, (UNDEF: 11)
    1830:	fc030550 	stc2	5, cr0, [r3], {80}	; 0x50
    1834:	00000094 	muleq	r0, r4, r0
    1838:	008d880c 	addeq	r8, sp, ip, lsl #16
    183c:	00010e00 	andeq	r0, r1, r0, lsl #28
    1840:	8d900d00 	ldchi	13, cr0, [r0]
    1844:	011a0000 	tsteq	sl, r0
    1848:	01040000 	mrseq	r0, (UNDEF: 4)
    184c:	010b0000 	mrseq	r0, (UNDEF: 11)
    1850:	003a0150 	eorseq	r0, sl, r0, asr r1
    1854:	008d940c 	addeq	r9, sp, ip, lsl #8
    1858:	00012600 	andeq	r2, r1, r0, lsl #12
    185c:	280e0000 	stmdacs	lr, {}	; <UNPREDICTABLE>
    1860:	28000005 	stmdacs	r0, {r0, r2}
    1864:	02000005 	andeq	r0, r0, #5, 0
    1868:	040e064d 	streq	r0, [lr], #-1613	; 0xfffff9b3
    186c:	04000005 	streq	r0, [r0], #-5
    1870:	02000005 	andeq	r0, r0, #5, 0
    1874:	f90e0658 			; <UNDEFINED> instruction: 0xf90e0658
    1878:	f9000004 			; <UNDEFINED> instruction: 0xf9000004
    187c:	02000004 	andeq	r0, r0, #4, 0
    1880:	8900066b 	stmdbhi	r0, {r0, r1, r3, r5, r6, r9, sl}
    1884:	04000001 	streq	r0, [r0], #-1
    1888:	00097000 	andeq	r7, r9, r0
    188c:	5c010400 	cfstrspl	mvf0, [r1], {-0}
    1890:	0c000002 	stceq	0, cr0, [r0], {2}
    1894:	0000055e 	andeq	r0, r0, lr, asr r5
    1898:	0000032b 	andeq	r0, r0, fp, lsr #6
    189c:	00008d9c 	muleq	r0, ip, sp
    18a0:	0000003c 	andeq	r0, r0, ip, lsr r0
    18a4:	00000fde 	ldrdeq	r0, [r0], -lr
    18a8:	69050402 	stmdbvs	r5, {r1, sl}
    18ac:	0300746e 	movweq	r7, #1134	; 0x46e
    18b0:	00ae0704 	adceq	r0, lr, r4, lsl #14
    18b4:	01030000 	mrseq	r0, (UNDEF: 3)
    18b8:	00000a06 	andeq	r0, r0, r6, lsl #20
    18bc:	05020300 	streq	r0, [r2, #-768]	; 0xfffffd00
    18c0:	000000fd 	strdeq	r0, [r0], -sp
    18c4:	e8050403 	stmda	r5, {r0, r1, sl}
    18c8:	03000000 	movweq	r0, #0
    18cc:	00e30508 	rsceq	r0, r3, r8, lsl #10
    18d0:	01030000 	mrseq	r0, (UNDEF: 3)
    18d4:	00000808 	andeq	r0, r0, r8, lsl #16
    18d8:	07020300 	streq	r0, [r2, -r0, lsl #6]
    18dc:	00000023 	andeq	r0, r0, r3, lsr #32
    18e0:	a9070403 	stmdbge	r7, {r0, r1, sl}
    18e4:	03000000 	movweq	r0, #0
    18e8:	00a40708 	adceq	r0, r4, r8, lsl #14
    18ec:	25040000 	strcs	r0, [r4, #-0]
    18f0:	7a000000 	bvc	18f8 <__code_start__-0x6708>
    18f4:	05000000 	streq	r0, [r0, #-0]
    18f8:	00000025 	andeq	r0, r0, r5, lsr #32
    18fc:	00f10600 	rscseq	r0, r1, r0, lsl #12
    1900:	1c020000 	stcne	0, cr0, [r2], {-0}
    1904:	0000860e 	andeq	r8, r0, lr, lsl #12
    1908:	6b040700 	blvs	103510 <__bss_end__+0xf9bf0>
    190c:	04000000 	streq	r0, [r0], #-0
    1910:	00000025 	andeq	r0, r0, r5, lsr #32
    1914:	0000009b 	muleq	r0, fp, r0
    1918:	00009b05 	andeq	r9, r0, r5, lsl #22
    191c:	04070000 	streq	r0, [r7], #-0
    1920:	000000a8 	andeq	r0, r0, r8, lsr #1
    1924:	11080103 	tstne	r8, r3, lsl #2
    1928:	08000000 	stmdaeq	r0, {}	; <UNPREDICTABLE>
    192c:	000000a1 	andeq	r0, r0, r1, lsr #1
    1930:	0003de06 	andeq	sp, r3, r6, lsl #28
    1934:	0e210200 	cdpeq	2, 2, cr0, cr1, cr0, {0}
    1938:	000000b9 	strheq	r0, [r0], -r9
    193c:	008c0407 	addeq	r0, ip, r7, lsl #8
    1940:	36090000 	strcc	r0, [r9], -r0
    1944:	01000005 	tsteq	r0, r5
    1948:	8d9c0604 	ldchi	6, cr0, [ip, #16]
    194c:	003c0000 	eorseq	r0, ip, r0
    1950:	9c010000 	stcls	0, cr0, [r1], {-0}
    1954:	00000154 	andeq	r0, r0, r4, asr r1
    1958:	00042406 	andeq	r2, r4, r6, lsl #8
    195c:	10050100 	andne	r0, r5, r0, lsl #2
    1960:	00000025 	andeq	r0, r0, r5, lsr #32
    1964:	00044d06 	andeq	r4, r4, r6, lsl #26
    1968:	1f050100 	svcne	0x00050100
    196c:	00000025 	andeq	r0, r0, r5, lsr #32
    1970:	0000000a 	andeq	r0, r0, sl
    1974:	07060100 	streq	r0, [r6, -r0, lsl #2]
    1978:	7373620b 	cmnvc	r3, #-1342177280	; 0xb0000000
    197c:	0a0a0100 	beq	281d84 <__bss_end__+0x278464>
    1980:	00000154 	andeq	r0, r0, r4, asr r1
    1984:	00000cf3 	strdeq	r0, [r0], -r3
    1988:	00000ced 	andeq	r0, r0, sp, ror #25
    198c:	00053e0c 	andeq	r3, r5, ip, lsl #28
    1990:	0a0b0100 	beq	2c1d98 <__bss_end__+0x2b8478>
    1994:	00000154 	andeq	r0, r0, r4, asr r1
    1998:	008dc00d 	addeq	ip, sp, sp
    199c:	00000800 	andeq	r0, r0, r0, lsl #16
    19a0:	00012f00 	andeq	r2, r1, r0, lsl #30
    19a4:	6e690e00 	cdpvs	14, 6, cr0, cr9, cr0, {0}
    19a8:	05140100 	ldreq	r0, [r4, #-256]	; 0xffffff00
    19ac:	0000002c 	andeq	r0, r0, ip, lsr #32
    19b0:	a40f0001 	strge	r0, [pc], #-1	; 19b8 <__code_start__-0x6648>
    19b4:	5a00008d 	bpl	1bf0 <__code_start__-0x6410>
    19b8:	0f000001 	svceq	0x00000001
    19bc:	00008dc0 	andeq	r8, r0, r0, asr #27
    19c0:	00000167 	andeq	r0, r0, r7, ror #2
    19c4:	008dcc0f 	addeq	ip, sp, pc, lsl #24
    19c8:	00017300 	andeq	r7, r1, r0, lsl #6
    19cc:	8dd00f00 	ldclhi	15, cr0, [r0]
    19d0:	01800000 	orreq	r0, r0, r0
    19d4:	07000000 	streq	r0, [r0, -r0]
    19d8:	00002504 	andeq	r2, r0, r4, lsl #10
    19dc:	05501000 	ldrbeq	r1, [r0, #-0]
    19e0:	05500000 	ldrbeq	r0, [r0, #-0]
    19e4:	36020000 	strcc	r0, [r2], -r0
    19e8:	46110601 	ldrmi	r0, [r1], -r1, lsl #12
    19ec:	46000005 	strmi	r0, [r0], -r5
    19f0:	02000005 	andeq	r0, r0, #5, 0
    19f4:	0010063b 	andseq	r0, r0, fp, lsr r6
    19f8:	00000000 	andeq	r0, r0, r0
    19fc:	02000000 	andeq	r0, r0, #0, 0
    1a00:	1106010a 	tstne	r6, sl, lsl #2
    1a04:	00000016 	andeq	r0, r0, r6, lsl r0
    1a08:	00000016 	andeq	r0, r0, r6, lsl r0
    1a0c:	00066e02 	andeq	r6, r6, r2, lsl #28
    1a10:	000000ce 	andeq	r0, r0, lr, asr #1
    1a14:	0a6c0004 	beq	1b01a2c <__bss_end__+0x1af810c>
    1a18:	01040000 	mrseq	r0, (UNDEF: 4)
    1a1c:	0000025c 	andeq	r0, r0, ip, asr r2
    1a20:	0005730c 	andeq	r7, r5, ip, lsl #6
    1a24:	00032b00 	andeq	r2, r3, r0, lsl #22
    1a28:	008dd800 	addeq	sp, sp, r0, lsl #16
    1a2c:	00000400 	andeq	r0, r0, r0, lsl #8
    1a30:	00109300 	andseq	r9, r0, r0, lsl #6
    1a34:	05040200 	streq	r0, [r4, #-512]	; 0xfffffe00
    1a38:	00746e69 	rsbseq	r6, r4, r9, ror #28
    1a3c:	ae070403 	cdpge	4, 0, cr0, cr7, cr3, {0}
    1a40:	03000000 	movweq	r0, #0
    1a44:	000a0601 	andeq	r0, sl, r1, lsl #12
    1a48:	02030000 	andeq	r0, r3, #0, 0
    1a4c:	0000fd05 	andeq	pc, r0, r5, lsl #26
    1a50:	05040300 	streq	r0, [r4, #-768]	; 0xfffffd00
    1a54:	000000e8 	andeq	r0, r0, r8, ror #1
    1a58:	e3050803 	movw	r0, #22531	; 0x5803
    1a5c:	03000000 	movweq	r0, #0
    1a60:	00080801 	andeq	r0, r8, r1, lsl #16
    1a64:	02030000 	andeq	r0, r3, #0, 0
    1a68:	00002307 	andeq	r2, r0, r7, lsl #6
    1a6c:	07040300 	streq	r0, [r4, -r0, lsl #6]
    1a70:	000000a9 	andeq	r0, r0, r9, lsr #1
    1a74:	a4070803 	strge	r0, [r7], #-2051	; 0xfffff7fd
    1a78:	04000000 	streq	r0, [r0], #-0
    1a7c:	00000025 	andeq	r0, r0, r5, lsr #32
    1a80:	0000007a 	andeq	r0, r0, sl, ror r0
    1a84:	00002505 	andeq	r2, r0, r5, lsl #10
    1a88:	f1060000 	cps	#0
    1a8c:	02000000 	andeq	r0, r0, #0, 0
    1a90:	00860e1c 	addeq	r0, r6, ip, lsl lr
    1a94:	04070000 	streq	r0, [r7], #-0
    1a98:	0000006b 	andeq	r0, r0, fp, rrx
    1a9c:	00002504 	andeq	r2, r0, r4, lsl #10
    1aa0:	00009b00 	andeq	r9, r0, r0, lsl #22
    1aa4:	009b0500 	addseq	r0, fp, r0, lsl #10
    1aa8:	07000000 	streq	r0, [r0, -r0]
    1aac:	0000a804 	andeq	sl, r0, r4, lsl #16
    1ab0:	08010300 	stmdaeq	r1, {r8, r9}
    1ab4:	00000011 	andeq	r0, r0, r1, lsl r0
    1ab8:	0000a108 	andeq	sl, r0, r8, lsl #2
    1abc:	03de0600 	bicseq	r0, lr, #0, 12
    1ac0:	21020000 	mrscs	r0, (UNDEF: 2)
    1ac4:	0000b90e 	andeq	fp, r0, lr, lsl #18
    1ac8:	8c040700 	stchi	7, cr0, [r4], {-0}
    1acc:	09000000 	stmdbeq	r0, {}	; <UNPREDICTABLE>
    1ad0:	00000550 	andeq	r0, r0, r0, asr r5
    1ad4:	d8060401 	stmdale	r6, {r0, sl}
    1ad8:	0400008d 	streq	r0, [r0], #-141	; 0xffffff73
    1adc:	01000000 	mrseq	r0, (UNDEF: 0)
    1ae0:	0236009c 	eorseq	r0, r6, #156, 0	; 0x9c
    1ae4:	00040000 	andeq	r0, r4, r0
    1ae8:	00000ae5 	andeq	r0, r0, r5, ror #21
    1aec:	025c0104 	subseq	r0, ip, #1
    1af0:	bb0c0000 	bllt	301af8 <__bss_end__+0x2f81d8>
    1af4:	2b000005 	blcs	1b10 <__code_start__-0x64f0>
    1af8:	48000003 	stmdami	r0, {r0, r1}
    1afc:	00000000 	andeq	r0, r0, r0
    1b00:	2c000000 	stccs	0, cr0, [r0], {-0}
    1b04:	02000011 	andeq	r0, r0, #17, 0
    1b08:	6e690504 	cdpvs	5, 6, cr0, cr9, cr4, {0}
    1b0c:	25030074 	strcs	r0, [r3, #-116]	; 0xffffff8c
    1b10:	04000000 	streq	r0, [r0], #-0
    1b14:	00ae0704 	adceq	r0, lr, r4, lsl #14
    1b18:	01040000 	mrseq	r0, (UNDEF: 4)
    1b1c:	00000a06 	andeq	r0, r0, r6, lsl #20
    1b20:	05020400 	streq	r0, [r2, #-1024]	; 0xfffffc00
    1b24:	000000fd 	strdeq	r0, [r0], -sp
    1b28:	e8050404 	stmda	r5, {r2, sl}
    1b2c:	04000000 	streq	r0, [r0], #-0
    1b30:	00e30508 	rsceq	r0, r3, r8, lsl #10
    1b34:	01040000 	mrseq	r0, (UNDEF: 4)
    1b38:	00000808 	andeq	r0, r0, r8, lsl #16
    1b3c:	07020400 	streq	r0, [r2, -r0, lsl #8]
    1b40:	00000023 	andeq	r0, r0, r3, lsr #32
    1b44:	a9070404 	stmdbge	r7, {r2, sl}
    1b48:	04000000 	streq	r0, [r0], #-0
    1b4c:	00a40708 	adceq	r0, r4, r8, lsl #14
    1b50:	25050000 	strcs	r0, [r5, #-0]
    1b54:	7f000000 	svcvc	0x00000000
    1b58:	06000000 	streq	r0, [r0], -r0
    1b5c:	00000025 	andeq	r0, r0, r5, lsr #32
    1b60:	00f10700 	rscseq	r0, r1, r0, lsl #14
    1b64:	1c020000 	stcne	0, cr0, [r2], {-0}
    1b68:	00008b0e 	andeq	r8, r0, lr, lsl #22
    1b6c:	70040800 	andvc	r0, r4, r0, lsl #16
    1b70:	05000000 	streq	r0, [r0, #-0]
    1b74:	00000025 	andeq	r0, r0, r5, lsr #32
    1b78:	000000a0 	andeq	r0, r0, r0, lsr #1
    1b7c:	0000a006 	andeq	sl, r0, r6
    1b80:	04080000 	streq	r0, [r8], #-0
    1b84:	000000ad 	andeq	r0, r0, sp, lsr #1
    1b88:	11080104 	tstne	r8, r4, lsl #2
    1b8c:	03000000 	movweq	r0, #0
    1b90:	000000a6 	andeq	r0, r0, r6, lsr #1
    1b94:	0003de07 	andeq	sp, r3, r7, lsl #28
    1b98:	0e210200 	cdpeq	2, 2, cr0, cr1, cr0, {0}
    1b9c:	000000be 	strheq	r0, [r0], -lr
    1ba0:	00910408 	addseq	r0, r1, r8, lsl #8
    1ba4:	df090000 	svcle	0x00090000
    1ba8:	01000005 	tsteq	r0, r5
    1bac:	0031110d 	eorseq	r1, r1, sp, lsl #2
    1bb0:	f90a0000 			; <UNDEFINED> instruction: 0xf90a0000
    1bb4:	01000004 	tsteq	r0, r4
    1bb8:	8e08061f 	mcrhi	6, 0, r0, cr8, cr15, {0}
    1bbc:	00540000 	subseq	r0, r4, r0
    1bc0:	9c010000 	stcls	0, cr0, [r1], {-0}
    1bc4:	000001ae 	andeq	r0, r0, lr, lsr #3
    1bc8:	0006030b 	andeq	r0, r6, fp, lsl #6
    1bcc:	0f2c0100 	svceq	0x002c0100
    1bd0:	0000002c 	andeq	r0, r0, ip, lsr #32
    1bd4:	00000d20 	andeq	r0, r0, r0, lsr #26
    1bd8:	00000d1e 	andeq	r0, r0, lr, lsl sp
    1bdc:	00059e0b 	andeq	r9, r5, fp, lsl #28
    1be0:	0f2d0100 	svceq	0x002d0100
    1be4:	0000002c 	andeq	r0, r0, ip, lsr #32
    1be8:	00000d3a 	andeq	r0, r0, sl, lsr sp
    1bec:	00000d38 	andeq	r0, r0, r8, lsr sp
    1bf0:	0005d00b 	andeq	sp, r5, fp
    1bf4:	0f2e0100 	svceq	0x002e0100
    1bf8:	0000002c 	andeq	r0, r0, ip, lsr #32
    1bfc:	00000d54 	andeq	r0, r0, r4, asr sp
    1c00:	00000d52 	andeq	r0, r0, r2, asr sp
    1c04:	0005ea0b 	andeq	lr, r5, fp, lsl #20
    1c08:	0f2f0100 	svceq	0x002f0100
    1c0c:	0000002c 	andeq	r0, r0, ip, lsr #32
    1c10:	00000d6d 	andeq	r0, r0, sp, ror #26
    1c14:	00000d6b 	andeq	r0, r0, fp, ror #26
    1c18:	008e100c 	addeq	r1, lr, ip
    1c1c:	0001d900 	andeq	sp, r1, r0, lsl #18
    1c20:	8e1c0c00 	cdphi	12, 1, cr0, cr12, cr0, {0}
    1c24:	02080000 	andeq	r0, r8, #0, 0
    1c28:	200c0000 	andcs	r0, ip, r0
    1c2c:	1500008e 	strne	r0, [r0, #-142]	; 0xffffff72
    1c30:	0d000002 	stceq	0, cr0, [r0, #-8]
    1c34:	00008e28 	andeq	r8, r0, r8, lsr #28
    1c38:	00000221 	andeq	r0, r0, r1, lsr #4
    1c3c:	00000164 	andeq	r0, r0, r4, ror #2
    1c40:	0150010e 	cmpeq	r0, lr, lsl #2
    1c44:	340d003a 	strcc	r0, [sp], #-58	; 0xffffffc6
    1c48:	2d00008e 	stccs	0, cr0, [r0, #-568]	; 0xfffffdc8
    1c4c:	84000002 	strhi	r0, [r0], #-2
    1c50:	0e000001 	cdpeq	0, 0, cr0, cr0, cr1, {0}
    1c54:	0c055001 	stceq	0, cr5, [r5], {1}
    1c58:	20100024 	andscs	r0, r0, r4, lsr #32
    1c5c:	0551010e 	ldrbeq	r0, [r1, #-270]	; 0xfffffef2
    1c60:	0000010c 	andeq	r0, r0, ip, lsl #2
    1c64:	400d005a 	andmi	r0, sp, sl, asr r0
    1c68:	2d00008e 	stccs	0, cr0, [r0, #-568]	; 0xfffffdc8
    1c6c:	a4000002 	strge	r0, [r0], #-2
    1c70:	0e000001 	cdpeq	0, 0, cr0, cr0, cr1, {0}
    1c74:	0c055001 	stceq	0, cr5, [r5], {1}
    1c78:	2010001c 	andscs	r0, r0, ip, lsl r0
    1c7c:	0551010e 	ldrbeq	r0, [r1, #-270]	; 0xfffffef2
    1c80:	0000200c 	andeq	r2, r0, ip
    1c84:	480c005a 	stmdami	ip, {r1, r3, r4, r6}
    1c88:	ae00008e 	cdpge	0, 0, cr0, cr0, cr14, {4}
    1c8c:	00000001 	andeq	r0, r0, r1
    1c90:	0005ac0f 	andeq	sl, r5, pc, lsl #24
    1c94:	06170100 	ldreq	r0, [r7], -r0, lsl #2
    1c98:	00008df4 	strdeq	r8, [r0], -r4
    1c9c:	00000014 	andeq	r0, r0, r4, lsl r0
    1ca0:	01d99c01 	bicseq	r9, r9, r1, lsl #24
    1ca4:	0b0b0000 	bleq	2c1cac <__bss_end__+0x2b838c>
    1ca8:	01000006 	tsteq	r0, r6
    1cac:	00310e18 	eorseq	r0, r1, r8, lsl lr
    1cb0:	0d880000 	stceq	0, cr0, [r8]
    1cb4:	0d820000 	stceq	0, cr0, [r2]
    1cb8:	10000000 	andne	r0, r0, r0
    1cbc:	000005dc 	ldrdeq	r0, [r0], -ip
    1cc0:	25050e01 	strcs	r0, [r5, #-3585]	; 0xfffff1ff
    1cc4:	dc000000 	stcle	0, cr0, [r0], {-0}
    1cc8:	1800008d 	stmdane	r0, {r0, r2, r3, r7}
    1ccc:	01000000 	mrseq	r0, (UNDEF: 0)
    1cd0:	0002089c 	muleq	r2, ip, r8
    1cd4:	060b0b00 	streq	r0, [fp], -r0, lsl #22
    1cd8:	0f010000 	svceq	0x00010000
    1cdc:	0000310e 	andeq	r3, r0, lr, lsl #2
    1ce0:	000db600 	andeq	fp, sp, r0, lsl #12
    1ce4:	000db200 	andeq	fp, sp, r0, lsl #4
    1ce8:	8f110000 	svchi	0x00110000
    1cec:	8f000005 	svchi	0x00000005
    1cf0:	02000005 	andeq	r0, r0, #5, 0
    1cf4:	1206013b 	andne	r0, r6, #-1073741810	; 0xc000000e
    1cf8:	00000528 	andeq	r0, r0, r8, lsr #10
    1cfc:	00000528 	andeq	r0, r0, r8, lsr #10
    1d00:	12064d02 	andne	r4, r6, #128	; 0x80
    1d04:	00000504 	andeq	r0, r0, r4, lsl #10
    1d08:	00000504 	andeq	r0, r0, r4, lsl #10
    1d0c:	12065802 	andne	r5, r6, #131072	; 0x20000
    1d10:	000005a6 	andeq	r0, r0, r6, lsr #11
    1d14:	000005a6 	andeq	r0, r0, r6, lsr #11
    1d18:	0006b202 	andeq	fp, r6, r2, lsl #4
    1d1c:	0000024d 	andeq	r0, r0, sp, asr #4
    1d20:	0c0a0004 	stceq	0, cr0, [sl], {4}
    1d24:	01040000 	mrseq	r0, (UNDEF: 4)
    1d28:	0000025c 	andeq	r0, r0, ip, asr r2
    1d2c:	0006260c 	andeq	r2, r6, ip, lsl #12
    1d30:	00032b00 	andeq	r2, r3, r0, lsl #22
    1d34:	008e5c00 	addeq	r5, lr, r0, lsl #24
    1d38:	00008400 	andeq	r8, r0, r0, lsl #8
    1d3c:	00121500 	andseq	r1, r2, r0, lsl #10
    1d40:	05040200 	streq	r0, [r4, #-512]	; 0xfffffe00
    1d44:	00746e69 	rsbseq	r6, r4, r9, ror #28
    1d48:	ae070403 	cdpge	4, 0, cr0, cr7, cr3, {0}
    1d4c:	03000000 	movweq	r0, #0
    1d50:	000a0601 	andeq	r0, sl, r1, lsl #12
    1d54:	02030000 	andeq	r0, r3, #0, 0
    1d58:	0000fd05 	andeq	pc, r0, r5, lsl #26
    1d5c:	05040300 	streq	r0, [r4, #-768]	; 0xfffffd00
    1d60:	000000e8 	andeq	r0, r0, r8, ror #1
    1d64:	e3050803 	movw	r0, #22531	; 0x5803
    1d68:	03000000 	movweq	r0, #0
    1d6c:	00080801 	andeq	r0, r8, r1, lsl #16
    1d70:	02030000 	andeq	r0, r3, #0, 0
    1d74:	00002307 	andeq	r2, r0, r7, lsl #6
    1d78:	07040300 	streq	r0, [r4, -r0, lsl #6]
    1d7c:	000000a9 	andeq	r0, r0, r9, lsr #1
    1d80:	a4070803 	strge	r0, [r7], #-2051	; 0xfffff7fd
    1d84:	04000000 	streq	r0, [r0], #-0
    1d88:	00000025 	andeq	r0, r0, r5, lsr #32
    1d8c:	0000007a 	andeq	r0, r0, sl, ror r0
    1d90:	00002505 	andeq	r2, r0, r5, lsl #10
    1d94:	f1060000 	cps	#0
    1d98:	02000000 	andeq	r0, r0, #0, 0
    1d9c:	00860e1c 	addeq	r0, r6, ip, lsl lr
    1da0:	04070000 	streq	r0, [r7], #-0
    1da4:	0000006b 	andeq	r0, r0, fp, rrx
    1da8:	00002504 	andeq	r2, r0, r4, lsl #10
    1dac:	00009b00 	andeq	r9, r0, r0, lsl #22
    1db0:	009b0500 	addseq	r0, fp, r0, lsl #10
    1db4:	07000000 	streq	r0, [r0, -r0]
    1db8:	0000a804 	andeq	sl, r0, r4, lsl #16
    1dbc:	08010300 	stmdaeq	r1, {r8, r9}
    1dc0:	00000011 	andeq	r0, r0, r1, lsl r0
    1dc4:	0000a108 	andeq	sl, r0, r8, lsl #2
    1dc8:	03de0600 	bicseq	r0, lr, #0, 12
    1dcc:	21020000 	mrscs	r0, (UNDEF: 2)
    1dd0:	0000b90e 	andeq	fp, r0, lr, lsl #18
    1dd4:	8c040700 	stchi	7, cr0, [r4], {-0}
    1dd8:	09000000 	stmdbeq	r0, {}	; <UNPREDICTABLE>
    1ddc:	0000061c 	andeq	r0, r0, ip, lsl r6
    1de0:	c8061e01 	stmdagt	r6, {r0, r9, sl, fp, ip}
    1de4:	1800008e 	stmdane	r0, {r1, r2, r3, r7}
    1de8:	01000000 	mrseq	r0, (UNDEF: 0)
    1dec:	0001099c 	muleq	r1, ip, r9
    1df0:	65730a00 	ldrbvs	r0, [r3, #-2560]!	; 0xfffff600
    1df4:	1e010063 	cdpne	0, 0, cr0, cr1, cr3, {3}
    1df8:	00002c19 	andeq	r2, r0, r9, lsl ip
    1dfc:	000dd900 	andeq	sp, sp, r0, lsl #18
    1e00:	000dd500 	andeq	sp, sp, r0, lsl #10
    1e04:	8edc0b00 	vfnmshi.f64	d16, d12, d0
    1e08:	01090000 	mrseq	r0, (UNDEF: 9)
    1e0c:	010c0000 	mrseq	r0, (UNDEF: 12)
    1e10:	01f31150 	mvnseq	r1, r0, asr r1
    1e14:	f3243550 	vqrshl.u32	<illegal reg q1.5>, q0, q2
    1e18:	321c5001 	andscc	r5, ip, #1, 0
    1e1c:	5001f324 	andpl	pc, r1, r4, lsr #6
    1e20:	00243322 	eoreq	r3, r4, r2, lsr #6
    1e24:	05040900 	streq	r0, [r4, #-2304]	; 0xfffff700
    1e28:	1b010000 	blne	41e30 <__bss_end__+0x38510>
    1e2c:	008eb006 	addeq	fp, lr, r6
    1e30:	00001800 	andeq	r1, r0, r0, lsl #16
    1e34:	529c0100 	addspl	r0, ip, #0
    1e38:	0a000001 	beq	1e44 <__code_start__-0x61bc>
    1e3c:	0100736d 	tsteq	r0, sp, ror #6
    1e40:	002c181b 	eoreq	r1, ip, fp, lsl r8
    1e44:	0dfe0000 	ldcleq	0, cr0, [lr]
    1e48:	0dfa0000 	ldcleq	0, cr0, [sl]
    1e4c:	c40b0000 	strgt	r0, [fp], #-0
    1e50:	5200008e 	andpl	r0, r0, #142, 0	; 0x8e
    1e54:	0c000001 	stceq	0, cr0, [r0], {1}
    1e58:	f3115001 	vhadd.u16	d5, d1, d1
    1e5c:	24355001 	ldrtcs	r5, [r5], #-1
    1e60:	1c5001f3 	ldfnee	f0, [r0], {243}	; 0xf3
    1e64:	01f32432 	mvnseq	r2, r2, lsr r4
    1e68:	24332250 	ldrtcs	r2, [r3], #-592	; 0xfffffdb0
    1e6c:	4f090000 	svcmi	0x00090000
    1e70:	01000006 	tsteq	r0, r6
    1e74:	8e8c0612 	mcrhi	6, 4, r0, cr12, cr2, {0}
    1e78:	00240000 	eoreq	r0, r4, r0
    1e7c:	9c010000 	stcls	0, cr0, [r1], {-0}
    1e80:	000001c2 	andeq	r0, r0, r2, asr #3
    1e84:	0073750a 	rsbseq	r7, r3, sl, lsl #10
    1e88:	2c181201 	lfmcs	f1, 4, [r8], {1}
    1e8c:	23000000 	movwcs	r0, #0
    1e90:	1f00000e 	svcne	0x0000000e
    1e94:	0d00000e 	stceq	0, cr0, [r0, #-56]	; 0xffffffc8
    1e98:	01006272 	tsteq	r0, r2, ror r2
    1e9c:	002c0e13 	eoreq	r0, ip, r3, lsl lr
    1ea0:	0e430000 	cdpeq	0, 4, cr0, cr3, cr0, {0}
    1ea4:	0e410000 	cdpeq	0, 4, cr0, cr1, cr0, {0}
    1ea8:	9c0e0000 	stcls	0, cr0, [lr], {-0}
    1eac:	1400008e 	strne	r0, [r0], #-142	; 0xffffff72
    1eb0:	b8000000 	stmdalt	r0, {}	; <UNPREDICTABLE>
    1eb4:	0d000001 	stceq	0, cr0, [r0, #-4]
    1eb8:	01006172 	tsteq	r0, r2, ror r1
    1ebc:	002c1215 	eoreq	r1, ip, r5, lsl r2
    1ec0:	0e580000 	cdpeq	0, 5, cr0, cr8, cr0, {0}
    1ec4:	0e560000 	cdpeq	0, 5, cr0, cr6, cr0, {0}
    1ec8:	a00f0000 	andge	r0, pc, r0
    1ecc:	c200008e 	andgt	r0, r0, #142, 0	; 0x8e
    1ed0:	00000001 	andeq	r0, r0, r1
    1ed4:	008e980f 	addeq	r9, lr, pc, lsl #16
    1ed8:	0001c200 	andeq	ip, r1, r0, lsl #4
    1edc:	40100000 	andsmi	r0, r0, r0
    1ee0:	01000006 	tsteq	r0, r6
    1ee4:	002c0a09 	eoreq	r0, ip, r9, lsl #20
    1ee8:	8e700000 	cdphi	0, 7, cr0, cr0, cr0, {0}
    1eec:	001c0000 	andseq	r0, ip, r0
    1ef0:	9c010000 	stcls	0, cr0, [r1], {-0}
    1ef4:	0000020a 	andeq	r0, r0, sl, lsl #4
    1ef8:	0100750d 	tsteq	r0, sp, lsl #10
    1efc:	002c0e0d 	eoreq	r0, ip, sp, lsl #28
    1f00:	0e6f0000 	cdpeq	0, 6, cr0, cr15, cr0, {0}
    1f04:	0e6b0000 	cdpeq	0, 6, cr0, cr11, cr0, {0}
    1f08:	780f0000 	stmdavc	pc, {}	; <UNPREDICTABLE>
    1f0c:	3800008e 	stmdacc	r0, {r1, r2, r3, r7}
    1f10:	0f000002 	svceq	0x00000002
    1f14:	00008e7c 	andeq	r8, r0, ip, ror lr
    1f18:	0000020a 	andeq	r0, r0, sl, lsl #4
    1f1c:	008e840f 	addeq	r8, lr, pc, lsl #8
    1f20:	00023800 	andeq	r3, r2, r0, lsl #16
    1f24:	58100000 	ldmdapl	r0, {}	; <UNPREDICTABLE>
    1f28:	01000006 	tsteq	r0, r6
    1f2c:	002c0a04 	eoreq	r0, ip, r4, lsl #20
    1f30:	8e5c0000 	cdphi	0, 5, cr0, cr12, cr0, {0}
    1f34:	00140000 	andseq	r0, r4, r0
    1f38:	9c010000 	stcls	0, cr0, [r1], {-0}
    1f3c:	00000238 	andeq	r0, r0, r8, lsr r2
    1f40:	008e680b 	addeq	r6, lr, fp, lsl #16
    1f44:	00024400 	andeq	r4, r2, r0, lsl #8
    1f48:	50010c00 	andpl	r0, r1, r0, lsl #24
    1f4c:	30040c05 	andcc	r0, r4, r5, lsl #24
    1f50:	00002000 	andeq	r2, r0, r0
    1f54:	00061011 	andeq	r1, r6, r1, lsl r0
    1f58:	00061000 	andeq	r1, r6, r0
    1f5c:	06a10200 	strteq	r0, [r1], r0, lsl #4
    1f60:	00063a11 	andeq	r3, r6, r1, lsl sl
    1f64:	00063a00 	andeq	r3, r6, r0, lsl #20
    1f68:	0ac70200 	beq	ff1c2770 <__bss_end__+0xff1b8e50>
    1f6c:	0005cd00 	andeq	ip, r5, r0, lsl #26
    1f70:	0b000400 	bleq	2f78 <__code_start__-0x5088>
    1f74:	0400000d 	streq	r0, [r0], #-13
    1f78:	00077001 	andeq	r7, r7, r1
    1f7c:	06aa0c00 	strteq	r0, [sl], r0, lsl #24
    1f80:	07200000 	streq	r0, [r0, -r0]!
    1f84:	8ee00000 	cdphi	0, 14, cr0, cr0, cr0, {0}
    1f88:	01f00000 	mvnseq	r0, r0
    1f8c:	13050000 	movwne	r0, #20480	; 0x5000
    1f90:	04020000 	streq	r0, [r2], #-0
    1f94:	746e6905 	strbtvc	r6, [lr], #-2309	; 0xfffff6fb
    1f98:	07040300 	streq	r0, [r4, -r0, lsl #6]
    1f9c:	000000ae 	andeq	r0, r0, lr, lsr #1
    1fa0:	00002c04 	andeq	r2, r0, r4, lsl #24
    1fa4:	06010300 	streq	r0, [r1], -r0, lsl #6
    1fa8:	0000000a 	andeq	r0, r0, sl
    1fac:	fd050203 	stc2	2, cr0, [r5, #-12]
    1fb0:	03000000 	movweq	r0, #0
    1fb4:	00e80504 	rsceq	r0, r8, r4, lsl #10
    1fb8:	08030000 	stmdaeq	r3, {}	; <UNPREDICTABLE>
    1fbc:	0000e305 	andeq	lr, r0, r5, lsl #6
    1fc0:	08010300 	stmdaeq	r1, {r8, r9}
    1fc4:	00000008 	andeq	r0, r0, r8
    1fc8:	23070203 	movwcs	r0, #29187	; 0x7203
    1fcc:	05000000 	streq	r0, [r0, #-0]
    1fd0:	00000468 	andeq	r0, r0, r8, ror #8
    1fd4:	6e193405 	cfmulsvs	mvf3, mvf9, mvf5
    1fd8:	03000000 	movweq	r0, #0
    1fdc:	00a90704 	adceq	r0, r9, r4, lsl #14
    1fe0:	08030000 	stmdaeq	r3, {}	; <UNPREDICTABLE>
    1fe4:	0000a407 	andeq	sl, r0, r7, lsl #8
    1fe8:	08010300 	stmdaeq	r1, {r8, r9}
    1fec:	00000011 	andeq	r0, r0, r1, lsl r0
    1ff0:	54010706 	strpl	r0, [r1], #-1798	; 0xfffff8fa
    1ff4:	04000000 	streq	r0, [r0], #-0
    1ff8:	00c20e0c 	sbceq	r0, r2, ip, lsl #28
    1ffc:	50070000 	andpl	r0, r7, r0
    2000:	00000008 	andeq	r0, r0, r8
    2004:	00068d07 	andeq	r8, r6, r7, lsl #26
    2008:	d5070100 	strle	r0, [r7, #-256]	; 0xffffff00
    200c:	04000006 	streq	r0, [r0], #-6
    2010:	0006e407 	andeq	lr, r6, r7, lsl #8
    2014:	f3070500 	vrshl.u8	d0, d0, d7
    2018:	06000006 	streq	r0, [r0], -r6
    201c:	00070207 	andeq	r0, r7, r7, lsl #4
    2020:	23070700 	movwcs	r0, #30464	; 0x7700
    2024:	03000008 	movweq	r0, #8
    2028:	00071107 	andeq	r1, r7, r7, lsl #2
    202c:	08000200 	stmdaeq	r0, {r9}
    2030:	0000069e 	muleq	r0, lr, r6
    2034:	0806022c 	stmdaeq	r6, {r2, r3, r5, r9}
    2038:	0000015e 	andeq	r0, r0, lr, asr r1
    203c:	006f6909 	rsbeq	r6, pc, r9, lsl #18
    2040:	33090902 	movwcc	r0, #39170	; 0x9902
    2044:	00000000 	andeq	r0, r0, r0
    2048:	72656909 	rsbvc	r6, r5, #147456	; 0x24000
    204c:	090a0200 	stmdbeq	sl, {r9}
    2050:	00000033 	andeq	r0, r0, r3, lsr r0
    2054:	69690904 	stmdbvs	r9!, {r2, r8, fp}^
    2058:	11020072 	tstne	r2, r2, ror r0
    205c:	00003309 	andeq	r3, r0, r9, lsl #6
    2060:	6c090800 	stcvs	8, cr0, [r9], {-0}
    2064:	02007263 	andeq	r7, r0, #805306374	; 0x30000006
    2068:	00330913 	eorseq	r0, r3, r3, lsl r9
    206c:	090c0000 	stmdbeq	ip, {}	; <UNPREDICTABLE>
    2070:	0072636d 	rsbseq	r6, r2, sp, ror #6
    2074:	33091402 	movwcc	r1, #37890	; 0x9402
    2078:	10000000 	andne	r0, r0, r0
    207c:	72736c09 	rsbsvc	r6, r3, #2304	; 0x900
    2080:	09150200 	ldmdbeq	r5, {r9}
    2084:	00000033 	andeq	r0, r0, r3, lsr r0
    2088:	736d0914 	cmnvc	sp, #20, 18	; 0x50000
    208c:	16020072 			; <UNDEFINED> instruction: 0x16020072
    2090:	00003309 	andeq	r3, r0, r9, lsl #6
    2094:	3a0a1800 	bcc	28809c <__bss_end__+0x27e77c>
    2098:	02000008 	andeq	r0, r0, #8, 0
    209c:	00330917 	eorseq	r0, r3, r7, lsl r9
    20a0:	0a1c0000 	beq	7020a8 <__bss_end__+0x6f8788>
    20a4:	00000803 	andeq	r0, r0, r3, lsl #16
    20a8:	33091b02 	movwcc	r1, #39682	; 0x9b02
    20ac:	20000000 	andcs	r0, r0, r0
    20b0:	00067a0a 	andeq	r7, r6, sl, lsl #20
    20b4:	091d0200 	ldmdbeq	sp, {r9}
    20b8:	00000033 	andeq	r0, r0, r3, lsr r0
    20bc:	07550a24 	ldrbeq	r0, [r5, -r4, lsr #20]
    20c0:	1e020000 	cdpne	0, 0, cr0, cr2, cr0, {0}
    20c4:	00003309 	andeq	r3, r0, r9, lsl #6
    20c8:	0b002800 	bleq	c0d0 <__bss_end__+0x27b0>
    20cc:	0000075a 	andeq	r0, r0, sl, asr r7
    20d0:	74090801 	strvc	r0, [r9], #-2049	; 0xfffff7ff
    20d4:	04000001 	streq	r0, [r0], #-1
    20d8:	0c202150 	stfeqs	f2, [r0], #-320	; 0xfffffec0
    20dc:	00003304 	andeq	r3, r0, r4, lsl #6
    20e0:	016e0d00 	cmneq	lr, r0, lsl #26
    20e4:	420b0000 	andmi	r0, fp, #0, 0
    20e8:	01000008 	tsteq	r0, r8
    20ec:	018f2329 	orreq	r2, pc, r9, lsr #6
    20f0:	50400000 	subpl	r0, r0, r0
    20f4:	040c2021 	streq	r2, [ip], #-33	; 0xffffffdf
    20f8:	000000c2 	andeq	r0, r0, r2, asr #1
    20fc:	0001890d 	andeq	r8, r1, sp, lsl #18
    2100:	05280e00 	streq	r0, [r8, #-3584]!	; 0xfffff200
    2104:	cc010000 	stcgt	0, cr0, [r1], {-0}
    2108:	00909806 	addseq	r9, r0, r6, lsl #16
    210c:	00001400 	andeq	r1, r0, r0, lsl #8
    2110:	b49c0100 	ldrlt	r0, [ip], #256	; 0x100
    2114:	0f000001 	svceq	0x00000001
    2118:	000090a0 	andeq	r9, r0, r0, lsr #1
    211c:	000001b4 			; <UNDEFINED> instruction: 0x000001b4
    2120:	06c41000 	strbeq	r1, [r4], r0
    2124:	b6010000 	strlt	r0, [r1], -r0
    2128:	00002505 	andeq	r2, r0, r5, lsl #10
    212c:	00907800 	addseq	r7, r0, r0, lsl #16
    2130:	00002000 	andeq	r2, r0, r0
    2134:	eb9c0100 	bl	fe70253c <__bss_end__+0xfe6f8c1c>
    2138:	0f000001 	svceq	0x00000001
    213c:	00009080 	andeq	r9, r0, r0, lsl #1
    2140:	000005a0 	andeq	r0, r0, r0, lsr #11
    2144:	00908811 	addseq	r8, r0, r1, lsl r8
    2148:	0005ac00 	andeq	sl, r5, r0, lsl #24
    214c:	50011200 	andpl	r1, r1, r0, lsl #4
    2150:	50640c05 	rsbpl	r0, r4, r5, lsl #24
    2154:	00002021 	andeq	r2, r0, r1, lsr #32
    2158:	00081510 	andeq	r1, r8, r0, lsl r5
    215c:	05b30100 	ldreq	r0, [r3, #256]!	; 0x100
    2160:	00000025 	andeq	r0, r0, r5, lsr #32
    2164:	00009068 	andeq	r9, r0, r8, rrx
    2168:	00000010 	andeq	r0, r0, r0, lsl r0
    216c:	02189c01 	andseq	r9, r8, #256	; 0x100
    2170:	700f0000 	andvc	r0, pc, r0
    2174:	a0000090 	mulge	r0, r0, r0
    2178:	0f000005 	svceq	0x00000005
    217c:	00009074 	andeq	r9, r0, r4, ror r0
    2180:	00000309 	andeq	r0, r0, r9, lsl #6
    2184:	03cb0e00 	biceq	r0, fp, #0, 28
    2188:	ab010000 	blge	42190 <__bss_end__+0x38870>
    218c:	00903806 	addseq	r3, r0, r6, lsl #16
    2190:	00003000 	andeq	r3, r0, r0
    2194:	7c9c0100 	ldfvcs	f0, [ip], {0}
    2198:	13000002 	movwne	r0, #2
    219c:	ab010063 	blge	42330 <__bss_end__+0x38a10>
    21a0:	00002c19 	andeq	r2, r0, r9, lsl ip
    21a4:	000e9100 	andeq	r9, lr, r0, lsl #2
    21a8:	000e8d00 	andeq	r8, lr, r0, lsl #26
    21ac:	90440f00 	subls	r0, r4, r0, lsl #30
    21b0:	05a00000 	streq	r0, [r0, #0]!
    21b4:	480f0000 	stmdami	pc, {}	; <UNPREDICTABLE>
    21b8:	db000090 	blle	2400 <__code_start__-0x5c00>
    21bc:	14000002 	strne	r0, [r0], #-2
    21c0:	0000905c 	andeq	r9, r0, ip, asr r0
    21c4:	000005b8 			; <UNDEFINED> instruction: 0x000005b8
    21c8:	00000272 	andeq	r0, r0, r2, ror r2
    21cc:	05500112 	ldrbeq	r0, [r0, #-274]	; 0xfffffeee
    21d0:	2150400c 	cmpcs	r0, ip
    21d4:	51011220 	tstpl	r1, r0, lsr #4
    21d8:	08007405 	stmdaeq	r0, {r0, r2, sl, ip, sp, lr}
    21dc:	0f001aff 	svceq	0x00001aff
    21e0:	00009060 	andeq	r9, r0, r0, rrx
    21e4:	000005a0 	andeq	r0, r0, r0, lsr #11
    21e8:	07661000 	strbeq	r1, [r6, -r0]!
    21ec:	a3010000 	movwge	r0, #4096	; 0x1000
    21f0:	00002505 	andeq	r2, r0, r5, lsl #10
    21f4:	00900800 	addseq	r0, r0, r0, lsl #16
    21f8:	00003000 	andeq	r3, r0, r0
    21fc:	db9c0100 	blle	fe702604 <__bss_end__+0xfe6f8ce4>
    2200:	15000002 	strne	r0, [r0, #-2]
    2204:	a7010063 	strge	r0, [r1, -r3, rrx]
    2208:	00002509 	andeq	r2, r0, r9, lsl #10
    220c:	000eb100 	andeq	fp, lr, r0, lsl #2
    2210:	000eaf00 	andeq	sl, lr, r0, lsl #30
    2214:	90100f00 	andsls	r0, r0, r0, lsl #30
    2218:	05a00000 	streq	r0, [r0, #0]!
    221c:	140f0000 	strne	r0, [pc], #-0	; 2224 <__code_start__-0x5ddc>
    2220:	09000090 	stmdbeq	r0, {r4, r7}
    2224:	14000003 	strne	r0, [r0], #-3
    2228:	00009024 	andeq	r9, r0, r4, lsr #32
    222c:	000005ac 	andeq	r0, r0, ip, lsr #11
    2230:	000002d1 	ldrdeq	r0, [r0], -r1
    2234:	05500112 	ldrbeq	r0, [r0, #-274]	; 0xfffffeee
    2238:	2150400c 	cmpcs	r0, ip
    223c:	2c0f0020 	stccs	0, cr0, [pc], {32}
    2240:	a0000090 	mulge	r0, r0, r0
    2244:	00000005 	andeq	r0, r0, r5
    2248:	0006b110 	andeq	fp, r6, r0, lsl r1
    224c:	05940100 	ldreq	r0, [r4, #256]	; 0x100
    2250:	00000025 	andeq	r0, r0, r5, lsr #32
    2254:	00008fe8 	andeq	r8, r0, r8, ror #31
    2258:	00000020 	andeq	r0, r0, r0, lsr #32
    225c:	03099c01 	movweq	r9, #39937	; 0x9c01
    2260:	f4110000 			; <UNDEFINED> instruction: 0xf4110000
    2264:	ac00008f 	stcge	0, cr0, [r0], {143}	; 0x8f
    2268:	12000005 	andne	r0, r0, #5, 0
    226c:	0c055001 	stceq	0, cr5, [r5], {1}
    2270:	20215064 	eorcs	r5, r1, r4, rrx
    2274:	7f100000 	svcvc	0x00100000
    2278:	01000006 	tsteq	r0, r6
    227c:	0025058b 	eoreq	r0, r5, fp, lsl #11
    2280:	8fd00000 	svchi	0x00d00000
    2284:	00180000 	andseq	r0, r8, r0
    2288:	9c010000 	stcls	0, cr0, [r1], {-0}
    228c:	00000337 	andeq	r0, r0, r7, lsr r3
    2290:	008fdc11 	addeq	sp, pc, r1, lsl ip	; <UNPREDICTABLE>
    2294:	0005ac00 	andeq	sl, r5, r0, lsl #24
    2298:	50011200 	andpl	r1, r1, r0, lsl #4
    229c:	50640c05 	rsbpl	r0, r4, r5, lsl #24
    22a0:	00002021 	andeq	r2, r0, r1, lsr #32
    22a4:	0005460e 	andeq	r4, r5, lr, lsl #12
    22a8:	06450100 	strbeq	r0, [r5], -r0, lsl #2
    22ac:	00008f20 	andeq	r8, r0, r0, lsr #30
    22b0:	000000b0 	strheq	r0, [r0], -r0	; <UNPREDICTABLE>
    22b4:	04849c01 	streq	r9, [r4], #3073	; 0xc01
    22b8:	71160000 	tstvc	r6, r0
    22bc:	01000006 	tsteq	r0, r6
    22c0:	00620e7e 	rsbeq	r0, r2, lr, ror lr
    22c4:	010e0000 	mrseq	r0, (UNDEF: 14)
    22c8:	008f3014 	addeq	r3, pc, r4, lsl r0	; <UNPREDICTABLE>
    22cc:	0005c400 	andeq	ip, r5, r0, lsl #8
    22d0:	00037300 	andeq	r7, r3, r0, lsl #6
    22d4:	50011200 	andpl	r1, r1, r0, lsl #4
    22d8:	01123e01 	tsteq	r2, r1, lsl #28
    22dc:	00320151 	eorseq	r0, r2, r1, asr r1
    22e0:	008f3c14 	addeq	r3, pc, r4, lsl ip	; <UNPREDICTABLE>
    22e4:	0005c400 	andeq	ip, r5, r0, lsl #8
    22e8:	00038b00 	andeq	r8, r3, r0, lsl #22
    22ec:	50011200 	andpl	r1, r1, r0, lsl #4
    22f0:	01123f01 	tsteq	r2, r1, lsl #30
    22f4:	00320151 	eorseq	r0, r2, r1, asr r1
    22f8:	008f400f 	addeq	r4, pc, pc
    22fc:	0005a000 	andeq	sl, r5, r0
    2300:	8f4c1400 	svchi	0x004c1400
    2304:	053d0000 	ldreq	r0, [sp, #-0]!
    2308:	03b00000 	movseq	r0, #0, 0
    230c:	01120000 	tsteq	r2, r0
    2310:	040c0550 	streq	r0, [ip], #-1360	; 0xfffffab0
    2314:	12202150 	eorne	r2, r0, #20
    2318:	31015101 	tstcc	r1, r1, lsl #2
    231c:	8f500f00 	svchi	0x00500f00
    2320:	05a00000 	streq	r0, [r0, #0]!
    2324:	60140000 	andsvs	r0, r4, r0
    2328:	b800008f 	stmdalt	r0, {r0, r1, r2, r3, r7}
    232c:	d2000005 	andle	r0, r0, #5, 0
    2330:	12000003 	andne	r0, r0, #3, 0
    2334:	74025001 	strvc	r5, [r2], #-1
    2338:	51011200 	mrspl	r1, R9_usr
    233c:	14003001 	strne	r3, [r0], #-1
    2340:	00008f6c 	andeq	r8, r0, ip, ror #30
    2344:	000005b8 			; <UNDEFINED> instruction: 0x000005b8
    2348:	000003ee 	andeq	r0, r0, lr, ror #7
    234c:	05500112 	ldrbeq	r0, [r0, #-274]	; 0xfffffeee
    2350:	2150440c 	cmpcs	r0, ip, lsl #8
    2354:	51011220 	tstpl	r1, r0, lsr #4
    2358:	14003001 	strne	r3, [r0], #-1
    235c:	00008f78 	andeq	r8, r0, r8, ror pc
    2360:	000005b8 			; <UNDEFINED> instruction: 0x000005b8
    2364:	0000040a 	andeq	r0, r0, sl, lsl #8
    2368:	05500112 	ldrbeq	r0, [r0, #-274]	; 0xfffffeee
    236c:	21504c0c 	cmpcs	r0, ip, lsl #24
    2370:	51011220 	tstpl	r1, r0, lsr #4
    2374:	14003301 	strne	r3, [r0], #-769	; 0xfffffcff
    2378:	00008f84 	andeq	r8, r0, r4, lsl #31
    237c:	000005b8 			; <UNDEFINED> instruction: 0x000005b8
    2380:	00000426 	andeq	r0, r0, r6, lsr #8
    2384:	05500112 	ldrbeq	r0, [r0, #-274]	; 0xfffffeee
    2388:	2150500c 	cmpcs	r0, ip
    238c:	51011220 	tstpl	r1, r0, lsr #4
    2390:	14003001 	strne	r3, [r0], #-1
    2394:	00008f90 	muleq	r0, r0, pc	; <UNPREDICTABLE>
    2398:	000005b8 			; <UNDEFINED> instruction: 0x000005b8
    239c:	00000443 	andeq	r0, r0, r3, asr #8
    23a0:	05500112 	ldrbeq	r0, [r0, #-274]	; 0xfffffeee
    23a4:	2150480c 	cmpcs	r0, ip, lsl #16
    23a8:	51011220 	tstpl	r1, r0, lsr #4
    23ac:	00c70802 	sbceq	r0, r7, r2, lsl #16
    23b0:	008f9c14 	addeq	r9, pc, r4, lsl ip	; <UNPREDICTABLE>
    23b4:	0005b800 	andeq	fp, r5, r0, lsl #16
    23b8:	00046100 	andeq	r6, r4, r0, lsl #2
    23bc:	50011200 	andpl	r1, r1, r0, lsl #4
    23c0:	50680c05 	rsbpl	r0, r8, r5, lsl #24
    23c4:	01122021 	tsteq	r2, r1, lsr #32
    23c8:	0e0a0351 	mcreq	3, 0, r0, cr10, cr1, {2}
    23cc:	a8140001 	ldmdage	r4, {r0}
    23d0:	b800008f 	stmdalt	r0, {r0, r1, r2, r3, r7}
    23d4:	7a000005 	bvc	23f0 <__code_start__-0x5c10>
    23d8:	12000004 	andne	r0, r0, #4, 0
    23dc:	74025001 	strvc	r5, [r2], #-1
    23e0:	51011200 	mrspl	r1, R9_usr
    23e4:	0f003301 	svceq	0x00003301
    23e8:	00008fac 	andeq	r8, r0, ip, lsr #31
    23ec:	000005a0 	andeq	r0, r0, r0, lsr #11
    23f0:	08080e00 	stmdaeq	r8, {r9, sl, fp}
    23f4:	35010000 	strcc	r0, [r1, #-0]
    23f8:	0090ac06 	addseq	sl, r0, r6, lsl #24
    23fc:	00002400 	andeq	r2, r0, r0, lsl #8
    2400:	d39c0100 	orrsle	r0, ip, #0
    2404:	0f000004 	svceq	0x00000004
    2408:	000090b4 	strheq	r9, [r0], -r4
    240c:	00000194 	muleq	r0, r4, r1
    2410:	0090b80f 	addseq	fp, r0, pc, lsl #16
    2414:	0005a000 	andeq	sl, r5, r0
    2418:	90c41400 	sbcls	r1, r4, r0, lsl #8
    241c:	04d30000 	ldrbeq	r0, [r3], #0
    2420:	04c90000 	strbeq	r0, [r9], #0
    2424:	01120000 	tsteq	r2, r0
    2428:	040c0550 	streq	r0, [ip], #-1360	; 0xfffffab0
    242c:	12202150 	eorne	r2, r0, #20
    2430:	09025101 	stmdbeq	r2, {r0, r8, ip, lr}
    2434:	c80f00fe 	stmdagt	pc, {r1, r2, r3, r4, r5, r6, r7}	; <UNPREDICTABLE>
    2438:	a0000090 	mulge	r0, r0, r0
    243c:	00000005 	andeq	r0, r0, r5
    2440:	00084717 	andeq	r4, r8, r7, lsl r7
    2444:	0d310100 	ldfeqs	f0, [r1, #-0]
    2448:	00008ee0 	andeq	r8, r0, r0, ror #29
    244c:	00000020 	andeq	r0, r0, r0, lsr #32
    2450:	05369c01 	ldreq	r9, [r6, #-3073]!	; 0xfffff3ff
    2454:	bf180000 	svclt	0x00180000
    2458:	01000006 	tsteq	r0, r6
    245c:	05362531 	ldreq	r2, [r6, #-1329]!	; 0xfffffacf
    2460:	0ec80000 	cdpeq	0, 12, cr0, cr8, cr0, {0}
    2464:	0ec40000 	cdpeq	0, 12, cr0, cr4, cr0, {0}
    2468:	76130000 	ldrvc	r0, [r3], -r0
    246c:	01006c61 	tsteq	r0, r1, ror #24
    2470:	002c3431 	eoreq	r3, ip, r1, lsr r4
    2474:	0eea0000 	cdpeq	0, 14, cr0, cr10, cr0, {0}
    2478:	0ee60000 	cdpeq	0, 14, cr0, cr6, cr0, {0}
    247c:	f0140000 			; <UNDEFINED> instruction: 0xf0140000
    2480:	ac00008e 	stcge	0, cr0, [r0], {142}	; 0x8e
    2484:	25000005 	strcs	r0, [r0, #-5]
    2488:	12000005 	andne	r0, r0, #5, 0
    248c:	74025001 	strvc	r5, [r2], #-1
    2490:	fc110000 	ldc2	0, cr0, [r1], {-0}
    2494:	b800008e 	stmdalt	r0, {r1, r2, r3, r7}
    2498:	12000005 	andne	r0, r0, #5, 0
    249c:	74025001 	strvc	r5, [r2], #-1
    24a0:	0c000000 	stceq	0, cr0, [r0], {-0}
    24a4:	00053c04 	andeq	r3, r5, r4, lsl #24
    24a8:	32171900 	andscc	r1, r7, #0, 18
    24ac:	01000008 	tsteq	r0, r8
    24b0:	8f000d2e 	svchi	0x00000d2e
    24b4:	00200000 	eoreq	r0, r0, r0
    24b8:	9c010000 	stcls	0, cr0, [r1], {-0}
    24bc:	000005a0 	andeq	r0, r0, r0, lsr #11
    24c0:	0006bf18 	andeq	fp, r6, r8, lsl pc
    24c4:	242e0100 	strtcs	r0, [lr], #-256	; 0xffffff00
    24c8:	00000536 	andeq	r0, r0, r6, lsr r5
    24cc:	00000f0c 	andeq	r0, r0, ip, lsl #30
    24d0:	00000f08 	andeq	r0, r0, r8, lsl #30
    24d4:	6c617613 	stclvs	6, cr7, [r1], #-76	; 0xffffffb4
    24d8:	332e0100 			; <UNDEFINED> instruction: 0x332e0100
    24dc:	0000002c 	andeq	r0, r0, ip, lsr #32
    24e0:	00000f2e 	andeq	r0, r0, lr, lsr #30
    24e4:	00000f2a 	andeq	r0, r0, sl, lsr #30
    24e8:	008f1014 	addeq	r1, pc, r4, lsl r0	; <UNPREDICTABLE>
    24ec:	0005ac00 	andeq	sl, r5, r0, lsl #24
    24f0:	00058f00 	andeq	r8, r5, r0, lsl #30
    24f4:	50011200 	andpl	r1, r1, r0, lsl #4
    24f8:	00007402 	andeq	r7, r0, r2, lsl #8
    24fc:	008f1c11 	addeq	r1, pc, r1, lsl ip	; <UNPREDICTABLE>
    2500:	0005b800 	andeq	fp, r5, r0, lsl #16
    2504:	50011200 	andpl	r1, r1, r0, lsl #4
    2508:	00007402 	andeq	r7, r0, r2, lsl #8
    250c:	06101a00 	ldreq	r1, [r0], -r0, lsl #20
    2510:	06100000 	ldreq	r0, [r0], -r0
    2514:	a1030000 	mrsge	r0, (UNDEF: 3)
    2518:	08721a06 	ldmdaeq	r2!, {r1, r2, r9, fp, ip}^
    251c:	08720000 	ldmdaeq	r2!, {}^	; <UNPREDICTABLE>
    2520:	c8030000 	stmdagt	r3, {}	; <UNPREDICTABLE>
    2524:	066b1a0b 	strbteq	r1, [fp], -fp, lsl #20
    2528:	066b0000 	strbteq	r0, [fp], -r0
    252c:	b3030000 	movwlt	r0, #12288	; 0x3000
    2530:	08601a06 	stmdaeq	r0!, {r1, r2, r9, fp, ip}^
    2534:	08600000 	stmdaeq	r0!, {}^	; <UNPREDICTABLE>
    2538:	19040000 	stmdbne	r4, {}	; <UNPREDICTABLE>
    253c:	01370006 	teqeq	r7, r6
    2540:	00040000 	andeq	r0, r4, r0
    2544:	00000ea3 	andeq	r0, r0, r3, lsr #29
    2548:	025c0104 	subseq	r0, ip, #1
    254c:	7d0c0000 	stcvc	0, cr0, [ip, #-0]
    2550:	2b000008 	blcs	2578 <__code_start__-0x5a88>
    2554:	d0000003 	andle	r0, r0, r3
    2558:	34000090 	strcc	r0, [r0], #-144	; 0xffffff70
    255c:	0e000000 	cdpeq	0, 0, cr0, cr0, cr0, {0}
    2560:	02000015 	andeq	r0, r0, #21, 0
    2564:	6e690504 	cdpvs	5, 6, cr0, cr9, cr4, {0}
    2568:	04030074 	streq	r0, [r3], #-116	; 0xffffff8c
    256c:	0000ae07 	andeq	sl, r0, r7, lsl #28
    2570:	06010300 	streq	r0, [r1], -r0, lsl #6
    2574:	0000000a 	andeq	r0, r0, sl
    2578:	fd050203 	stc2	2, cr0, [r5, #-12]
    257c:	03000000 	movweq	r0, #0
    2580:	00e80504 	rsceq	r0, r8, r4, lsl #10
    2584:	08030000 	stmdaeq	r3, {}	; <UNPREDICTABLE>
    2588:	0000e305 	andeq	lr, r0, r5, lsl #6
    258c:	08010300 	stmdaeq	r1, {r8, r9}
    2590:	00000008 	andeq	r0, r0, r8
    2594:	23070203 	movwcs	r0, #29187	; 0x7203
    2598:	03000000 	movweq	r0, #0
    259c:	00a90704 	adceq	r0, r9, r4, lsl #14
    25a0:	08030000 	stmdaeq	r3, {}	; <UNPREDICTABLE>
    25a4:	0000a407 	andeq	sl, r0, r7, lsl #8
    25a8:	00250400 	eoreq	r0, r5, r0, lsl #8
    25ac:	007a0000 	rsbseq	r0, sl, r0
    25b0:	25050000 	strcs	r0, [r5, #-0]
    25b4:	00000000 	andeq	r0, r0, r0
    25b8:	0000f106 	andeq	pc, r0, r6, lsl #2
    25bc:	0e1c0200 	cdpeq	2, 1, cr0, cr12, cr0, {0}
    25c0:	00000086 	andeq	r0, r0, r6, lsl #1
    25c4:	006b0407 	rsbeq	r0, fp, r7, lsl #8
    25c8:	25040000 	strcs	r0, [r4, #-0]
    25cc:	9b000000 	blls	25d4 <__code_start__-0x5a2c>
    25d0:	05000000 	streq	r0, [r0, #-0]
    25d4:	0000009b 	muleq	r0, fp, r0
    25d8:	a8040700 	stmdage	r4, {r8, r9, sl}
    25dc:	03000000 	movweq	r0, #0
    25e0:	00110801 	andseq	r0, r1, r1, lsl #16
    25e4:	a1080000 	mrsge	r0, (UNDEF: 8)
    25e8:	06000000 	streq	r0, [r0], -r0
    25ec:	000003de 	ldrdeq	r0, [r0], -lr
    25f0:	b90e2102 	stmdblt	lr, {r1, r8, sp}
    25f4:	07000000 	streq	r0, [r0, -r0]
    25f8:	00008c04 	andeq	r8, r0, r4, lsl #24
    25fc:	04b90900 	ldrteq	r0, [r9], #2304	; 0x900
    2600:	04010000 	streq	r0, [r1], #-0
    2604:	00013407 	andeq	r3, r1, r7, lsl #8
    2608:	0090d000 	addseq	sp, r0, r0
    260c:	00003400 	andeq	r3, r0, r0, lsl #8
    2610:	349c0100 	ldrcc	r0, [ip], #256	; 0x100
    2614:	0a000001 	beq	2620 <__code_start__-0x59e0>
    2618:	00000878 	andeq	r0, r0, r8, ror r8
    261c:	34150401 	ldrcc	r0, [r5], #-1025	; 0xfffffbff
    2620:	01000001 	tsteq	r0, r1
    2624:	72730b50 	rsbsvc	r0, r3, #80, 22	; 0x14000
    2628:	04010063 	streq	r0, [r1], #-99	; 0xffffff9d
    262c:	00009b27 	andeq	r9, r0, r7, lsr #22
    2630:	000f5000 	andeq	r5, pc, r0
    2634:	000f4c00 	andeq	r4, pc, r0, lsl #24
    2638:	31730c00 	cmncc	r3, r0, lsl #24
    263c:	0b050100 	bleq	142a44 <__bss_end__+0x139124>
    2640:	00000134 	andeq	r0, r0, r4, lsr r1
    2644:	00000f7b 	andeq	r0, r0, fp, ror pc
    2648:	00000f71 	andeq	r0, r0, r1, ror pc
    264c:	0032730c 	eorseq	r7, r2, ip, lsl #6
    2650:	9b110601 	blls	443e5c <__bss_end__+0x43a53c>
    2654:	c0000000 	andgt	r0, r0, r0
    2658:	bc00000f 	stclt	0, cr0, [r0], {15}
    265c:	0c00000f 	stceq	0, cr0, [r0], {15}
    2660:	07010063 	streq	r0, [r1, -r3, rrx]
    2664:	0000a10a 	andeq	sl, r0, sl, lsl #2
    2668:	000fe400 	andeq	lr, pc, r0, lsl #8
    266c:	000fe000 	andeq	lr, pc, r0
    2670:	04070000 	streq	r0, [r7], #-0
    2674:	000000a1 	andeq	r0, r0, r1, lsr #1
    2678:	0000f700 	andeq	pc, r0, r0, lsl #14
    267c:	59000400 	stmdbpl	r0, {sl}
    2680:	0400000f 	streq	r0, [r0], #-15
    2684:	00025c01 	andeq	r5, r2, r1, lsl #24
    2688:	088d0c00 	stmeq	sp, {sl, fp}
    268c:	032b0000 			; <UNDEFINED> instruction: 0x032b0000
    2690:	91040000 	mrsls	r0, (UNDEF: 4)
    2694:	002c0000 	eoreq	r0, ip, r0
    2698:	160e0000 	strne	r0, [lr], -r0
    269c:	04020000 	streq	r0, [r2], #-0
    26a0:	746e6905 	strbtvc	r6, [lr], #-2309	; 0xfffff6fb
    26a4:	07040300 	streq	r0, [r4, -r0, lsl #6]
    26a8:	000000ae 	andeq	r0, r0, lr, lsr #1
    26ac:	0a060103 	beq	182ac0 <__bss_end__+0x1791a0>
    26b0:	03000000 	movweq	r0, #0
    26b4:	00fd0502 	rscseq	r0, sp, r2, lsl #10
    26b8:	04030000 	streq	r0, [r3], #-0
    26bc:	0000e805 	andeq	lr, r0, r5, lsl #16
    26c0:	05080300 	streq	r0, [r8, #-768]	; 0xfffffd00
    26c4:	000000e3 	andeq	r0, r0, r3, ror #1
    26c8:	08080103 	stmdaeq	r8, {r0, r1, r8}
    26cc:	03000000 	movweq	r0, #0
    26d0:	00230702 	eoreq	r0, r3, r2, lsl #14
    26d4:	04030000 	streq	r0, [r3], #-0
    26d8:	0000a907 	andeq	sl, r0, r7, lsl #18
    26dc:	07080300 	streq	r0, [r8, -r0, lsl #6]
    26e0:	000000a4 	andeq	r0, r0, r4, lsr #1
    26e4:	00002504 	andeq	r2, r0, r4, lsl #10
    26e8:	00007a00 	andeq	r7, r0, r0, lsl #20
    26ec:	00250500 	eoreq	r0, r5, r0, lsl #10
    26f0:	06000000 	streq	r0, [r0], -r0
    26f4:	000000f1 	strdeq	r0, [r0], -r1
    26f8:	860e1c02 	strhi	r1, [lr], -r2, lsl #24
    26fc:	07000000 	streq	r0, [r0, -r0]
    2700:	00006b04 	andeq	r6, r0, r4, lsl #22
    2704:	00250400 	eoreq	r0, r5, r0, lsl #8
    2708:	009b0000 	addseq	r0, fp, r0
    270c:	9b050000 	blls	142714 <__bss_end__+0x138df4>
    2710:	00000000 	andeq	r0, r0, r0
    2714:	00a80407 	adceq	r0, r8, r7, lsl #8
    2718:	01030000 	mrseq	r0, (UNDEF: 3)
    271c:	00001108 	andeq	r1, r0, r8, lsl #2
    2720:	00a10800 	adceq	r0, r1, r0, lsl #16
    2724:	de060000 	cdple	0, 0, cr0, cr6, cr0, {0}
    2728:	02000003 	andeq	r0, r0, #3, 0
    272c:	00b90e21 	adcseq	r0, r9, r1, lsr #28
    2730:	04070000 	streq	r0, [r7], #-0
    2734:	0000008c 	andeq	r0, r0, ip, lsl #1
    2738:	0004c009 	andeq	ip, r4, r9
    273c:	05030100 	streq	r0, [r3, #-256]	; 0xffffff00
    2740:	00000025 	andeq	r0, r0, r5, lsr #32
    2744:	00009104 	andeq	r9, r0, r4, lsl #2
    2748:	0000002c 	andeq	r0, r0, ip, lsr #32
    274c:	610a9c01 	tstvs	sl, r1, lsl #24
    2750:	18030100 	stmdane	r3, {r8}
    2754:	0000009b 	muleq	r0, fp, r0
    2758:	00001006 	andeq	r1, r0, r6
    275c:	00001002 	andeq	r1, r0, r2
    2760:	0100620a 	tsteq	r0, sl, lsl #4
    2764:	009b2703 	addseq	r2, fp, r3, lsl #14
    2768:	10280000 	eorne	r0, r8, r0
    276c:	10240000 	eorne	r0, r4, r0
    2770:	00000000 	andeq	r0, r0, r0
    2774:	0000010f 	andeq	r0, r0, pc, lsl #2
    2778:	0fe80004 	svceq	0x00e80004
    277c:	01040000 	mrseq	r0, (UNDEF: 4)
    2780:	0000025c 	andeq	r0, r0, ip, asr r2
    2784:	00089d0c 	andeq	r9, r8, ip, lsl #26
    2788:	00032b00 	andeq	r2, r3, r0, lsl #22
    278c:	00913000 	addseq	r3, r1, r0
    2790:	00002000 	andeq	r2, r0, r0
    2794:	0016c700 	andseq	ip, r6, r0, lsl #14
    2798:	05040200 	streq	r0, [r4, #-512]	; 0xfffffe00
    279c:	00746e69 	rsbseq	r6, r4, r9, ror #28
    27a0:	ae070403 	cdpge	4, 0, cr0, cr7, cr3, {0}
    27a4:	03000000 	movweq	r0, #0
    27a8:	000a0601 	andeq	r0, sl, r1, lsl #12
    27ac:	02030000 	andeq	r0, r3, #0, 0
    27b0:	0000fd05 	andeq	pc, r0, r5, lsl #26
    27b4:	05040300 	streq	r0, [r4, #-768]	; 0xfffffd00
    27b8:	000000e8 	andeq	r0, r0, r8, ror #1
    27bc:	e3050803 	movw	r0, #22531	; 0x5803
    27c0:	03000000 	movweq	r0, #0
    27c4:	00080801 	andeq	r0, r8, r1, lsl #16
    27c8:	02030000 	andeq	r0, r3, #0, 0
    27cc:	00002307 	andeq	r2, r0, r7, lsl #6
    27d0:	07040300 	streq	r0, [r4, -r0, lsl #6]
    27d4:	000000a9 	andeq	r0, r0, r9, lsr #1
    27d8:	a4070803 	strge	r0, [r7], #-2051	; 0xfffff7fd
    27dc:	04000000 	streq	r0, [r0], #-0
    27e0:	00000025 	andeq	r0, r0, r5, lsr #32
    27e4:	0000007a 	andeq	r0, r0, sl, ror r0
    27e8:	00002505 	andeq	r2, r0, r5, lsl #10
    27ec:	f1060000 	cps	#0
    27f0:	02000000 	andeq	r0, r0, #0, 0
    27f4:	00860e1c 	addeq	r0, r6, ip, lsl lr
    27f8:	04070000 	streq	r0, [r7], #-0
    27fc:	0000006b 	andeq	r0, r0, fp, rrx
    2800:	00002504 	andeq	r2, r0, r4, lsl #10
    2804:	00009b00 	andeq	r9, r0, r0, lsl #22
    2808:	009b0500 	addseq	r0, fp, r0, lsl #10
    280c:	07000000 	streq	r0, [r0, -r0]
    2810:	0000a804 	andeq	sl, r0, r4, lsl #16
    2814:	08010300 	stmdaeq	r1, {r8, r9}
    2818:	00000011 	andeq	r0, r0, r1, lsl r0
    281c:	0000a108 	andeq	sl, r0, r8, lsl #2
    2820:	03de0600 	bicseq	r0, lr, #0, 12
    2824:	21020000 	mrscs	r0, (UNDEF: 2)
    2828:	0000b90e 	andeq	fp, r0, lr, lsl #18
    282c:	8c040700 	stchi	7, cr0, [r4], {-0}
    2830:	09000000 	stmdbeq	r0, {}	; <UNPREDICTABLE>
    2834:	0000048a 	andeq	r0, r0, sl, lsl #9
    2838:	0c070301 	stceq	3, cr0, [r7], {1}
    283c:	30000001 	andcc	r0, r0, r1
    2840:	20000091 	mulcs	r0, r1, r0
    2844:	01000000 	mrseq	r0, (UNDEF: 0)
    2848:	00010c9c 	muleq	r1, ip, ip
    284c:	31730a00 	cmncc	r3, r0, lsl #20
    2850:	15030100 	strne	r0, [r3, #-256]	; 0xffffff00
    2854:	0000010c 	andeq	r0, r0, ip, lsl #2
    2858:	730b5001 	movwvc	r5, #45057	; 0xb001
    285c:	03010032 	movweq	r0, #4146	; 0x1032
    2860:	00009b26 	andeq	r9, r0, r6, lsr #22
    2864:	00104c00 	andseq	r4, r0, r0, lsl #24
    2868:	00104600 	andseq	r4, r0, r0, lsl #12
    286c:	00730c00 	rsbseq	r0, r3, r0, lsl #24
    2870:	0c140401 	cfldrseq	mvf0, [r4], {1}
    2874:	7d000001 	stcvc	0, cr0, [r0, #-4]
    2878:	77000010 	smladvc	r0, r0, r0, r0
    287c:	00000010 	andeq	r0, r0, r0, lsl r0
    2880:	00a10407 	adceq	r0, r1, r7, lsl #8
    2884:	4e000000 	cdpmi	0, 0, cr0, cr0, cr0, {0}
    2888:	04000001 	streq	r0, [r0], #-1
    288c:	00109e00 	andseq	r9, r0, r0, lsl #28
    2890:	5c010400 	cfstrspl	mvf0, [r1], {-0}
    2894:	0c000002 	stceq	0, cr0, [r0], {2}
    2898:	000008b4 			; <UNDEFINED> instruction: 0x000008b4
    289c:	0000032b 	andeq	r0, r0, fp, lsr #6
    28a0:	00000058 	andeq	r0, r0, r8, asr r0
    28a4:	00000000 	andeq	r0, r0, r0
    28a8:	0000177e 	andeq	r1, r0, lr, ror r7
    28ac:	69050402 	stmdbvs	r5, {r1, sl}
    28b0:	0300746e 	movweq	r7, #1134	; 0x46e
    28b4:	000008ad 	andeq	r0, r0, sp, lsr #17
    28b8:	3817d103 	ldmdacc	r7, {r0, r1, r8, ip, lr, pc}
    28bc:	04000000 	streq	r0, [r0], #-0
    28c0:	00ae0704 	adceq	r0, lr, r4, lsl #14
    28c4:	01040000 	mrseq	r0, (UNDEF: 4)
    28c8:	00000a06 	andeq	r0, r0, r6, lsl #20
    28cc:	05020400 	streq	r0, [r2, #-1024]	; 0xfffffc00
    28d0:	000000fd 	strdeq	r0, [r0], -sp
    28d4:	e8050404 	stmda	r5, {r2, sl}
    28d8:	04000000 	streq	r0, [r0], #-0
    28dc:	00e30508 	rsceq	r0, r3, r8, lsl #10
    28e0:	01040000 	mrseq	r0, (UNDEF: 4)
    28e4:	00000808 	andeq	r0, r0, r8, lsl #16
    28e8:	005b0500 	subseq	r0, fp, r0, lsl #10
    28ec:	02040000 	andeq	r0, r4, #0, 0
    28f0:	00002307 	andeq	r2, r0, r7, lsl #6
    28f4:	07040400 	streq	r0, [r4, -r0, lsl #8]
    28f8:	000000a9 	andeq	r0, r0, r9, lsr #1
    28fc:	a4070804 	strge	r0, [r7], #-2052	; 0xfffff7fc
    2900:	06000000 	streq	r0, [r0], -r0
    2904:	00000025 	andeq	r0, r0, r5, lsr #32
    2908:	0000008b 	andeq	r0, r0, fp, lsl #1
    290c:	00002507 	andeq	r2, r0, r7, lsl #10
    2910:	f1080000 	cpsie	
    2914:	02000000 	andeq	r0, r0, #0, 0
    2918:	00970e1c 	addseq	r0, r7, ip, lsl lr
    291c:	04090000 	streq	r0, [r9], #-0
    2920:	0000007c 	andeq	r0, r0, ip, ror r0
    2924:	00002506 	andeq	r2, r0, r6, lsl #10
    2928:	0000ac00 	andeq	sl, r0, r0, lsl #24
    292c:	00ac0700 	adceq	r0, ip, r0, lsl #14
    2930:	09000000 	stmdbeq	r0, {}	; <UNPREDICTABLE>
    2934:	0000b904 	andeq	fp, r0, r4, lsl #18
    2938:	08010400 	stmdaeq	r1, {sl}
    293c:	00000011 	andeq	r0, r0, r1, lsl r0
    2940:	0000b205 	andeq	fp, r0, r5, lsl #4
    2944:	03de0800 	bicseq	r0, lr, #0, 16
    2948:	21020000 	mrscs	r0, (UNDEF: 2)
    294c:	0000ca0e 	andeq	ip, r0, lr, lsl #20
    2950:	9d040900 	vstrls.16	s0, [r4, #-0]	; <UNPREDICTABLE>
    2954:	0a000000 	beq	295c <__code_start__-0x56a4>
    2958:	000004e8 	andeq	r0, r0, r8, ror #9
    295c:	25050401 	strcs	r0, [r5, #-1025]	; 0xfffffbff
    2960:	50000000 	andpl	r0, r0, r0
    2964:	2c000091 	stccs	0, cr0, [r0], {145}	; 0x91
    2968:	01000000 	mrseq	r0, (UNDEF: 0)
    296c:	00014b9c 	muleq	r1, ip, fp
    2970:	735f0b00 	cmpvc	pc, #0, 22
    2974:	04010031 	streq	r0, [r1], #-49	; 0xffffffcf
    2978:	0000ac19 	andeq	sl, r0, r9, lsl ip
    297c:	0010ac00 	andseq	sl, r0, r0, lsl #24
    2980:	0010a800 	andseq	sl, r0, r0, lsl #16
    2984:	735f0b00 	cmpvc	pc, #0, 22
    2988:	04010032 	streq	r0, [r1], #-50	; 0xffffffce
    298c:	0000ac2a 	andeq	sl, r0, sl, lsr #24
    2990:	0010d100 	andseq	sp, r0, r0, lsl #2
    2994:	0010cd00 	andseq	ip, r0, r0, lsl #26
    2998:	006e0b00 	rsbeq	r0, lr, r0, lsl #22
    299c:	2c360401 	cfldrscs	mvf0, [r6], #-4
    29a0:	f8000000 			; <UNDEFINED> instruction: 0xf8000000
    29a4:	f2000010 	vqadd.s8	d0, d0, d0
    29a8:	0c000010 	stceq	0, cr0, [r0], {16}
    29ac:	01003173 	tsteq	r0, r3, ror r1
    29b0:	014b1a05 	cmpeq	fp, r5, lsl #20
    29b4:	112b0000 			; <UNDEFINED> instruction: 0x112b0000
    29b8:	11230000 			; <UNDEFINED> instruction: 0x11230000
    29bc:	730c0000 	movwvc	r0, #49152	; 0xc000
    29c0:	05010032 	streq	r0, [r1, #-50]	; 0xffffffce
    29c4:	00014b2c 	andeq	r4, r1, ip, lsr #22
    29c8:	00116700 	andseq	r6, r1, r0, lsl #14
    29cc:	00116100 	andseq	r6, r1, r0, lsl #2
    29d0:	04090000 	streq	r0, [r9], #-0
    29d4:	00000062 	andeq	r0, r0, r2, rrx
    29d8:	0000ce00 	andeq	ip, r0, r0, lsl #28
    29dc:	52000400 	andpl	r0, r0, #0, 8
    29e0:	04000011 	streq	r0, [r0], #-17	; 0xffffffef
    29e4:	00025c01 	andeq	r5, r2, r1, lsl #24
    29e8:	08c50c00 	stmiaeq	r5, {sl, fp}^
    29ec:	032b0000 			; <UNDEFINED> instruction: 0x032b0000
    29f0:	917c0000 	cmnls	ip, r0
    29f4:	00040000 	andeq	r0, r4, r0
    29f8:	18980000 	ldmne	r8, {}	; <UNPREDICTABLE>
    29fc:	04020000 	streq	r0, [r2], #-0
    2a00:	746e6905 	strbtvc	r6, [lr], #-2309	; 0xfffff6fb
    2a04:	07040300 	streq	r0, [r4, -r0, lsl #6]
    2a08:	000000ae 	andeq	r0, r0, lr, lsr #1
    2a0c:	0a060103 	beq	182e20 <__bss_end__+0x179500>
    2a10:	03000000 	movweq	r0, #0
    2a14:	00fd0502 	rscseq	r0, sp, r2, lsl #10
    2a18:	04030000 	streq	r0, [r3], #-0
    2a1c:	0000e805 	andeq	lr, r0, r5, lsl #16
    2a20:	05080300 	streq	r0, [r8, #-768]	; 0xfffffd00
    2a24:	000000e3 	andeq	r0, r0, r3, ror #1
    2a28:	08080103 	stmdaeq	r8, {r0, r1, r8}
    2a2c:	03000000 	movweq	r0, #0
    2a30:	00230702 	eoreq	r0, r3, r2, lsl #14
    2a34:	04030000 	streq	r0, [r3], #-0
    2a38:	0000a907 	andeq	sl, r0, r7, lsl #18
    2a3c:	07080300 	streq	r0, [r8, -r0, lsl #6]
    2a40:	000000a4 	andeq	r0, r0, r4, lsr #1
    2a44:	00002504 	andeq	r2, r0, r4, lsl #10
    2a48:	00007a00 	andeq	r7, r0, r0, lsl #20
    2a4c:	00250500 	eoreq	r0, r5, r0, lsl #10
    2a50:	06000000 	streq	r0, [r0], -r0
    2a54:	000000f1 	strdeq	r0, [r0], -r1
    2a58:	860e1c02 	strhi	r1, [lr], -r2, lsl #24
    2a5c:	07000000 	streq	r0, [r0, -r0]
    2a60:	00006b04 	andeq	r6, r0, r4, lsl #22
    2a64:	00250400 	eoreq	r0, r5, r0, lsl #8
    2a68:	009b0000 	addseq	r0, fp, r0
    2a6c:	9b050000 	blls	142a74 <__bss_end__+0x139154>
    2a70:	00000000 	andeq	r0, r0, r0
    2a74:	00a80407 	adceq	r0, r8, r7, lsl #8
    2a78:	01030000 	mrseq	r0, (UNDEF: 3)
    2a7c:	00001108 	andeq	r1, r0, r8, lsl #2
    2a80:	00a10800 	adceq	r0, r1, r0, lsl #16
    2a84:	de060000 	cdple	0, 0, cr0, cr6, cr0, {0}
    2a88:	02000003 	andeq	r0, r0, #3, 0
    2a8c:	00b90e21 	adcseq	r0, r9, r1, lsr #28
    2a90:	04070000 	streq	r0, [r7], #-0
    2a94:	0000008c 	andeq	r0, r0, ip, lsl #1
    2a98:	00058f09 	andeq	r8, r5, r9, lsl #30
    2a9c:	06030100 	streq	r0, [r3], -r0, lsl #2
    2aa0:	0000917c 	andeq	r9, r0, ip, ror r1
    2aa4:	00000004 	andeq	r0, r0, r4
    2aa8:	a5009c01 	strge	r9, [r0, #-3073]	; 0xfffff3ff
    2aac:	04000003 	streq	r0, [r0], #-3
    2ab0:	0011cb00 	andseq	ip, r1, r0, lsl #22
    2ab4:	70010400 	andvc	r0, r1, r0, lsl #8
    2ab8:	0c000007 	stceq	0, cr0, [r0], {7}
    2abc:	00000969 	andeq	r0, r0, r9, ror #18
    2ac0:	00000720 	andeq	r0, r0, r0, lsr #14
    2ac4:	00009198 	muleq	r0, r8, r1
    2ac8:	0000011c 	andeq	r0, r0, ip, lsl r1
    2acc:	0000193e 	andeq	r1, r0, lr, lsr r9
    2ad0:	69050402 	stmdbvs	r5, {r1, sl}
    2ad4:	0300746e 	movweq	r7, #1134	; 0x46e
    2ad8:	00ae0704 	adceq	r0, lr, r4, lsl #14
    2adc:	2c040000 	stccs	0, cr0, [r4], {-0}
    2ae0:	03000000 	movweq	r0, #0
    2ae4:	000a0601 	andeq	r0, sl, r1, lsl #12
    2ae8:	02030000 	andeq	r0, r3, #0, 0
    2aec:	0000fd05 	andeq	pc, r0, r5, lsl #26
    2af0:	05040300 	streq	r0, [r4, #-768]	; 0xfffffd00
    2af4:	000000e8 	andeq	r0, r0, r8, ror #1
    2af8:	e3050803 	movw	r0, #22531	; 0x5803
    2afc:	03000000 	movweq	r0, #0
    2b00:	00080801 	andeq	r0, r8, r1, lsl #16
    2b04:	02030000 	andeq	r0, r3, #0, 0
    2b08:	00002307 	andeq	r2, r0, r7, lsl #6
    2b0c:	04680500 	strbteq	r0, [r8], #-1280	; 0xfffffb00
    2b10:	34030000 	strcc	r0, [r3], #-0
    2b14:	00006e19 	andeq	r6, r0, r9, lsl lr
    2b18:	07040300 	streq	r0, [r4, -r0, lsl #6]
    2b1c:	000000a9 	andeq	r0, r0, r9, lsr #1
    2b20:	a4070803 	strge	r0, [r7], #-2051	; 0xfffff7fd
    2b24:	03000000 	movweq	r0, #0
    2b28:	00110801 	andseq	r0, r1, r1, lsl #16
    2b2c:	07060000 	streq	r0, [r6, -r0]
    2b30:	00005401 	andeq	r5, r0, r1, lsl #8
    2b34:	0e0c0400 	cfcpyseq	mvf0, mvf12
    2b38:	000000c2 	andeq	r0, r0, r2, asr #1
    2b3c:	00085007 	andeq	r5, r8, r7
    2b40:	8d070000 	stchi	0, cr0, [r7, #-0]
    2b44:	01000006 	tsteq	r0, r6
    2b48:	0006d507 	andeq	sp, r6, r7, lsl #10
    2b4c:	e4070400 	str	r0, [r7], #-1024	; 0xfffffc00
    2b50:	05000006 	streq	r0, [r0, #-6]
    2b54:	0006f307 	andeq	pc, r6, r7, lsl #6
    2b58:	02070600 	andeq	r0, r7, #0, 12
    2b5c:	07000007 	streq	r0, [r0, -r7]
    2b60:	00082307 	andeq	r2, r8, r7, lsl #6
    2b64:	11070300 	mrsne	r0, SP_und
    2b68:	02000007 	andeq	r0, r0, #7, 0
    2b6c:	094e0500 	stmdbeq	lr, {r8, sl}^
    2b70:	15040000 	strne	r0, [r4, #-0]
    2b74:	00008303 	andeq	r8, r0, r3, lsl #6
    2b78:	08f40800 	ldmeq	r4!, {fp}^
    2b7c:	1d010000 	stcne	0, cr0, [r1, #-0]
    2b80:	00003317 	andeq	r3, r0, r7, lsl r3
    2b84:	20001c00 	andcs	r1, r0, r0, lsl #24
    2b88:	08ea0820 	stmiaeq	sl!, {r5, fp}^
    2b8c:	1e010000 	cdpne	0, 0, cr0, cr1, cr0, {0}
    2b90:	00003317 	andeq	r3, r0, r7, lsl r3
    2b94:	20002800 	andcs	r2, r0, r0, lsl #16
    2b98:	095a0820 	ldmdbeq	sl, {r5, fp}^
    2b9c:	1f010000 	svcne	0x00010000
    2ba0:	00003317 	andeq	r3, r0, r7, lsl r3
    2ba4:	20003400 	andcs	r3, r0, r0, lsl #8
    2ba8:	09130920 	ldmdbeq	r3, {r5, r8, fp}
    2bac:	55010000 	strpl	r0, [r1, #-0]
    2bb0:	00002505 	andeq	r2, r0, r5, lsl #10
    2bb4:	00928000 	addseq	r8, r2, r0
    2bb8:	00003400 	andeq	r3, r0, r0, lsl #8
    2bbc:	6e9c0100 	fmlvse	f0, f4, f0
    2bc0:	0a000001 	beq	2bcc <__code_start__-0x5434>
    2bc4:	006e6970 	rsbeq	r6, lr, r0, ror r9
    2bc8:	2c185501 	cfldr32cs	mvfx5, [r8], {1}
    2bcc:	9a000000 	bls	2bd4 <__code_start__-0x542c>
    2bd0:	92000011 	andls	r0, r0, #17, 0
    2bd4:	0b000011 	bleq	2c20 <__code_start__-0x53e0>
    2bd8:	00000964 	andeq	r0, r0, r4, ror #18
    2bdc:	2c0e5801 	stccs	8, cr5, [lr], {1}
    2be0:	da000000 	ble	2be8 <__code_start__-0x5418>
    2be4:	d4000011 	strle	r0, [r0], #-17	; 0xffffffef
    2be8:	0c000011 	stceq	0, cr0, [r0], {17}
    2bec:	0066666f 	rsbeq	r6, r6, pc, ror #12
    2bf0:	2c0e5901 			; <UNDEFINED> instruction: 0x2c0e5901
    2bf4:	1a000000 	bne	2bfc <__code_start__-0x5404>
    2bf8:	18000012 	stmdane	r0, {r1, r4}
    2bfc:	0d000012 	stceq	0, cr0, [r0, #-72]	; 0xffffffb8
    2c00:	0000929c 	muleq	r0, ip, r2
    2c04:	00000390 	muleq	r0, r0, r3
    2c08:	0b50010e 	bleq	1403048 <__bss_end__+0x13f9728>
    2c0c:	355001f3 	ldrbcc	r0, [r0, #-499]	; 0xfffffe0d
    2c10:	80b42325 	adcshi	r2, r4, r5, lsr #6
    2c14:	00028180 	andeq	r8, r2, r0, lsl #3
    2c18:	08fe0f00 	ldmeq	lr!, {r8, r9, sl, fp}^
    2c1c:	4e010000 	cdpmi	0, 0, cr0, cr1, cr0, {0}
    2c20:	00926406 	addseq	r6, r2, r6, lsl #8
    2c24:	00001c00 	andeq	r1, r0, r0, lsl #24
    2c28:	c99c0100 	ldmibgt	ip, {r8}
    2c2c:	0a000001 	beq	2c38 <__code_start__-0x53c8>
    2c30:	006e6970 	rsbeq	r6, lr, r0, ror r9
    2c34:	2c1a4e01 	ldccs	14, cr4, [sl], {1}
    2c38:	35000000 	strcc	r0, [r0, #-0]
    2c3c:	2d000012 	stccs	0, cr0, [r0, #-72]	; 0xffffffb8
    2c40:	0a000012 	beq	2c90 <__code_start__-0x5370>
    2c44:	4e010076 	mcrmi	0, 0, r0, cr1, cr6, {3}
    2c48:	00002c28 	andeq	r2, r0, r8, lsr #24
    2c4c:	00127700 	andseq	r7, r2, r0, lsl #14
    2c50:	00126f00 	andseq	r6, r2, r0, lsl #30
    2c54:	92741000 	rsbsls	r1, r4, #0, 0
    2c58:	02510000 	subseq	r0, r1, #0, 0
    2c5c:	01bf0000 			; <UNDEFINED> instruction: 0x01bf0000
    2c60:	010e0000 	mrseq	r0, (UNDEF: 14)
    2c64:	01f30350 	mvnseq	r0, r0, asr r3
    2c68:	7c110050 	ldcvc	0, cr0, [r1], {80}	; 0x50
    2c6c:	0a000092 	beq	2ebc <__code_start__-0x5144>
    2c70:	00000002 	andeq	r0, r0, r2
    2c74:	00091d0f 	andeq	r1, r9, pc, lsl #26
    2c78:	06490100 	strbeq	r0, [r9], -r0, lsl #2
    2c7c:	00009254 	andeq	r9, r0, r4, asr r2
    2c80:	00000010 	andeq	r0, r0, r0, lsl r0
    2c84:	020a9c01 	andeq	r9, sl, #256	; 0x100
    2c88:	700a0000 	andvc	r0, sl, r0
    2c8c:	01006e69 	tsteq	r0, r9, ror #28
    2c90:	002c1e49 	eoreq	r1, ip, r9, asr #28
    2c94:	12b50000 	adcsne	r0, r5, #0, 0
    2c98:	12b10000 	adcsne	r0, r1, #0, 0
    2c9c:	600d0000 	andvs	r0, sp, r0
    2ca0:	d9000092 	stmdble	r0, {r1, r4, r7}
    2ca4:	0e000002 	cdpeq	0, 0, cr0, cr0, cr2, {0}
    2ca8:	f3035001 	vhadd.u8	d5, d3, d1
    2cac:	010e5001 	tsteq	lr, r1
    2cb0:	00300151 	eorseq	r0, r0, r1, asr r1
    2cb4:	092c0f00 	stmdbeq	ip!, {r8, r9, sl, fp}
    2cb8:	42010000 	andmi	r0, r1, #0, 0
    2cbc:	00923006 	addseq	r3, r2, r6
    2cc0:	00002400 	andeq	r2, r0, r0, lsl #8
    2cc4:	519c0100 	orrspl	r0, ip, r0, lsl #2
    2cc8:	0a000002 	beq	2cd8 <__code_start__-0x5328>
    2ccc:	006e6970 	rsbeq	r6, lr, r0, ror r9
    2cd0:	2c1c4201 	lfmcs	f4, 4, [ip], {1}
    2cd4:	da000000 	ble	2cdc <__code_start__-0x5324>
    2cd8:	d6000012 			; <UNDEFINED> instruction: 0xd6000012
    2cdc:	0d000012 	stceq	0, cr0, [r0, #-72]	; 0xffffffb8
    2ce0:	0000924c 	andeq	r9, r0, ip, asr #4
    2ce4:	0000039c 	muleq	r0, ip, r3
    2ce8:	0550010e 	ldrbeq	r0, [r0, #-270]	; 0xfffffef2
    2cec:	2000280c 	andcs	r2, r0, ip, lsl #16
    2cf0:	51010e20 	tstpl	r1, r0, lsr #28
    2cf4:	01f33105 	mvnseq	r3, r5, lsl #2
    2cf8:	00002450 	andeq	r2, r0, r0, asr r4
    2cfc:	0009700f 	andeq	r7, r9, pc
    2d00:	063b0100 	ldrteq	r0, [fp], -r0, lsl #2
    2d04:	0000920c 	andeq	r9, r0, ip, lsl #4
    2d08:	00000024 	andeq	r0, r0, r4, lsr #32
    2d0c:	02989c01 	addseq	r9, r8, #256	; 0x100
    2d10:	700a0000 	andvc	r0, sl, r0
    2d14:	01006e69 	tsteq	r0, r9, ror #28
    2d18:	002c1b3b 	eoreq	r1, ip, fp, lsr fp
    2d1c:	12ff0000 	rscsne	r0, pc, #0, 0
    2d20:	12fb0000 	rscsne	r0, fp, #0, 0
    2d24:	280d0000 	stmdacs	sp, {}	; <UNPREDICTABLE>
    2d28:	9c000092 	stcls	0, cr0, [r0], {146}	; 0x92
    2d2c:	0e000003 	cdpeq	0, 0, cr0, cr0, cr3, {0}
    2d30:	0c055001 	stceq	0, cr5, [r5], {1}
    2d34:	2020001c 	eorcs	r0, r0, ip, lsl r0
    2d38:	0551010e 	ldrbeq	r0, [r1, #-270]	; 0xfffffef2
    2d3c:	5001f331 	andpl	pc, r1, r1, lsr r3	; <UNPREDICTABLE>
    2d40:	0f000024 	svceq	0x00000024
    2d44:	00000939 	andeq	r0, r0, r9, lsr r9
    2d48:	fc063601 	stc2	6, cr3, [r6], {1}
    2d4c:	10000091 	mulne	r0, r1, r0
    2d50:	01000000 	mrseq	r0, (UNDEF: 0)
    2d54:	0002d99c 	muleq	r2, ip, r9
    2d58:	69700a00 	ldmdbvs	r0!, {r9, fp}^
    2d5c:	3601006e 	strcc	r0, [r1], -lr, rrx
    2d60:	00002c1f 	andeq	r2, r0, pc, lsl ip
    2d64:	00132400 	andseq	r2, r3, r0, lsl #8
    2d68:	00132000 	andseq	r2, r3, r0
    2d6c:	92080d00 	andls	r0, r8, #0, 26
    2d70:	02d90000 	sbcseq	r0, r9, #0, 0
    2d74:	010e0000 	mrseq	r0, (UNDEF: 14)
    2d78:	01f30350 	mvnseq	r0, r0, asr r3
    2d7c:	51010e50 	tstpl	r1, r0, asr lr
    2d80:	00003101 	andeq	r3, r0, r1, lsl #2
    2d84:	0008600f 	andeq	r6, r8, pc
    2d88:	06280100 	strteq	r0, [r8], -r0, lsl #2
    2d8c:	00009198 	muleq	r0, r8, r1
    2d90:	00000064 	andeq	r0, r0, r4, rrx
    2d94:	03749c01 	cmneq	r4, #256	; 0x100
    2d98:	700a0000 	andvc	r0, sl, r0
    2d9c:	01006e69 	tsteq	r0, r9, ror #28
    2da0:	002c2128 	eoreq	r2, ip, r8, lsr #2
    2da4:	13490000 	movtne	r0, #36864	; 0x9000
    2da8:	13450000 	movtne	r0, #20480	; 0x5000
    2dac:	49120000 	ldmdbmi	r2, {}	; <UNPREDICTABLE>
    2db0:	01000009 	tsteq	r0, r9
    2db4:	00c23228 	sbceq	r3, r2, r8, lsr #4
    2db8:	136e0000 	cmnne	lr, #0, 0
    2dbc:	136a0000 	cmnne	sl, #0, 0
    2dc0:	6f0c0000 	svcvs	0x000c0000
    2dc4:	01006666 	tsteq	r0, r6, ror #12
    2dc8:	002c0e2d 	eoreq	r0, ip, sp, lsr #28
    2dcc:	13910000 	orrsne	r0, r1, #0, 0
    2dd0:	138f0000 	orrne	r0, pc, #0, 0
    2dd4:	670c0000 	strvs	r0, [ip, -r0]
    2dd8:	0e2e0100 	sufeqe	f0, f6, f0
    2ddc:	0000002c 	andeq	r0, r0, ip, lsr #32
    2de0:	000013a6 	andeq	r1, r0, r6, lsr #7
    2de4:	000013a4 	andeq	r1, r0, r4, lsr #7
    2de8:	0100760c 	tsteq	r0, ip, lsl #12
    2dec:	002c0e30 	eoreq	r0, ip, r0, lsr lr
    2df0:	13c10000 	bicne	r0, r1, #0, 0
    2df4:	13b90000 			; <UNDEFINED> instruction: 0x13b90000
    2df8:	e0100000 	ands	r0, r0, r0
    2dfc:	90000091 	mulls	r0, r1, r0
    2e00:	63000003 	movwvs	r0, #3
    2e04:	0e000003 	cdpeq	0, 0, cr0, cr0, cr3, {0}
    2e08:	76025001 	strvc	r5, [r2], -r1
    2e0c:	f40d0000 	vst4.8	{d0-d3}, [sp], r0
    2e10:	9c000091 	stcls	0, cr0, [r0], {145}	; 0x91
    2e14:	0e000003 	cdpeq	0, 0, cr0, cr0, cr3, {0}
    2e18:	76025001 	strvc	r5, [r2], -r1
    2e1c:	13000000 	movwne	r0, #0
    2e20:	00000909 	andeq	r0, r0, r9, lsl #18
    2e24:	6218b602 	andsvs	fp, r8, #2097152	; 0x200000
    2e28:	03000000 	movweq	r0, #0
    2e2c:	00000390 	muleq	r0, r0, r3
    2e30:	02007814 	andeq	r7, r0, #20, 16	; 0x140000
    2e34:	00622bb6 	strhteq	r2, [r2], #-182	; 0xffffff4a
    2e38:	15000000 	strne	r0, [r0, #-0]
    2e3c:	0000063a 	andeq	r0, r0, sl, lsr r6
    2e40:	0000063a 	andeq	r0, r0, sl, lsr r6
    2e44:	150ac702 	strne	ip, [sl, #-1794]	; 0xfffff8fe
    2e48:	000005a6 	andeq	r0, r0, r6, lsr #11
    2e4c:	000005a6 	andeq	r0, r0, r6, lsr #11
    2e50:	0006b202 	andeq	fp, r6, r2, lsl #4

Disassembly of section .debug_abbrev:

00000000 <.debug_abbrev>:
       0:	25011101 	strcs	r1, [r1, #-257]	; 0xfffffeff
       4:	030b130e 	movweq	r1, #45838	; 0xb30e
       8:	110e1b0e 	tstne	lr, lr, lsl #22
       c:	10061201 	andne	r1, r6, r1, lsl #4
      10:	02000017 	andeq	r0, r0, #23, 0
      14:	0b0b0024 	bleq	2c00ac <__bss_end__+0x2b678c>
      18:	08030b3e 	stmdaeq	r3, {r1, r2, r3, r4, r5, r8, r9, fp}
      1c:	24030000 	strcs	r0, [r3], #-0
      20:	3e0b0b00 	vmlacc.f64	d0, d11, d0
      24:	000e030b 	andeq	r0, lr, fp, lsl #6
      28:	00160400 	andseq	r0, r6, r0, lsl #8
      2c:	0b3a0e03 	bleq	e83840 <__bss_end__+0xe79f20>
      30:	0b390b3b 	bleq	e42d24 <__bss_end__+0xe39404>
      34:	00001349 	andeq	r1, r0, r9, asr #6
      38:	27011505 	strcs	r1, [r1, -r5, lsl #10]
      3c:	01134919 	tsteq	r3, r9, lsl r9
      40:	06000013 			; <UNDEFINED> instruction: 0x06000013
      44:	13490005 	movtne	r0, #36869	; 0x9005
      48:	34070000 	strcc	r0, [r7], #-0
      4c:	3a0e0300 	bcc	380c54 <__bss_end__+0x377334>
      50:	390b3b0b 	stmdbcc	fp, {r0, r1, r3, r8, r9, fp, ip, sp}
      54:	3f13490b 	svccc	0x0013490b
      58:	00193c19 	andseq	r3, r9, r9, lsl ip
      5c:	000f0800 	andeq	r0, pc, r0, lsl #16
      60:	13490b0b 	movtne	r0, #39691	; 0x9b0b
      64:	26090000 	strcs	r0, [r9], -r0
      68:	00134900 	andseq	r4, r3, r0, lsl #18
      6c:	012e0a00 			; <UNDEFINED> instruction: 0x012e0a00
      70:	0e03193f 			; <UNDEFINED> instruction: 0x0e03193f
      74:	0b3b0b3a 	bleq	ec2d64 <__bss_end__+0xeb9444>
      78:	19270b39 	stmdbne	r7!, {r0, r3, r4, r5, r8, r9, fp}
      7c:	06120111 			; <UNDEFINED> instruction: 0x06120111
      80:	42971840 	addsmi	r1, r7, #64, 16	; 0x400000
      84:	00130119 	andseq	r0, r3, r9, lsl r1
      88:	00340b00 	eorseq	r0, r4, r0, lsl #22
      8c:	0b3a0803 	bleq	e820a0 <__bss_end__+0xe78780>
      90:	0b390b3b 	bleq	e42d84 <__bss_end__+0xe39464>
      94:	0b1c1349 	bleq	704dc0 <__bss_end__+0x6fb4a0>
      98:	340c0000 	strcc	r0, [ip], #-0
      9c:	3a080300 	bcc	200ca4 <__bss_end__+0x1f7384>
      a0:	390b3b0b 	stmdbcc	fp, {r0, r1, r3, r8, r9, fp, ip, sp}
      a4:	0213490b 	andseq	r4, r3, #180224	; 0x2c000
      a8:	1742b717 	smlaldne	fp, r2, r7, r7
      ac:	340d0000 	strcc	r0, [sp], #-0
      b0:	3a0e0300 	bcc	380cb8 <__bss_end__+0x377398>
      b4:	390b3b0b 	stmdbcc	fp, {r0, r1, r3, r8, r9, fp, ip, sp}
      b8:	1c13490b 			; <UNDEFINED> instruction: 0x1c13490b
      bc:	0e00000b 	cdpeq	0, 0, cr0, cr0, cr11, {0}
      c0:	0e030034 	mcreq	0, 0, r0, cr3, cr4, {1}
      c4:	19341349 	ldmdbne	r4!, {r0, r3, r6, r8, r9, ip}
      c8:	00001802 	andeq	r1, r0, r2, lsl #16
      cc:	11010b0f 	tstne	r1, pc, lsl #22
      d0:	01061201 	tsteq	r6, r1, lsl #4
      d4:	10000013 	andne	r0, r0, r3, lsl r0
      d8:	1755010b 	ldrbne	r0, [r5, -fp, lsl #2]
      dc:	89110000 	ldmdbhi	r1, {}	; <UNPREDICTABLE>
      e0:	11010182 	smlabbne	r1, r2, r1, r0
      e4:	01133101 	tsteq	r3, r1, lsl #2
      e8:	12000013 	andne	r0, r0, #19, 0
      ec:	0001828a 	andeq	r8, r1, sl, lsl #5
      f0:	42911802 	addsmi	r1, r1, #131072	; 0x20000
      f4:	13000018 	movwne	r0, #24
      f8:	00018289 	andeq	r8, r1, r9, lsl #5
      fc:	13310111 	teqne	r1, #1073741828	; 0x40000004
     100:	89140000 	ldmdbhi	r4, {}	; <UNPREDICTABLE>
     104:	11010182 	smlabbne	r1, r2, r1, r0
     108:	00133101 	andseq	r3, r3, r1, lsl #2
     10c:	000f1500 	andeq	r1, pc, r0, lsl #10
     110:	00000b0b 	andeq	r0, r0, fp, lsl #22
     114:	49010116 	stmdbmi	r1, {r1, r2, r4, r8}
     118:	00130113 	andseq	r0, r3, r3, lsl r1
     11c:	00211700 	eoreq	r1, r1, r0, lsl #14
     120:	0b2f1349 	bleq	bc4e4c <__bss_end__+0xbbb52c>
     124:	2e180000 	cdpcs	0, 1, cr0, cr8, cr0, {0}
     128:	3a0e0301 	bcc	380d34 <__bss_end__+0x377414>
     12c:	390b3b0b 	stmdbcc	fp, {r0, r1, r3, r8, r9, fp, ip, sp}
     130:	4919270b 	ldmdbmi	r9, {r0, r1, r3, r8, r9, sl, sp}
     134:	12011113 	andne	r1, r1, #-1073741820	; 0xc0000004
     138:	97184006 	ldrls	r4, [r8, -r6]
     13c:	13011942 	movwne	r1, #6466	; 0x1942
     140:	05190000 	ldreq	r0, [r9, #-0]
     144:	3a080300 	bcc	200d4c <__bss_end__+0x1f742c>
     148:	390b3b0b 	stmdbcc	fp, {r0, r1, r3, r8, r9, fp, ip, sp}
     14c:	0213490b 	andseq	r4, r3, #180224	; 0x2c000
     150:	1742b717 	smlaldne	fp, r2, r7, r7
     154:	341a0000 	ldrcc	r0, [sl], #-0
     158:	3a0e0300 	bcc	380d60 <__bss_end__+0x377440>
     15c:	390b3b0b 	stmdbcc	fp, {r0, r1, r3, r8, r9, fp, ip, sp}
     160:	0213490b 	andseq	r4, r3, #180224	; 0x2c000
     164:	1742b717 	smlaldne	fp, r2, r7, r7
     168:	2e1b0000 	cdpcs	0, 1, cr0, cr11, cr0, {0}
     16c:	3c193f00 	ldccc	15, cr3, [r9], {-0}
     170:	030e6e19 	movweq	r6, #60953	; 0xee19
     174:	3b0b3a0e 	blcc	2ce9b4 <__bss_end__+0x2c5094>
     178:	000b390b 	andeq	r3, fp, fp, lsl #18
     17c:	11010000 	mrsne	r0, (UNDEF: 1)
     180:	130e2501 	movwne	r2, #58625	; 0xe501
     184:	1b0e030b 	blne	380db8 <__bss_end__+0x377498>
     188:	1201110e 	andne	r1, r1, #-2147483645	; 0x80000003
     18c:	00171006 	andseq	r1, r7, r6
     190:	00240200 	eoreq	r0, r4, r0, lsl #4
     194:	0b3e0b0b 	bleq	f82dc8 <__bss_end__+0xf794a8>
     198:	00000803 	andeq	r0, r0, r3, lsl #16
     19c:	0b002403 	bleq	91b0 <gpio_set_function+0x18>
     1a0:	030b3e0b 	movweq	r3, #48651	; 0xbe0b
     1a4:	0400000e 	streq	r0, [r0], #-14
     1a8:	19270115 	stmdbne	r7!, {r0, r2, r4, r8}
     1ac:	13011349 	movwne	r1, #4937	; 0x1349
     1b0:	05050000 	streq	r0, [r5, #-0]
     1b4:	00134900 	andseq	r4, r3, r0, lsl #18
     1b8:	00340600 	eorseq	r0, r4, r0, lsl #12
     1bc:	0b3a0e03 	bleq	e839d0 <__bss_end__+0xe7a0b0>
     1c0:	0b390b3b 	bleq	e42eb4 <__bss_end__+0xe39594>
     1c4:	193f1349 	ldmdbne	pc!, {r0, r3, r6, r8, r9, ip}	; <UNPREDICTABLE>
     1c8:	0000193c 	andeq	r1, r0, ip, lsr r9
     1cc:	0b000f07 	bleq	3df0 <__code_start__-0x4210>
     1d0:	0013490b 	andseq	r4, r3, fp, lsl #18
     1d4:	00260800 	eoreq	r0, r6, r0, lsl #16
     1d8:	00001349 	andeq	r1, r0, r9, asr #6
     1dc:	0b011309 	bleq	44e08 <__bss_end__+0x3b4e8>
     1e0:	3b0b3a0b 	blcc	2cea14 <__bss_end__+0x2c50f4>
     1e4:	010b390b 	tsteq	fp, fp, lsl #18
     1e8:	0a000013 	beq	23c <__code_start__-0x7dc4>
     1ec:	0803000d 	stmdaeq	r3, {r0, r2, r3}
     1f0:	0b3b0b3a 	bleq	ec2ee0 <__bss_end__+0xeb95c0>
     1f4:	13490b39 	movtne	r0, #39737	; 0x9b39
     1f8:	00000b38 	andeq	r0, r0, r8, lsr fp
     1fc:	03000d0b 	movweq	r0, #3339	; 0xd0b
     200:	3b0b3a0e 	blcc	2cea40 <__bss_end__+0x2c5120>
     204:	490b390b 	stmdbmi	fp, {r0, r1, r3, r8, fp, ip, sp}
     208:	000b3813 	andeq	r3, fp, r3, lsl r8
     20c:	01170c00 	tsteq	r7, r0, lsl #24
     210:	0b0b0e03 	bleq	2c3a24 <__bss_end__+0x2ba104>
     214:	0b3b0b3a 	bleq	ec2f04 <__bss_end__+0xeb95e4>
     218:	13010b39 	movwne	r0, #6969	; 0x1b39
     21c:	0d0d0000 	stceq	0, cr0, [sp, #-0]
     220:	3a080300 	bcc	200e28 <__bss_end__+0x1f7508>
     224:	390b3b0b 	stmdbcc	fp, {r0, r1, r3, r8, r9, fp, ip, sp}
     228:	0013490b 	andseq	r4, r3, fp, lsl #18
     22c:	00340e00 	eorseq	r0, r4, r0, lsl #28
     230:	0b3a0e03 	bleq	e83a44 <__bss_end__+0xe7a124>
     234:	0b390b3b 	bleq	e42f28 <__bss_end__+0xe39608>
     238:	18021349 	stmdane	r2, {r0, r3, r6, r8, r9, ip}
     23c:	2e0f0000 	cdpcs	0, 0, cr0, cr15, cr0, {0}
     240:	03193f01 	tsteq	r9, #1, 30
     244:	3b0b3a0e 	blcc	2cea84 <__bss_end__+0x2c5164>
     248:	270b390b 	strcs	r3, [fp, -fp, lsl #18]
     24c:	12011119 	andne	r1, r1, #1073741830	; 0x40000006
     250:	97184006 	ldrls	r4, [r8, -r6]
     254:	13011942 	movwne	r1, #6466	; 0x1942
     258:	05100000 	ldreq	r0, [r0, #-0]
     25c:	3a080300 	bcc	200e64 <__bss_end__+0x1f7544>
     260:	390b3b0b 	stmdbcc	fp, {r0, r1, r3, r8, r9, fp, ip, sp}
     264:	0213490b 	andseq	r4, r3, #180224	; 0x2c000
     268:	1742b717 	smlaldne	fp, r2, r7, r7
     26c:	34110000 	ldrcc	r0, [r1], #-0
     270:	3a080300 	bcc	200e78 <__bss_end__+0x1f7558>
     274:	390b3b0b 	stmdbcc	fp, {r0, r1, r3, r8, r9, fp, ip, sp}
     278:	0213490b 	andseq	r4, r3, #180224	; 0x2c000
     27c:	1742b717 	smlaldne	fp, r2, r7, r7
     280:	89120000 	ldmdbhi	r2, {}	; <UNPREDICTABLE>
     284:	11010182 	smlabbne	r1, r2, r1, r0
     288:	01133101 	tsteq	r3, r1, lsl #2
     28c:	13000013 	movwne	r0, #19
     290:	0001828a 	andeq	r8, r1, sl, lsl #5
     294:	42911802 	addsmi	r1, r1, #131072	; 0x20000
     298:	14000018 	strne	r0, [r0], #-24	; 0xffffffe8
     29c:	00018289 	andeq	r8, r1, r9, lsl #5
     2a0:	13310111 	teqne	r1, #1073741828	; 0x40000004
     2a4:	0f150000 	svceq	0x00150000
     2a8:	000b0b00 	andeq	r0, fp, r0, lsl #22
     2ac:	012e1600 			; <UNDEFINED> instruction: 0x012e1600
     2b0:	0e03193f 			; <UNDEFINED> instruction: 0x0e03193f
     2b4:	0b3b0b3a 	bleq	ec2fa4 <__bss_end__+0xeb9684>
     2b8:	19270b39 	stmdbne	r7!, {r0, r3, r4, r5, r8, r9, fp}
     2bc:	01111349 	tsteq	r1, r9, asr #6
     2c0:	18400612 	stmdane	r0, {r1, r4, r9, sl}^
     2c4:	01194297 			; <UNDEFINED> instruction: 0x01194297
     2c8:	17000013 	smladne	r0, r3, r0, r0
     2cc:	0e030005 	cdpeq	0, 0, cr0, cr3, cr5, {0}
     2d0:	0b3b0b3a 	bleq	ec2fc0 <__bss_end__+0xeb96a0>
     2d4:	13490b39 	movtne	r0, #39737	; 0x9b39
     2d8:	42b71702 	adcsmi	r1, r7, #524288	; 0x80000
     2dc:	18000017 	stmdane	r0, {r0, r1, r2, r4}
     2e0:	0e030034 	mcreq	0, 0, r0, cr3, cr4, {1}
     2e4:	0b3b0b3a 	bleq	ec2fd4 <__bss_end__+0xeb96b4>
     2e8:	13490b39 	movtne	r0, #39737	; 0x9b39
     2ec:	42b71702 	adcsmi	r1, r7, #524288	; 0x80000
     2f0:	19000017 	stmdbne	r0, {r0, r1, r2, r4}
     2f4:	01018289 	smlabbeq	r1, r9, r2, r8
     2f8:	13310111 	teqne	r1, #1073741828	; 0x40000004
     2fc:	2e1a0000 	cdpcs	0, 1, cr0, cr10, cr0, {0}
     300:	3a0e0301 	bcc	380f0c <__bss_end__+0x3775ec>
     304:	390b3b0b 	stmdbcc	fp, {r0, r1, r3, r8, r9, fp, ip, sp}
     308:	4919270b 	ldmdbmi	r9, {r0, r1, r3, r8, r9, sl, sp}
     30c:	12011113 	andne	r1, r1, #-1073741820	; 0xc0000004
     310:	97184006 	ldrls	r4, [r8, -r6]
     314:	13011942 	movwne	r1, #6466	; 0x1942
     318:	2e1b0000 	cdpcs	0, 1, cr0, cr11, cr0, {0}
     31c:	03193f01 	tsteq	r9, #1, 30
     320:	3b0b3a0e 	blcc	2ceb60 <__bss_end__+0x2c5240>
     324:	270b390b 	strcs	r3, [fp, -fp, lsl #18]
     328:	01193c19 	tsteq	r9, r9, lsl ip
     32c:	1c000013 	stcne	0, cr0, [r0], {19}
     330:	0e030034 	mcreq	0, 0, r0, cr3, cr4, {1}
     334:	0b3b0b3a 	bleq	ec3024 <__bss_end__+0xeb9704>
     338:	13490b39 	movtne	r0, #39737	; 0x9b39
     33c:	0000061c 	andeq	r0, r0, ip, lsl r6
     340:	03012e1d 	movweq	r2, #7709	; 0x1e1d
     344:	3b0b3a0e 	blcc	2ceb84 <__bss_end__+0x2c5264>
     348:	270b390b 	strcs	r3, [fp, -fp, lsl #18]
     34c:	12011119 	andne	r1, r1, #1073741830	; 0x40000006
     350:	97184006 	ldrls	r4, [r8, -r6]
     354:	13011942 	movwne	r1, #6466	; 0x1942
     358:	341e0000 	ldrcc	r0, [lr], #-0
     35c:	3a080300 	bcc	200f64 <__bss_end__+0x1f7644>
     360:	390b3b0b 	stmdbcc	fp, {r0, r1, r3, r8, r9, fp, ip, sp}
     364:	0213490b 	andseq	r4, r3, #180224	; 0x2c000
     368:	1f000018 	svcne	0x00000018
     36c:	13490101 	movtne	r0, #37121	; 0x9101
     370:	00001301 	andeq	r1, r0, r1, lsl #6
     374:	49002120 	stmdbmi	r0, {r5, r8, sp}
     378:	000b2f13 	andeq	r2, fp, r3, lsl pc
     37c:	012e2100 			; <UNDEFINED> instruction: 0x012e2100
     380:	0b3a0e03 	bleq	e83b94 <__bss_end__+0xe7a274>
     384:	0b390b3b 	bleq	e43078 <__bss_end__+0xe39758>
     388:	01111927 	tsteq	r1, r7, lsr #18
     38c:	18400612 	stmdane	r0, {r1, r4, r9, sl}^
     390:	00194297 	mulseq	r9, r7, r2
     394:	00052200 	andeq	r2, r5, r0, lsl #4
     398:	0b3a0803 	bleq	e823ac <__bss_end__+0xe78a8c>
     39c:	0b390b3b 	bleq	e43090 <__bss_end__+0xe39770>
     3a0:	18021349 	stmdane	r2, {r0, r3, r6, r8, r9, ip}
     3a4:	0b230000 	bleq	8c03ac <__bss_end__+0x8b6a8c>
     3a8:	00175501 	andseq	r5, r7, r1, lsl #10
     3ac:	010b2400 	tsteq	fp, r0, lsl #8
     3b0:	06120111 			; <UNDEFINED> instruction: 0x06120111
     3b4:	01000000 	mrseq	r0, (UNDEF: 0)
     3b8:	0e250111 	mcreq	1, 1, r0, cr5, cr1, {0}
     3bc:	0e030b13 	vmoveq.32	d3[0], r0
     3c0:	01110e1b 	tsteq	r1, fp, lsl lr
     3c4:	17100612 			; <UNDEFINED> instruction: 0x17100612
     3c8:	16020000 	strne	r0, [r2], -r0
     3cc:	3a0e0300 	bcc	380fd4 <__bss_end__+0x3776b4>
     3d0:	390b3b0b 	stmdbcc	fp, {r0, r1, r3, r8, r9, fp, ip, sp}
     3d4:	0013490b 	andseq	r4, r3, fp, lsl #18
     3d8:	01130300 	tsteq	r3, r0, lsl #6
     3dc:	0b0b0e03 	bleq	2c3bf0 <__bss_end__+0x2ba2d0>
     3e0:	0b3b0b3a 	bleq	ec30d0 <__bss_end__+0xeb97b0>
     3e4:	00001301 	andeq	r1, r0, r1, lsl #6
     3e8:	03000d04 	movweq	r0, #3332	; 0xd04
     3ec:	3813490e 	ldmdacc	r3, {r1, r2, r3, r8, fp, lr}
     3f0:	0019340b 	andseq	r3, r9, fp, lsl #8
     3f4:	000f0500 	andeq	r0, pc, r0, lsl #10
     3f8:	00000b0b 	andeq	r0, r0, fp, lsl #22
     3fc:	0b002406 	bleq	941c <__FUNCTION__.3974+0x90>
     400:	030b3e0b 	movweq	r3, #48651	; 0xbe0b
     404:	07000008 	streq	r0, [r0, -r8]
     408:	0b0b0024 	bleq	2c04a0 <__bss_end__+0x2b6b80>
     40c:	0e030b3e 	vmoveq.16	d3[0], r0
     410:	15080000 	strne	r0, [r8, #-0]
     414:	49192701 	ldmdbmi	r9, {r0, r8, r9, sl, sp}
     418:	00130113 	andseq	r0, r3, r3, lsl r1
     41c:	00050900 	andeq	r0, r5, r0, lsl #18
     420:	00001349 	andeq	r1, r0, r9, asr #6
     424:	0300340a 	movweq	r3, #1034	; 0x40a
     428:	3b0b3a0e 	blcc	2cec68 <__bss_end__+0x2c5348>
     42c:	490b390b 	stmdbmi	fp, {r0, r1, r3, r8, fp, ip, sp}
     430:	3c193f13 	ldccc	15, cr3, [r9], {19}
     434:	0b000019 	bleq	4a0 <__code_start__-0x7b60>
     438:	0b0b000f 	bleq	2c047c <__bss_end__+0x2b6b5c>
     43c:	00001349 	andeq	r1, r0, r9, asr #6
     440:	4900260c 	stmdbmi	r0, {r2, r3, r9, sl, sp}
     444:	0d000013 	stceq	0, cr0, [r0, #-76]	; 0xffffffb4
     448:	193f012e 	ldmdbne	pc!, {r1, r2, r3, r5, r8}	; <UNPREDICTABLE>
     44c:	0b3a0e03 	bleq	e83c60 <__bss_end__+0xe7a340>
     450:	0b390b3b 	bleq	e43144 <__bss_end__+0xe39824>
     454:	13491927 	movtne	r1, #39207	; 0x9927
     458:	06120111 			; <UNDEFINED> instruction: 0x06120111
     45c:	42971840 	addsmi	r1, r7, #64, 16	; 0x400000
     460:	00130119 	andseq	r0, r3, r9, lsl r1
     464:	00050e00 	andeq	r0, r5, r0, lsl #28
     468:	0b3a0803 	bleq	e8247c <__bss_end__+0xe78b5c>
     46c:	0b390b3b 	bleq	e43160 <__bss_end__+0xe39840>
     470:	18021349 	stmdane	r2, {r0, r3, r6, r8, r9, ip}
     474:	180f0000 	stmdane	pc, {}	; <UNPREDICTABLE>
     478:	10000000 	andne	r0, r0, r0
     47c:	08030034 	stmdaeq	r3, {r2, r4, r5}
     480:	0b3b0b3a 	bleq	ec3170 <__bss_end__+0xeb9850>
     484:	13490b39 	movtne	r0, #39737	; 0x9b39
     488:	00001802 	andeq	r1, r0, r2, lsl #16
     48c:	03003411 	movweq	r3, #1041	; 0x411
     490:	3b0b3a0e 	blcc	2cecd0 <__bss_end__+0x2c53b0>
     494:	490b390b 	stmdbmi	fp, {r0, r1, r3, r8, fp, ip, sp}
     498:	00180213 	andseq	r0, r8, r3, lsl r2
     49c:	00341200 	eorseq	r1, r4, r0, lsl #4
     4a0:	0b3a0803 	bleq	e824b4 <__bss_end__+0xe78b94>
     4a4:	0b390b3b 	bleq	e43198 <__bss_end__+0xe39878>
     4a8:	17021349 	strne	r1, [r2, -r9, asr #6]
     4ac:	001742b7 			; <UNDEFINED> instruction: 0x001742b7
     4b0:	82891300 	addhi	r1, r9, #0, 6
     4b4:	01110101 	tsteq	r1, r1, lsl #2
     4b8:	13011331 	movwne	r1, #4913	; 0x1331
     4bc:	8a140000 	bhi	5004c4 <__bss_end__+0x4f6ba4>
     4c0:	02000182 	andeq	r0, r0, #-2147483616	; 0x80000020
     4c4:	18429118 	stmdane	r2, {r3, r4, r8, ip, pc}^
     4c8:	89150000 	ldmdbhi	r5, {}	; <UNPREDICTABLE>
     4cc:	11010182 	smlabbne	r1, r2, r1, r0
     4d0:	16000001 	strne	r0, [r0], -r1
     4d4:	13490101 	movtne	r0, #37121	; 0x9101
     4d8:	00001301 	andeq	r1, r0, r1, lsl #6
     4dc:	49002117 	stmdbmi	r0, {r0, r1, r2, r4, r8, sp}
     4e0:	00052f13 	andeq	r2, r5, r3, lsl pc
     4e4:	002e1800 	eoreq	r1, lr, r0, lsl #16
     4e8:	193c193f 	ldmdbne	ip!, {r0, r1, r2, r3, r4, r5, r8, fp, ip}
     4ec:	0e030e6e 	cdpeq	14, 0, cr0, cr3, cr14, {3}
     4f0:	0b3b0b3a 	bleq	ec31e0 <__bss_end__+0xeb98c0>
     4f4:	00000b39 	andeq	r0, r0, r9, lsr fp
     4f8:	01110100 	tsteq	r1, r0, lsl #2
     4fc:	0b130e25 	bleq	4c3d98 <__bss_end__+0x4ba478>
     500:	0e1b0e03 	cdpeq	14, 1, cr0, cr11, cr3, {0}
     504:	06120111 			; <UNDEFINED> instruction: 0x06120111
     508:	00001710 	andeq	r1, r0, r0, lsl r7
     50c:	0b002402 	bleq	951c <base+0x4>
     510:	030b3e0b 	movweq	r3, #48651	; 0xbe0b
     514:	03000008 	movweq	r0, #8
     518:	0b0b0024 	bleq	2c05b0 <__bss_end__+0x2b6c90>
     51c:	0e030b3e 	vmoveq.16	d3[0], r0
     520:	15040000 	strne	r0, [r4, #-0]
     524:	49192701 	ldmdbmi	r9, {r0, r8, r9, sl, sp}
     528:	00130113 	andseq	r0, r3, r3, lsl r1
     52c:	00050500 	andeq	r0, r5, r0, lsl #10
     530:	00001349 	andeq	r1, r0, r9, asr #6
     534:	03003406 	movweq	r3, #1030	; 0x406
     538:	3b0b3a0e 	blcc	2ced78 <__bss_end__+0x2c5458>
     53c:	490b390b 	stmdbmi	fp, {r0, r1, r3, r8, fp, ip, sp}
     540:	3c193f13 	ldccc	15, cr3, [r9], {19}
     544:	07000019 	smladeq	r0, r9, r0, r0
     548:	0b0b000f 	bleq	2c058c <__bss_end__+0x2b6c6c>
     54c:	00001349 	andeq	r1, r0, r9, asr #6
     550:	49002608 	stmdbmi	r0, {r3, r9, sl, sp}
     554:	09000013 	stmdbeq	r0, {r0, r1, r4}
     558:	13470034 	movtne	r0, #28724	; 0x7034
     55c:	0b3b0b3a 	bleq	ec324c <__bss_end__+0xeb992c>
     560:	18020b39 	stmdane	r2, {r0, r3, r4, r5, r8, r9, fp}
     564:	2e0a0000 	cdpcs	0, 0, cr0, cr10, cr0, {0}
     568:	03193f01 	tsteq	r9, #1, 30
     56c:	3b0b3a0e 	blcc	2cedac <__bss_end__+0x2c548c>
     570:	270b390b 	strcs	r3, [fp, -fp, lsl #18]
     574:	12011119 	andne	r1, r1, #1073741830	; 0x40000006
     578:	97184006 	ldrls	r4, [r8, -r6]
     57c:	13011942 	movwne	r1, #6466	; 0x1942
     580:	050b0000 	streq	r0, [fp, #-0]
     584:	3a080300 	bcc	20118c <__bss_end__+0x1f786c>
     588:	390b3b0b 	stmdbcc	fp, {r0, r1, r3, r8, r9, fp, ip, sp}
     58c:	0213490b 	andseq	r4, r3, #180224	; 0x2c000
     590:	0c000018 	stceq	0, cr0, [r0], {24}
     594:	193f002e 	ldmdbne	pc!, {r1, r2, r3, r5}	; <UNPREDICTABLE>
     598:	0b3a0e03 	bleq	e83dac <__bss_end__+0xe7a48c>
     59c:	0b390b3b 	bleq	e43290 <__bss_end__+0xe39970>
     5a0:	01111927 	tsteq	r1, r7, lsr #18
     5a4:	18400612 	stmdane	r0, {r1, r4, r9, sl}^
     5a8:	00194297 	mulseq	r9, r7, r2
     5ac:	012e0d00 			; <UNDEFINED> instruction: 0x012e0d00
     5b0:	0b3a0e03 	bleq	e83dc4 <__bss_end__+0xe7a4a4>
     5b4:	0b390b3b 	bleq	e432a8 <__bss_end__+0xe39988>
     5b8:	13491927 	movtne	r1, #39207	; 0x9927
     5bc:	06120111 			; <UNDEFINED> instruction: 0x06120111
     5c0:	42971840 	addsmi	r1, r7, #64, 16	; 0x400000
     5c4:	00130119 	andseq	r0, r3, r9, lsl r1
     5c8:	00050e00 	andeq	r0, r5, r0, lsl #28
     5cc:	0b3a0803 	bleq	e825e0 <__bss_end__+0xe78cc0>
     5d0:	0b390b3b 	bleq	e432c4 <__bss_end__+0xe399a4>
     5d4:	17021349 	strne	r1, [r2, -r9, asr #6]
     5d8:	001742b7 			; <UNDEFINED> instruction: 0x001742b7
     5dc:	82890f00 	addhi	r0, r9, #0, 30
     5e0:	01110101 	tsteq	r1, r1, lsl #2
     5e4:	00001331 	andeq	r1, r0, r1, lsr r3
     5e8:	01828a10 	orreq	r8, r2, r0, lsl sl
     5ec:	91180200 	tstls	r8, r0, lsl #4
     5f0:	00001842 	andeq	r1, r0, r2, asr #16
     5f4:	3f002e11 	svccc	0x00002e11
     5f8:	6e193c19 	mrcvs	12, 0, r3, cr9, cr9, {0}
     5fc:	3a0e030e 	bcc	38123c <__bss_end__+0x37791c>
     600:	390b3b0b 	stmdbcc	fp, {r0, r1, r3, r8, r9, fp, ip, sp}
     604:	0000000b 	andeq	r0, r0, fp
     608:	25011101 	strcs	r1, [r1, #-257]	; 0xfffffeff
     60c:	030b130e 	movweq	r1, #45838	; 0xb30e
     610:	110e1b0e 	tstne	lr, lr, lsl #22
     614:	10061201 	andne	r1, r6, r1, lsl #4
     618:	02000017 	andeq	r0, r0, #23, 0
     61c:	0b0b0024 	bleq	2c06b4 <__bss_end__+0x2b6d94>
     620:	08030b3e 	stmdaeq	r3, {r1, r2, r3, r4, r5, r8, r9, fp}
     624:	24030000 	strcs	r0, [r3], #-0
     628:	3e0b0b00 	vmlacc.f64	d0, d11, d0
     62c:	000e030b 	andeq	r0, lr, fp, lsl #6
     630:	01150400 	tsteq	r5, r0, lsl #8
     634:	13491927 	movtne	r1, #39207	; 0x9927
     638:	00001301 	andeq	r1, r0, r1, lsl #6
     63c:	49000505 	stmdbmi	r0, {r0, r2, r8, sl}
     640:	06000013 			; <UNDEFINED> instruction: 0x06000013
     644:	0e030034 	mcreq	0, 0, r0, cr3, cr4, {1}
     648:	0b3b0b3a 	bleq	ec3338 <__bss_end__+0xeb9a18>
     64c:	13490b39 	movtne	r0, #39737	; 0x9b39
     650:	193c193f 	ldmdbne	ip!, {r0, r1, r2, r3, r4, r5, r8, fp, ip}
     654:	0f070000 	svceq	0x00070000
     658:	490b0b00 	stmdbmi	fp, {r8, r9, fp}
     65c:	08000013 	stmdaeq	r0, {r0, r1, r4}
     660:	13490026 	movtne	r0, #36902	; 0x9026
     664:	34090000 	strcc	r0, [r9], #-0
     668:	3a134700 	bcc	4d2270 <__bss_end__+0x4c8950>
     66c:	390b3b0b 	stmdbcc	fp, {r0, r1, r3, r8, r9, fp, ip, sp}
     670:	0018020b 	andseq	r0, r8, fp, lsl #4
     674:	012e0a00 			; <UNDEFINED> instruction: 0x012e0a00
     678:	0e03193f 			; <UNDEFINED> instruction: 0x0e03193f
     67c:	0b3b0b3a 	bleq	ec336c <__bss_end__+0xeb9a4c>
     680:	19270b39 	stmdbne	r7!, {r0, r3, r4, r5, r8, r9, fp}
     684:	01111349 	tsteq	r1, r9, asr #6
     688:	18400612 	stmdane	r0, {r1, r4, r9, sl}^
     68c:	00194296 	mulseq	r9, r6, r2
     690:	00050b00 	andeq	r0, r5, r0, lsl #22
     694:	0b3a0803 	bleq	e826a8 <__bss_end__+0xe78d88>
     698:	0b390b3b 	bleq	e4338c <__bss_end__+0xe39a6c>
     69c:	17021349 	strne	r1, [r2, -r9, asr #6]
     6a0:	001742b7 			; <UNDEFINED> instruction: 0x001742b7
     6a4:	11010000 	mrsne	r0, (UNDEF: 1)
     6a8:	130e2501 	movwne	r2, #58625	; 0xe501
     6ac:	1b0e030b 	blne	3812e0 <__bss_end__+0x3779c0>
     6b0:	1201110e 	andne	r1, r1, #-2147483645	; 0x80000003
     6b4:	00171006 	andseq	r1, r7, r6
     6b8:	00240200 	eoreq	r0, r4, r0, lsl #4
     6bc:	0b3e0b0b 	bleq	f832f0 <__bss_end__+0xf799d0>
     6c0:	00000803 	andeq	r0, r0, r3, lsl #16
     6c4:	0b002403 	bleq	96d8 <__bss_start__+0x1b8>
     6c8:	030b3e0b 	movweq	r3, #48651	; 0xbe0b
     6cc:	0400000e 	streq	r0, [r0], #-14
     6d0:	0e030016 	mcreq	0, 0, r0, cr3, cr6, {0}
     6d4:	0b3b0b3a 	bleq	ec33c4 <__bss_end__+0xeb9aa4>
     6d8:	13490b39 	movtne	r0, #39737	; 0x9b39
     6dc:	15050000 	strne	r0, [r5, #-0]
     6e0:	49192701 	ldmdbmi	r9, {r0, r8, r9, sl, sp}
     6e4:	00130113 	andseq	r0, r3, r3, lsl r1
     6e8:	00050600 	andeq	r0, r5, r0, lsl #12
     6ec:	00001349 	andeq	r1, r0, r9, asr #6
     6f0:	03003407 	movweq	r3, #1031	; 0x407
     6f4:	3b0b3a0e 	blcc	2cef34 <__bss_end__+0x2c5614>
     6f8:	490b390b 	stmdbmi	fp, {r0, r1, r3, r8, fp, ip, sp}
     6fc:	3c193f13 	ldccc	15, cr3, [r9], {19}
     700:	08000019 	stmdaeq	r0, {r0, r3, r4}
     704:	0b0b000f 	bleq	2c0748 <__bss_end__+0x2b6e28>
     708:	00001349 	andeq	r1, r0, r9, asr #6
     70c:	49002609 	stmdbmi	r0, {r0, r3, r9, sl, sp}
     710:	0a000013 	beq	764 <__code_start__-0x789c>
     714:	0e030113 	mcreq	1, 0, r0, cr3, cr3, {0}
     718:	0b3a0b0b 	bleq	e8334c <__bss_end__+0xe79a2c>
     71c:	13010b3b 	movwne	r0, #6971	; 0x1b3b
     720:	0d0b0000 	stceq	0, cr0, [fp, #-0]
     724:	490e0300 	stmdbmi	lr, {r8, r9}
     728:	340b3813 	strcc	r3, [fp], #-2067	; 0xfffff7ed
     72c:	0c000019 	stceq	0, cr0, [r0], {25}
     730:	0b0b000f 	bleq	2c0774 <__bss_end__+0x2b6e54>
     734:	2e0d0000 	cdpcs	0, 0, cr0, cr13, cr0, {0}
     738:	03193f01 	tsteq	r9, #1, 30
     73c:	3b0b3a0e 	blcc	2cef7c <__bss_end__+0x2c565c>
     740:	270b390b 	strcs	r3, [fp, -fp, lsl #18]
     744:	11134919 	tstne	r3, r9, lsl r9
     748:	40061201 	andmi	r1, r6, r1, lsl #4
     74c:	19429718 	stmdbne	r2, {r3, r4, r8, r9, sl, ip, pc}^
     750:	00001301 	andeq	r1, r0, r1, lsl #6
     754:	0300050e 	movweq	r0, #1294	; 0x50e
     758:	3b0b3a08 	blcc	2cef80 <__bss_end__+0x2c5660>
     75c:	490b390b 	stmdbmi	fp, {r0, r1, r3, r8, fp, ip, sp}
     760:	b7170213 			; <UNDEFINED> instruction: 0xb7170213
     764:	00001742 	andeq	r1, r0, r2, asr #14
     768:	0300050f 	movweq	r0, #1295	; 0x50f
     76c:	3b0b3a0e 	blcc	2cefac <__bss_end__+0x2c568c>
     770:	490b390b 	stmdbmi	fp, {r0, r1, r3, r8, fp, ip, sp}
     774:	00180213 	andseq	r0, r8, r3, lsl r2
     778:	00341000 	eorseq	r1, r4, r0
     77c:	0b3a0803 	bleq	e82790 <__bss_end__+0xe78e70>
     780:	0b390b3b 	bleq	e43474 <__bss_end__+0xe39b54>
     784:	17021349 	strne	r1, [r2, -r9, asr #6]
     788:	001742b7 			; <UNDEFINED> instruction: 0x001742b7
     78c:	00341100 	eorseq	r1, r4, r0, lsl #2
     790:	0b3a0e03 	bleq	e83fa4 <__bss_end__+0xe7a684>
     794:	0b390b3b 	bleq	e43488 <__bss_end__+0xe39b68>
     798:	17021349 	strne	r1, [r2, -r9, asr #6]
     79c:	001742b7 			; <UNDEFINED> instruction: 0x001742b7
     7a0:	00341200 	eorseq	r1, r4, r0, lsl #4
     7a4:	13490e03 	movtne	r0, #40451	; 0x9e03
     7a8:	18021934 	stmdane	r2, {r2, r4, r5, r8, fp, ip}
     7ac:	0b130000 	bleq	4c07b4 <__bss_end__+0x4b6e94>
     7b0:	12011101 	andne	r1, r1, #1073741824	; 0x40000000
     7b4:	14000006 	strne	r0, [r0], #-6
     7b8:	08030034 	stmdaeq	r3, {r2, r4, r5}
     7bc:	0b3b0b3a 	bleq	ec34ac <__bss_end__+0xeb9b8c>
     7c0:	13490b39 	movtne	r0, #39737	; 0x9b39
     7c4:	00001802 	andeq	r1, r0, r2, lsl #16
     7c8:	03003415 	movweq	r3, #1045	; 0x415
     7cc:	3b0b3a0e 	blcc	2cf00c <__bss_end__+0x2c56ec>
     7d0:	490b390b 	stmdbmi	fp, {r0, r1, r3, r8, fp, ip, sp}
     7d4:	00180213 	andseq	r0, r8, r3, lsl r2
     7d8:	010b1600 	tsteq	fp, r0, lsl #12
     7dc:	06120111 			; <UNDEFINED> instruction: 0x06120111
     7e0:	00001301 	andeq	r1, r0, r1, lsl #6
     7e4:	03003417 	movweq	r3, #1047	; 0x417
     7e8:	3b0b3a08 	blcc	2cf010 <__bss_end__+0x2c56f0>
     7ec:	490b390b 	stmdbmi	fp, {r0, r1, r3, r8, fp, ip, sp}
     7f0:	18000013 	stmdane	r0, {r0, r1, r4}
     7f4:	01018289 	smlabbeq	r1, r9, r2, r8
     7f8:	13310111 	teqne	r1, #1073741828	; 0x40000004
     7fc:	00001301 	andeq	r1, r0, r1, lsl #6
     800:	01828a19 	orreq	r8, r2, r9, lsl sl
     804:	91180200 	tstls	r8, r0, lsl #4
     808:	00001842 	andeq	r1, r0, r2, asr #16
     80c:	0182891a 	orreq	r8, r2, sl, lsl r9
     810:	31011100 	mrscc	r1, (UNDEF: 17)
     814:	1b000013 	blne	868 <__code_start__-0x7798>
     818:	01018289 	smlabbeq	r1, r9, r2, r8
     81c:	13010111 	movwne	r0, #4369	; 0x1111
     820:	011c0000 	tsteq	ip, r0
     824:	01134901 	tsteq	r3, r1, lsl #18
     828:	1d000013 	stcne	0, cr0, [r0, #-76]	; 0xffffffb4
     82c:	13490021 	movtne	r0, #36897	; 0x9021
     830:	00000b2f 	andeq	r0, r0, pc, lsr #22
     834:	03012e1e 	movweq	r2, #7710	; 0x1e1e
     838:	3b0b3a0e 	blcc	2cf078 <__bss_end__+0x2c5758>
     83c:	270b390b 	strcs	r3, [fp, -fp, lsl #18]
     840:	11134919 	tstne	r3, r9, lsl r9
     844:	40061201 	andmi	r1, r6, r1, lsl #4
     848:	19429718 	stmdbne	r2, {r3, r4, r8, r9, sl, ip, pc}^
     84c:	00001301 	andeq	r1, r0, r1, lsl #6
     850:	0300051f 	movweq	r0, #1311	; 0x51f
     854:	3b0b3a0e 	blcc	2cf094 <__bss_end__+0x2c5774>
     858:	490b390b 	stmdbmi	fp, {r0, r1, r3, r8, fp, ip, sp}
     85c:	b7170213 			; <UNDEFINED> instruction: 0xb7170213
     860:	00001742 	andeq	r1, r0, r2, asr #14
     864:	03012e20 	movweq	r2, #7712	; 0x1e20
     868:	3b0b3a08 	blcc	2cf090 <__bss_end__+0x2c5770>
     86c:	270b390b 	strcs	r3, [fp, -fp, lsl #18]
     870:	11134919 	tstne	r3, r9, lsl r9
     874:	40061201 	andmi	r1, r6, r1, lsl #4
     878:	19429718 	stmdbne	r2, {r3, r4, r8, r9, sl, ip, pc}^
     87c:	00001301 	andeq	r1, r0, r1, lsl #6
     880:	3f012e21 	svccc	0x00012e21
     884:	3a0e0319 	bcc	3814f0 <__bss_end__+0x377bd0>
     888:	390b3b0b 	stmdbcc	fp, {r0, r1, r3, r8, r9, fp, ip, sp}
     88c:	1119270b 	tstne	r9, fp, lsl #14
     890:	40061201 	andmi	r1, r6, r1, lsl #4
     894:	19429718 	stmdbne	r2, {r3, r4, r8, r9, sl, ip, pc}^
     898:	00001301 	andeq	r1, r0, r1, lsl #6
     89c:	3f002e22 	svccc	0x00002e22
     8a0:	6e193c19 	mrcvs	12, 0, r3, cr9, cr9, {0}
     8a4:	3a0e030e 	bcc	3814e4 <__bss_end__+0x377bc4>
     8a8:	390b3b0b 	stmdbcc	fp, {r0, r1, r3, r8, r9, fp, ip, sp}
     8ac:	0000000b 	andeq	r0, r0, fp
     8b0:	25011101 	strcs	r1, [r1, #-257]	; 0xfffffeff
     8b4:	030b130e 	movweq	r1, #45838	; 0xb30e
     8b8:	110e1b0e 	tstne	lr, lr, lsl #22
     8bc:	10061201 	andne	r1, r6, r1, lsl #4
     8c0:	02000017 	andeq	r0, r0, #23, 0
     8c4:	0b0b0024 	bleq	2c095c <__bss_end__+0x2b703c>
     8c8:	08030b3e 	stmdaeq	r3, {r1, r2, r3, r4, r5, r8, r9, fp}
     8cc:	24030000 	strcs	r0, [r3], #-0
     8d0:	3e0b0b00 	vmlacc.f64	d0, d11, d0
     8d4:	000e030b 	andeq	r0, lr, fp, lsl #6
     8d8:	01150400 	tsteq	r5, r0, lsl #8
     8dc:	13491927 	movtne	r1, #39207	; 0x9927
     8e0:	00001301 	andeq	r1, r0, r1, lsl #6
     8e4:	49000505 	stmdbmi	r0, {r0, r2, r8, sl}
     8e8:	06000013 			; <UNDEFINED> instruction: 0x06000013
     8ec:	0e030034 	mcreq	0, 0, r0, cr3, cr4, {1}
     8f0:	0b3b0b3a 	bleq	ec35e0 <__bss_end__+0xeb9cc0>
     8f4:	13490b39 	movtne	r0, #39737	; 0x9b39
     8f8:	193c193f 	ldmdbne	ip!, {r0, r1, r2, r3, r4, r5, r8, fp, ip}
     8fc:	0f070000 	svceq	0x00070000
     900:	490b0b00 	stmdbmi	fp, {r8, r9, fp}
     904:	08000013 	stmdaeq	r0, {r0, r1, r4}
     908:	13490026 	movtne	r0, #36902	; 0x9026
     90c:	2e090000 	cdpcs	0, 0, cr0, cr9, cr0, {0}
     910:	03193f01 	tsteq	r9, #1, 30
     914:	3b0b3a0e 	blcc	2cf154 <__bss_end__+0x2c5834>
     918:	270b390b 	strcs	r3, [fp, -fp, lsl #18]
     91c:	19018719 	stmdbne	r1, {r0, r3, r4, r8, r9, sl, pc}
     920:	06120111 			; <UNDEFINED> instruction: 0x06120111
     924:	42971840 	addsmi	r1, r7, #64, 16	; 0x400000
     928:	00130119 	andseq	r0, r3, r9, lsl r1
     92c:	82890a00 	addhi	r0, r9, #0, 20
     930:	01110101 	tsteq	r1, r1, lsl #2
     934:	00001301 	andeq	r1, r0, r1, lsl #6
     938:	01828a0b 	orreq	r8, r2, fp, lsl #20
     93c:	91180200 	tstls	r8, r0, lsl #4
     940:	00001842 	andeq	r1, r0, r2, asr #16
     944:	0182890c 	orreq	r8, r2, ip, lsl #18
     948:	31011100 	mrscc	r1, (UNDEF: 17)
     94c:	0d000013 	stceq	0, cr0, [r0, #-76]	; 0xffffffb4
     950:	01018289 	smlabbeq	r1, r9, r2, r8
     954:	13310111 	teqne	r1, #1073741828	; 0x40000004
     958:	00001301 	andeq	r1, r0, r1, lsl #6
     95c:	3f002e0e 	svccc	0x00002e0e
     960:	6e193c19 	mrcvs	12, 0, r3, cr9, cr9, {0}
     964:	3a0e030e 	bcc	3815a4 <__bss_end__+0x377c84>
     968:	390b3b0b 	stmdbcc	fp, {r0, r1, r3, r8, r9, fp, ip, sp}
     96c:	0000000b 	andeq	r0, r0, fp
     970:	25011101 	strcs	r1, [r1, #-257]	; 0xfffffeff
     974:	030b130e 	movweq	r1, #45838	; 0xb30e
     978:	110e1b0e 	tstne	lr, lr, lsl #22
     97c:	10061201 	andne	r1, r6, r1, lsl #4
     980:	02000017 	andeq	r0, r0, #23, 0
     984:	0b0b0024 	bleq	2c0a1c <__bss_end__+0x2b70fc>
     988:	08030b3e 	stmdaeq	r3, {r1, r2, r3, r4, r5, r8, r9, fp}
     98c:	24030000 	strcs	r0, [r3], #-0
     990:	3e0b0b00 	vmlacc.f64	d0, d11, d0
     994:	000e030b 	andeq	r0, lr, fp, lsl #6
     998:	01150400 	tsteq	r5, r0, lsl #8
     99c:	13491927 	movtne	r1, #39207	; 0x9927
     9a0:	00001301 	andeq	r1, r0, r1, lsl #6
     9a4:	49000505 	stmdbmi	r0, {r0, r2, r8, sl}
     9a8:	06000013 			; <UNDEFINED> instruction: 0x06000013
     9ac:	0e030034 	mcreq	0, 0, r0, cr3, cr4, {1}
     9b0:	0b3b0b3a 	bleq	ec36a0 <__bss_end__+0xeb9d80>
     9b4:	13490b39 	movtne	r0, #39737	; 0x9b39
     9b8:	193c193f 	ldmdbne	ip!, {r0, r1, r2, r3, r4, r5, r8, fp, ip}
     9bc:	0f070000 	svceq	0x00070000
     9c0:	490b0b00 	stmdbmi	fp, {r8, r9, fp}
     9c4:	08000013 	stmdaeq	r0, {r0, r1, r4}
     9c8:	13490026 	movtne	r0, #36902	; 0x9026
     9cc:	2e090000 	cdpcs	0, 0, cr0, cr9, cr0, {0}
     9d0:	03193f01 	tsteq	r9, #1, 30
     9d4:	3b0b3a0e 	blcc	2cf214 <__bss_end__+0x2c58f4>
     9d8:	110b390b 	tstne	fp, fp, lsl #18
     9dc:	40061201 	andmi	r1, r6, r1, lsl #4
     9e0:	19429718 	stmdbne	r2, {r3, r4, r8, r9, sl, ip, pc}^
     9e4:	00001301 	andeq	r1, r0, r1, lsl #6
     9e8:	3f002e0a 	svccc	0x00002e0a
     9ec:	3a0e0319 	bcc	381658 <__bss_end__+0x377d38>
     9f0:	390b3b0b 	stmdbcc	fp, {r0, r1, r3, r8, r9, fp, ip, sp}
     9f4:	3c19270b 	ldccc	7, cr2, [r9], {11}
     9f8:	0b000019 	bleq	a64 <__code_start__-0x759c>
     9fc:	08030034 	stmdaeq	r3, {r2, r4, r5}
     a00:	0b3b0b3a 	bleq	ec36f0 <__bss_end__+0xeb9dd0>
     a04:	13490b39 	movtne	r0, #39737	; 0x9b39
     a08:	42b71702 	adcsmi	r1, r7, #524288	; 0x80000
     a0c:	0c000017 	stceq	0, cr0, [r0], {23}
     a10:	0e030034 	mcreq	0, 0, r0, cr3, cr4, {1}
     a14:	0b3b0b3a 	bleq	ec3704 <__bss_end__+0xeb9de4>
     a18:	13490b39 	movtne	r0, #39737	; 0x9b39
     a1c:	0b0d0000 	bleq	340a24 <__bss_end__+0x337104>
     a20:	12011101 	andne	r1, r1, #1073741824	; 0x40000000
     a24:	00130106 	andseq	r0, r3, r6, lsl #2
     a28:	00340e00 	eorseq	r0, r4, r0, lsl #28
     a2c:	0b3a0803 	bleq	e82a40 <__bss_end__+0xe79120>
     a30:	0b390b3b 	bleq	e43724 <__bss_end__+0xe39e04>
     a34:	0b1c1349 	bleq	705760 <__bss_end__+0x6fbe40>
     a38:	890f0000 	stmdbhi	pc, {}	; <UNPREDICTABLE>
     a3c:	11000182 	smlabbne	r0, r2, r1, r0
     a40:	00133101 	andseq	r3, r3, r1, lsl #2
     a44:	002e1000 	eoreq	r1, lr, r0
     a48:	193c193f 	ldmdbne	ip!, {r0, r1, r2, r3, r4, r5, r8, fp, ip}
     a4c:	0e030e6e 	cdpeq	14, 0, cr0, cr3, cr14, {3}
     a50:	053b0b3a 	ldreq	r0, [fp, #-2874]!	; 0xfffff4c6
     a54:	00000b39 	andeq	r0, r0, r9, lsr fp
     a58:	3f002e11 	svccc	0x00002e11
     a5c:	6e193c19 	mrcvs	12, 0, r3, cr9, cr9, {0}
     a60:	3a0e030e 	bcc	3816a0 <__bss_end__+0x377d80>
     a64:	390b3b0b 	stmdbcc	fp, {r0, r1, r3, r8, r9, fp, ip, sp}
     a68:	0000000b 	andeq	r0, r0, fp
     a6c:	25011101 	strcs	r1, [r1, #-257]	; 0xfffffeff
     a70:	030b130e 	movweq	r1, #45838	; 0xb30e
     a74:	110e1b0e 	tstne	lr, lr, lsl #22
     a78:	10061201 	andne	r1, r6, r1, lsl #4
     a7c:	02000017 	andeq	r0, r0, #23, 0
     a80:	0b0b0024 	bleq	2c0b18 <__bss_end__+0x2b71f8>
     a84:	08030b3e 	stmdaeq	r3, {r1, r2, r3, r4, r5, r8, r9, fp}
     a88:	24030000 	strcs	r0, [r3], #-0
     a8c:	3e0b0b00 	vmlacc.f64	d0, d11, d0
     a90:	000e030b 	andeq	r0, lr, fp, lsl #6
     a94:	01150400 	tsteq	r5, r0, lsl #8
     a98:	13491927 	movtne	r1, #39207	; 0x9927
     a9c:	00001301 	andeq	r1, r0, r1, lsl #6
     aa0:	49000505 	stmdbmi	r0, {r0, r2, r8, sl}
     aa4:	06000013 			; <UNDEFINED> instruction: 0x06000013
     aa8:	0e030034 	mcreq	0, 0, r0, cr3, cr4, {1}
     aac:	0b3b0b3a 	bleq	ec379c <__bss_end__+0xeb9e7c>
     ab0:	13490b39 	movtne	r0, #39737	; 0x9b39
     ab4:	193c193f 	ldmdbne	ip!, {r0, r1, r2, r3, r4, r5, r8, fp, ip}
     ab8:	0f070000 	svceq	0x00070000
     abc:	490b0b00 	stmdbmi	fp, {r8, r9, fp}
     ac0:	08000013 	stmdaeq	r0, {r0, r1, r4}
     ac4:	13490026 	movtne	r0, #36902	; 0x9026
     ac8:	2e090000 	cdpcs	0, 0, cr0, cr9, cr0, {0}
     acc:	03193f00 	tsteq	r9, #0, 30
     ad0:	3b0b3a0e 	blcc	2cf310 <__bss_end__+0x2c59f0>
     ad4:	270b390b 	strcs	r3, [fp, -fp, lsl #18]
     ad8:	12011119 	andne	r1, r1, #1073741830	; 0x40000006
     adc:	97184006 	ldrls	r4, [r8, -r6]
     ae0:	00001942 	andeq	r1, r0, r2, asr #18
     ae4:	01110100 	tsteq	r1, r0, lsl #2
     ae8:	0b130e25 	bleq	4c4384 <__bss_end__+0x4baa64>
     aec:	0e1b0e03 	cdpeq	14, 1, cr0, cr11, cr3, {0}
     af0:	01111755 	tsteq	r1, r5, asr r7
     af4:	00001710 	andeq	r1, r0, r0, lsl r7
     af8:	0b002402 	bleq	9b08 <__bss_end__+0x1e8>
     afc:	030b3e0b 	movweq	r3, #48651	; 0xbe0b
     b00:	03000008 	movweq	r0, #8
     b04:	13490026 	movtne	r0, #36902	; 0x9026
     b08:	24040000 	strcs	r0, [r4], #-0
     b0c:	3e0b0b00 	vmlacc.f64	d0, d11, d0
     b10:	000e030b 	andeq	r0, lr, fp, lsl #6
     b14:	01150500 	tsteq	r5, r0, lsl #10
     b18:	13491927 	movtne	r1, #39207	; 0x9927
     b1c:	00001301 	andeq	r1, r0, r1, lsl #6
     b20:	49000506 	stmdbmi	r0, {r1, r2, r8, sl}
     b24:	07000013 	smladeq	r0, r3, r0, r0
     b28:	0e030034 	mcreq	0, 0, r0, cr3, cr4, {1}
     b2c:	0b3b0b3a 	bleq	ec381c <__bss_end__+0xeb9efc>
     b30:	13490b39 	movtne	r0, #39737	; 0x9b39
     b34:	193c193f 	ldmdbne	ip!, {r0, r1, r2, r3, r4, r5, r8, fp, ip}
     b38:	0f080000 	svceq	0x00080000
     b3c:	490b0b00 	stmdbmi	fp, {r8, r9, fp}
     b40:	09000013 	stmdbeq	r0, {r0, r1, r4}
     b44:	0e030034 	mcreq	0, 0, r0, cr3, cr4, {1}
     b48:	0b3b0b3a 	bleq	ec3838 <__bss_end__+0xeb9f18>
     b4c:	13490b39 	movtne	r0, #39737	; 0x9b39
     b50:	2e0a0000 	cdpcs	0, 0, cr0, cr10, cr0, {0}
     b54:	03193f01 	tsteq	r9, #1, 30
     b58:	3b0b3a0e 	blcc	2cf398 <__bss_end__+0x2c5a78>
     b5c:	270b390b 	strcs	r3, [fp, -fp, lsl #18]
     b60:	19018719 	stmdbne	r1, {r0, r3, r4, r8, r9, sl, pc}
     b64:	06120111 			; <UNDEFINED> instruction: 0x06120111
     b68:	42971840 	addsmi	r1, r7, #64, 16	; 0x400000
     b6c:	00130119 	andseq	r0, r3, r9, lsl r1
     b70:	00340b00 	eorseq	r0, r4, r0, lsl #22
     b74:	0b3a0e03 	bleq	e84388 <__bss_end__+0xe7aa68>
     b78:	0b390b3b 	bleq	e4386c <__bss_end__+0xe39f4c>
     b7c:	17021349 	strne	r1, [r2, -r9, asr #6]
     b80:	001742b7 			; <UNDEFINED> instruction: 0x001742b7
     b84:	82890c00 	addhi	r0, r9, #0, 24
     b88:	01110001 	tsteq	r1, r1
     b8c:	00001331 	andeq	r1, r0, r1, lsr r3
     b90:	0182890d 	orreq	r8, r2, sp, lsl #18
     b94:	31011101 	tstcc	r1, r1, lsl #2
     b98:	00130113 	andseq	r0, r3, r3, lsl r1
     b9c:	828a0e00 	addhi	r0, sl, #0, 28
     ba0:	18020001 	stmdane	r2, {r0}
     ba4:	00184291 	mulseq	r8, r1, r2
     ba8:	012e0f00 			; <UNDEFINED> instruction: 0x012e0f00
     bac:	0e03193f 			; <UNDEFINED> instruction: 0x0e03193f
     bb0:	0b3b0b3a 	bleq	ec38a0 <__bss_end__+0xeb9f80>
     bb4:	19270b39 	stmdbne	r7!, {r0, r3, r4, r5, r8, r9, fp}
     bb8:	06120111 			; <UNDEFINED> instruction: 0x06120111
     bbc:	42971840 	addsmi	r1, r7, #64, 16	; 0x400000
     bc0:	00130119 	andseq	r0, r3, r9, lsl r1
     bc4:	012e1000 			; <UNDEFINED> instruction: 0x012e1000
     bc8:	0e03193f 			; <UNDEFINED> instruction: 0x0e03193f
     bcc:	0b3b0b3a 	bleq	ec38bc <__bss_end__+0xeb9f9c>
     bd0:	19270b39 	stmdbne	r7!, {r0, r3, r4, r5, r8, r9, fp}
     bd4:	01111349 	tsteq	r1, r9, asr #6
     bd8:	18400612 	stmdane	r0, {r1, r4, r9, sl}^
     bdc:	01194297 			; <UNDEFINED> instruction: 0x01194297
     be0:	11000013 	tstne	r0, r3, lsl r0
     be4:	193f002e 	ldmdbne	pc!, {r1, r2, r3, r5}	; <UNPREDICTABLE>
     be8:	0e6e193c 			; <UNDEFINED> instruction: 0x0e6e193c
     bec:	0b3a0e03 	bleq	e84400 <__bss_end__+0xe7aae0>
     bf0:	0b39053b 	bleq	e420e4 <__bss_end__+0xe387c4>
     bf4:	2e120000 	cdpcs	0, 1, cr0, cr2, cr0, {0}
     bf8:	3c193f00 	ldccc	15, cr3, [r9], {-0}
     bfc:	030e6e19 	movweq	r6, #60953	; 0xee19
     c00:	3b0b3a0e 	blcc	2cf440 <__bss_end__+0x2c5b20>
     c04:	000b390b 	andeq	r3, fp, fp, lsl #18
     c08:	11010000 	mrsne	r0, (UNDEF: 1)
     c0c:	130e2501 	movwne	r2, #58625	; 0xe501
     c10:	1b0e030b 	blne	381844 <__bss_end__+0x377f24>
     c14:	1201110e 	andne	r1, r1, #-2147483645	; 0x80000003
     c18:	00171006 	andseq	r1, r7, r6
     c1c:	00240200 	eoreq	r0, r4, r0, lsl #4
     c20:	0b3e0b0b 	bleq	f83854 <__bss_end__+0xf79f34>
     c24:	00000803 	andeq	r0, r0, r3, lsl #16
     c28:	0b002403 	bleq	9c3c <__bss_end__+0x31c>
     c2c:	030b3e0b 	movweq	r3, #48651	; 0xbe0b
     c30:	0400000e 	streq	r0, [r0], #-14
     c34:	19270115 	stmdbne	r7!, {r0, r2, r4, r8}
     c38:	13011349 	movwne	r1, #4937	; 0x1349
     c3c:	05050000 	streq	r0, [r5, #-0]
     c40:	00134900 	andseq	r4, r3, r0, lsl #18
     c44:	00340600 	eorseq	r0, r4, r0, lsl #12
     c48:	0b3a0e03 	bleq	e8445c <__bss_end__+0xe7ab3c>
     c4c:	0b390b3b 	bleq	e43940 <__bss_end__+0xe3a020>
     c50:	193f1349 	ldmdbne	pc!, {r0, r3, r6, r8, r9, ip}	; <UNPREDICTABLE>
     c54:	0000193c 	andeq	r1, r0, ip, lsr r9
     c58:	0b000f07 	bleq	487c <__code_start__-0x3784>
     c5c:	0013490b 	andseq	r4, r3, fp, lsl #18
     c60:	00260800 	eoreq	r0, r6, r0, lsl #16
     c64:	00001349 	andeq	r1, r0, r9, asr #6
     c68:	3f012e09 	svccc	0x00012e09
     c6c:	3a0e0319 	bcc	3818d8 <__bss_end__+0x377fb8>
     c70:	390b3b0b 	stmdbcc	fp, {r0, r1, r3, r8, r9, fp, ip, sp}
     c74:	1119270b 	tstne	r9, fp, lsl #14
     c78:	40061201 	andmi	r1, r6, r1, lsl #4
     c7c:	19429718 	stmdbne	r2, {r3, r4, r8, r9, sl, ip, pc}^
     c80:	00001301 	andeq	r1, r0, r1, lsl #6
     c84:	0300050a 	movweq	r0, #1290	; 0x50a
     c88:	3b0b3a08 	blcc	2cf4b0 <__bss_end__+0x2c5b90>
     c8c:	490b390b 	stmdbmi	fp, {r0, r1, r3, r8, fp, ip, sp}
     c90:	b7170213 			; <UNDEFINED> instruction: 0xb7170213
     c94:	00001742 	andeq	r1, r0, r2, asr #14
     c98:	0182890b 	orreq	r8, r2, fp, lsl #18
     c9c:	31011101 	tstcc	r1, r1, lsl #2
     ca0:	0c000013 	stceq	0, cr0, [r0], {19}
     ca4:	0001828a 	andeq	r8, r1, sl, lsl #5
     ca8:	42911802 	addsmi	r1, r1, #131072	; 0x20000
     cac:	0d000018 	stceq	0, cr0, [r0, #-96]	; 0xffffffa0
     cb0:	08030034 	stmdaeq	r3, {r2, r4, r5}
     cb4:	0b3b0b3a 	bleq	ec39a4 <__bss_end__+0xeba084>
     cb8:	13490b39 	movtne	r0, #39737	; 0x9b39
     cbc:	42b71702 	adcsmi	r1, r7, #524288	; 0x80000
     cc0:	0e000017 	mcreq	0, 0, r0, cr0, cr7, {0}
     cc4:	0111010b 	tsteq	r1, fp, lsl #2
     cc8:	13010612 	movwne	r0, #5650	; 0x1612
     ccc:	890f0000 	stmdbhi	pc, {}	; <UNPREDICTABLE>
     cd0:	11000182 	smlabbne	r0, r2, r1, r0
     cd4:	00133101 	andseq	r3, r3, r1, lsl #2
     cd8:	012e1000 			; <UNDEFINED> instruction: 0x012e1000
     cdc:	0e03193f 			; <UNDEFINED> instruction: 0x0e03193f
     ce0:	0b3b0b3a 	bleq	ec39d0 <__bss_end__+0xeba0b0>
     ce4:	19270b39 	stmdbne	r7!, {r0, r3, r4, r5, r8, r9, fp}
     ce8:	01111349 	tsteq	r1, r9, asr #6
     cec:	18400612 	stmdane	r0, {r1, r4, r9, sl}^
     cf0:	01194297 			; <UNDEFINED> instruction: 0x01194297
     cf4:	11000013 	tstne	r0, r3, lsl r0
     cf8:	193f002e 	ldmdbne	pc!, {r1, r2, r3, r5}	; <UNPREDICTABLE>
     cfc:	0e6e193c 			; <UNDEFINED> instruction: 0x0e6e193c
     d00:	0b3a0e03 	bleq	e84514 <__bss_end__+0xe7abf4>
     d04:	0b390b3b 	bleq	e439f8 <__bss_end__+0xe3a0d8>
     d08:	01000000 	mrseq	r0, (UNDEF: 0)
     d0c:	0e250111 	mcreq	1, 1, r0, cr5, cr1, {0}
     d10:	0e030b13 	vmoveq.32	d3[0], r0
     d14:	01110e1b 	tsteq	r1, fp, lsl lr
     d18:	17100612 			; <UNDEFINED> instruction: 0x17100612
     d1c:	24020000 	strcs	r0, [r2], #-0
     d20:	3e0b0b00 	vmlacc.f64	d0, d11, d0
     d24:	0008030b 	andeq	r0, r8, fp, lsl #6
     d28:	00240300 	eoreq	r0, r4, r0, lsl #6
     d2c:	0b3e0b0b 	bleq	f83960 <__bss_end__+0xf7a040>
     d30:	00000e03 	andeq	r0, r0, r3, lsl #28
     d34:	49003504 	stmdbmi	r0, {r2, r8, sl, ip, sp}
     d38:	05000013 	streq	r0, [r0, #-19]	; 0xffffffed
     d3c:	0e030016 	mcreq	0, 0, r0, cr3, cr6, {0}
     d40:	0b3b0b3a 	bleq	ec3a30 <__bss_end__+0xeba110>
     d44:	13490b39 	movtne	r0, #39737	; 0x9b39
     d48:	04060000 	streq	r0, [r6], #-0
     d4c:	0b0b3e01 	bleq	2d0558 <__bss_end__+0x2c6c38>
     d50:	3a13490b 	bcc	4d3184 <__bss_end__+0x4c9864>
     d54:	390b3b0b 	stmdbcc	fp, {r0, r1, r3, r8, r9, fp, ip, sp}
     d58:	0013010b 	andseq	r0, r3, fp, lsl #2
     d5c:	00280700 	eoreq	r0, r8, r0, lsl #14
     d60:	0b1c0e03 	bleq	704574 <__bss_end__+0x6fac54>
     d64:	13080000 	movwne	r0, #32768	; 0x8000
     d68:	0b0e0301 	bleq	381974 <__bss_end__+0x378054>
     d6c:	3b0b3a0b 	blcc	2cf5a0 <__bss_end__+0x2c5c80>
     d70:	010b390b 	tsteq	fp, fp, lsl #18
     d74:	09000013 	stmdbeq	r0, {r0, r1, r4}
     d78:	0803000d 	stmdaeq	r3, {r0, r2, r3}
     d7c:	0b3b0b3a 	bleq	ec3a6c <__bss_end__+0xeba14c>
     d80:	13490b39 	movtne	r0, #39737	; 0x9b39
     d84:	00000b38 	andeq	r0, r0, r8, lsr fp
     d88:	03000d0a 	movweq	r0, #3338	; 0xd0a
     d8c:	3b0b3a0e 	blcc	2cf5cc <__bss_end__+0x2c5cac>
     d90:	490b390b 	stmdbmi	fp, {r0, r1, r3, r8, fp, ip, sp}
     d94:	000b3813 	andeq	r3, fp, r3, lsl r8
     d98:	00340b00 	eorseq	r0, r4, r0, lsl #22
     d9c:	0b3a0e03 	bleq	e845b0 <__bss_end__+0xe7ac90>
     da0:	0b390b3b 	bleq	e43a94 <__bss_end__+0xe3a174>
     da4:	061c1349 	ldreq	r1, [ip], -r9, asr #6
     da8:	0f0c0000 	svceq	0x000c0000
     dac:	490b0b00 	stmdbmi	fp, {r8, r9, fp}
     db0:	0d000013 	stceq	0, cr0, [r0, #-76]	; 0xffffffb4
     db4:	13490026 	movtne	r0, #36902	; 0x9026
     db8:	2e0e0000 	cdpcs	0, 0, cr0, cr14, cr0, {0}
     dbc:	03193f01 	tsteq	r9, #1, 30
     dc0:	3b0b3a0e 	blcc	2cf600 <__bss_end__+0x2c5ce0>
     dc4:	270b390b 	strcs	r3, [fp, -fp, lsl #18]
     dc8:	12011119 	andne	r1, r1, #1073741830	; 0x40000006
     dcc:	97184006 	ldrls	r4, [r8, -r6]
     dd0:	13011942 	movwne	r1, #6466	; 0x1942
     dd4:	890f0000 	stmdbhi	pc, {}	; <UNPREDICTABLE>
     dd8:	11000182 	smlabbne	r0, r2, r1, r0
     ddc:	00133101 	andseq	r3, r3, r1, lsl #2
     de0:	012e1000 			; <UNDEFINED> instruction: 0x012e1000
     de4:	0e03193f 			; <UNDEFINED> instruction: 0x0e03193f
     de8:	0b3b0b3a 	bleq	ec3ad8 <__bss_end__+0xeba1b8>
     dec:	19270b39 	stmdbne	r7!, {r0, r3, r4, r5, r8, r9, fp}
     df0:	01111349 	tsteq	r1, r9, asr #6
     df4:	18400612 	stmdane	r0, {r1, r4, r9, sl}^
     df8:	01194297 			; <UNDEFINED> instruction: 0x01194297
     dfc:	11000013 	tstne	r0, r3, lsl r0
     e00:	01018289 	smlabbeq	r1, r9, r2, r8
     e04:	13310111 	teqne	r1, #1073741828	; 0x40000004
     e08:	8a120000 	bhi	480e10 <__bss_end__+0x4774f0>
     e0c:	02000182 	andeq	r0, r0, #-2147483616	; 0x80000020
     e10:	18429118 	stmdane	r2, {r3, r4, r8, ip, pc}^
     e14:	05130000 	ldreq	r0, [r3, #-0]
     e18:	3a080300 	bcc	201a20 <__bss_end__+0x1f8100>
     e1c:	390b3b0b 	stmdbcc	fp, {r0, r1, r3, r8, r9, fp, ip, sp}
     e20:	0213490b 	andseq	r4, r3, #180224	; 0x2c000
     e24:	1742b717 	smlaldne	fp, r2, r7, r7
     e28:	89140000 	ldmdbhi	r4, {}	; <UNPREDICTABLE>
     e2c:	11010182 	smlabbne	r1, r2, r1, r0
     e30:	01133101 	tsteq	r3, r1, lsl #2
     e34:	15000013 	strne	r0, [r0, #-19]	; 0xffffffed
     e38:	08030034 	stmdaeq	r3, {r2, r4, r5}
     e3c:	0b3b0b3a 	bleq	ec3b2c <__bss_end__+0xeba20c>
     e40:	13490b39 	movtne	r0, #39737	; 0x9b39
     e44:	42b71702 	adcsmi	r1, r7, #524288	; 0x80000
     e48:	16000017 			; <UNDEFINED> instruction: 0x16000017
     e4c:	0e030034 	mcreq	0, 0, r0, cr3, cr4, {1}
     e50:	0b3b0b3a 	bleq	ec3b40 <__bss_end__+0xeba220>
     e54:	13490b39 	movtne	r0, #39737	; 0x9b39
     e58:	0000051c 	andeq	r0, r0, ip, lsl r5
     e5c:	03012e17 	movweq	r2, #7703	; 0x1e17
     e60:	3b0b3a0e 	blcc	2cf6a0 <__bss_end__+0x2c5d80>
     e64:	270b390b 	strcs	r3, [fp, -fp, lsl #18]
     e68:	12011119 	andne	r1, r1, #1073741830	; 0x40000006
     e6c:	97184006 	ldrls	r4, [r8, -r6]
     e70:	13011942 	movwne	r1, #6466	; 0x1942
     e74:	05180000 	ldreq	r0, [r8, #-0]
     e78:	3a0e0300 	bcc	381a80 <__bss_end__+0x378160>
     e7c:	390b3b0b 	stmdbcc	fp, {r0, r1, r3, r8, r9, fp, ip, sp}
     e80:	0213490b 	andseq	r4, r3, #180224	; 0x2c000
     e84:	1742b717 	smlaldne	fp, r2, r7, r7
     e88:	35190000 	ldrcc	r0, [r9, #-0]
     e8c:	1a000000 	bne	e94 <__code_start__-0x716c>
     e90:	193f002e 	ldmdbne	pc!, {r1, r2, r3, r5}	; <UNPREDICTABLE>
     e94:	0e6e193c 			; <UNDEFINED> instruction: 0x0e6e193c
     e98:	0b3a0e03 	bleq	e846ac <__bss_end__+0xe7ad8c>
     e9c:	0b390b3b 	bleq	e43b90 <__bss_end__+0xe3a270>
     ea0:	01000000 	mrseq	r0, (UNDEF: 0)
     ea4:	0e250111 	mcreq	1, 1, r0, cr5, cr1, {0}
     ea8:	0e030b13 	vmoveq.32	d3[0], r0
     eac:	01110e1b 	tsteq	r1, fp, lsl lr
     eb0:	17100612 			; <UNDEFINED> instruction: 0x17100612
     eb4:	24020000 	strcs	r0, [r2], #-0
     eb8:	3e0b0b00 	vmlacc.f64	d0, d11, d0
     ebc:	0008030b 	andeq	r0, r8, fp, lsl #6
     ec0:	00240300 	eoreq	r0, r4, r0, lsl #6
     ec4:	0b3e0b0b 	bleq	f83af8 <__bss_end__+0xf7a1d8>
     ec8:	00000e03 	andeq	r0, r0, r3, lsl #28
     ecc:	27011504 	strcs	r1, [r1, -r4, lsl #10]
     ed0:	01134919 	tsteq	r3, r9, lsl r9
     ed4:	05000013 	streq	r0, [r0, #-19]	; 0xffffffed
     ed8:	13490005 	movtne	r0, #36869	; 0x9005
     edc:	34060000 	strcc	r0, [r6], #-0
     ee0:	3a0e0300 	bcc	381ae8 <__bss_end__+0x3781c8>
     ee4:	390b3b0b 	stmdbcc	fp, {r0, r1, r3, r8, r9, fp, ip, sp}
     ee8:	3f13490b 	svccc	0x0013490b
     eec:	00193c19 	andseq	r3, r9, r9, lsl ip
     ef0:	000f0700 	andeq	r0, pc, r0, lsl #14
     ef4:	13490b0b 	movtne	r0, #39691	; 0x9b0b
     ef8:	26080000 	strcs	r0, [r8], -r0
     efc:	00134900 	andseq	r4, r3, r0, lsl #18
     f00:	012e0900 			; <UNDEFINED> instruction: 0x012e0900
     f04:	0e03193f 			; <UNDEFINED> instruction: 0x0e03193f
     f08:	0b3b0b3a 	bleq	ec3bf8 <__bss_end__+0xeba2d8>
     f0c:	19270b39 	stmdbne	r7!, {r0, r3, r4, r5, r8, r9, fp}
     f10:	01111349 	tsteq	r1, r9, asr #6
     f14:	18400612 	stmdane	r0, {r1, r4, r9, sl}^
     f18:	01194297 			; <UNDEFINED> instruction: 0x01194297
     f1c:	0a000013 	beq	f70 <__code_start__-0x7090>
     f20:	0e030005 	cdpeq	0, 0, cr0, cr3, cr5, {0}
     f24:	0b3b0b3a 	bleq	ec3c14 <__bss_end__+0xeba2f4>
     f28:	13490b39 	movtne	r0, #39737	; 0x9b39
     f2c:	00001802 	andeq	r1, r0, r2, lsl #16
     f30:	0300050b 	movweq	r0, #1291	; 0x50b
     f34:	3b0b3a08 	blcc	2cf75c <__bss_end__+0x2c5e3c>
     f38:	490b390b 	stmdbmi	fp, {r0, r1, r3, r8, fp, ip, sp}
     f3c:	b7170213 			; <UNDEFINED> instruction: 0xb7170213
     f40:	00001742 	andeq	r1, r0, r2, asr #14
     f44:	0300340c 	movweq	r3, #1036	; 0x40c
     f48:	3b0b3a08 	blcc	2cf770 <__bss_end__+0x2c5e50>
     f4c:	490b390b 	stmdbmi	fp, {r0, r1, r3, r8, fp, ip, sp}
     f50:	b7170213 			; <UNDEFINED> instruction: 0xb7170213
     f54:	00001742 	andeq	r1, r0, r2, asr #14
     f58:	01110100 	tsteq	r1, r0, lsl #2
     f5c:	0b130e25 	bleq	4c47f8 <__bss_end__+0x4baed8>
     f60:	0e1b0e03 	cdpeq	14, 1, cr0, cr11, cr3, {0}
     f64:	06120111 			; <UNDEFINED> instruction: 0x06120111
     f68:	00001710 	andeq	r1, r0, r0, lsl r7
     f6c:	0b002402 	bleq	9f7c <__bss_end__+0x65c>
     f70:	030b3e0b 	movweq	r3, #48651	; 0xbe0b
     f74:	03000008 	movweq	r0, #8
     f78:	0b0b0024 	bleq	2c1010 <__bss_end__+0x2b76f0>
     f7c:	0e030b3e 	vmoveq.16	d3[0], r0
     f80:	15040000 	strne	r0, [r4, #-0]
     f84:	49192701 	ldmdbmi	r9, {r0, r8, r9, sl, sp}
     f88:	00130113 	andseq	r0, r3, r3, lsl r1
     f8c:	00050500 	andeq	r0, r5, r0, lsl #10
     f90:	00001349 	andeq	r1, r0, r9, asr #6
     f94:	03003406 	movweq	r3, #1030	; 0x406
     f98:	3b0b3a0e 	blcc	2cf7d8 <__bss_end__+0x2c5eb8>
     f9c:	490b390b 	stmdbmi	fp, {r0, r1, r3, r8, fp, ip, sp}
     fa0:	3c193f13 	ldccc	15, cr3, [r9], {19}
     fa4:	07000019 	smladeq	r0, r9, r0, r0
     fa8:	0b0b000f 	bleq	2c0fec <__bss_end__+0x2b76cc>
     fac:	00001349 	andeq	r1, r0, r9, asr #6
     fb0:	49002608 	stmdbmi	r0, {r3, r9, sl, sp}
     fb4:	09000013 	stmdbeq	r0, {r0, r1, r4}
     fb8:	193f012e 	ldmdbne	pc!, {r1, r2, r3, r5, r8}	; <UNPREDICTABLE>
     fbc:	0b3a0e03 	bleq	e847d0 <__bss_end__+0xe7aeb0>
     fc0:	0b390b3b 	bleq	e43cb4 <__bss_end__+0xe3a394>
     fc4:	13491927 	movtne	r1, #39207	; 0x9927
     fc8:	06120111 			; <UNDEFINED> instruction: 0x06120111
     fcc:	42971840 	addsmi	r1, r7, #64, 16	; 0x400000
     fd0:	0a000019 	beq	103c <__code_start__-0x6fc4>
     fd4:	08030005 	stmdaeq	r3, {r0, r2}
     fd8:	0b3b0b3a 	bleq	ec3cc8 <__bss_end__+0xeba3a8>
     fdc:	13490b39 	movtne	r0, #39737	; 0x9b39
     fe0:	42b71702 	adcsmi	r1, r7, #524288	; 0x80000
     fe4:	00000017 	andeq	r0, r0, r7, lsl r0
     fe8:	25011101 	strcs	r1, [r1, #-257]	; 0xfffffeff
     fec:	030b130e 	movweq	r1, #45838	; 0xb30e
     ff0:	110e1b0e 	tstne	lr, lr, lsl #22
     ff4:	10061201 	andne	r1, r6, r1, lsl #4
     ff8:	02000017 	andeq	r0, r0, #23, 0
     ffc:	0b0b0024 	bleq	2c1094 <__bss_end__+0x2b7774>
    1000:	08030b3e 	stmdaeq	r3, {r1, r2, r3, r4, r5, r8, r9, fp}
    1004:	24030000 	strcs	r0, [r3], #-0
    1008:	3e0b0b00 	vmlacc.f64	d0, d11, d0
    100c:	000e030b 	andeq	r0, lr, fp, lsl #6
    1010:	01150400 	tsteq	r5, r0, lsl #8
    1014:	13491927 	movtne	r1, #39207	; 0x9927
    1018:	00001301 	andeq	r1, r0, r1, lsl #6
    101c:	49000505 	stmdbmi	r0, {r0, r2, r8, sl}
    1020:	06000013 			; <UNDEFINED> instruction: 0x06000013
    1024:	0e030034 	mcreq	0, 0, r0, cr3, cr4, {1}
    1028:	0b3b0b3a 	bleq	ec3d18 <__bss_end__+0xeba3f8>
    102c:	13490b39 	movtne	r0, #39737	; 0x9b39
    1030:	193c193f 	ldmdbne	ip!, {r0, r1, r2, r3, r4, r5, r8, fp, ip}
    1034:	0f070000 	svceq	0x00070000
    1038:	490b0b00 	stmdbmi	fp, {r8, r9, fp}
    103c:	08000013 	stmdaeq	r0, {r0, r1, r4}
    1040:	13490026 	movtne	r0, #36902	; 0x9026
    1044:	2e090000 	cdpcs	0, 0, cr0, cr9, cr0, {0}
    1048:	03193f01 	tsteq	r9, #1, 30
    104c:	3b0b3a0e 	blcc	2cf88c <__bss_end__+0x2c5f6c>
    1050:	270b390b 	strcs	r3, [fp, -fp, lsl #18]
    1054:	11134919 	tstne	r3, r9, lsl r9
    1058:	40061201 	andmi	r1, r6, r1, lsl #4
    105c:	19429718 	stmdbne	r2, {r3, r4, r8, r9, sl, ip, pc}^
    1060:	00001301 	andeq	r1, r0, r1, lsl #6
    1064:	0300050a 	movweq	r0, #1290	; 0x50a
    1068:	3b0b3a08 	blcc	2cf890 <__bss_end__+0x2c5f70>
    106c:	490b390b 	stmdbmi	fp, {r0, r1, r3, r8, fp, ip, sp}
    1070:	00180213 	andseq	r0, r8, r3, lsl r2
    1074:	00050b00 	andeq	r0, r5, r0, lsl #22
    1078:	0b3a0803 	bleq	e8308c <__bss_end__+0xe7976c>
    107c:	0b390b3b 	bleq	e43d70 <__bss_end__+0xe3a450>
    1080:	17021349 	strne	r1, [r2, -r9, asr #6]
    1084:	001742b7 			; <UNDEFINED> instruction: 0x001742b7
    1088:	00340c00 	eorseq	r0, r4, r0, lsl #24
    108c:	0b3a0803 	bleq	e830a0 <__bss_end__+0xe79780>
    1090:	0b390b3b 	bleq	e43d84 <__bss_end__+0xe3a464>
    1094:	17021349 	strne	r1, [r2, -r9, asr #6]
    1098:	001742b7 			; <UNDEFINED> instruction: 0x001742b7
    109c:	11010000 	mrsne	r0, (UNDEF: 1)
    10a0:	130e2501 	movwne	r2, #58625	; 0xe501
    10a4:	1b0e030b 	blne	381cd8 <__bss_end__+0x3783b8>
    10a8:	1117550e 	tstne	r7, lr, lsl #10
    10ac:	00171001 	andseq	r1, r7, r1
    10b0:	00240200 	eoreq	r0, r4, r0, lsl #4
    10b4:	0b3e0b0b 	bleq	f83ce8 <__bss_end__+0xf7a3c8>
    10b8:	00000803 	andeq	r0, r0, r3, lsl #16
    10bc:	03001603 	movweq	r1, #1539	; 0x603
    10c0:	3b0b3a0e 	blcc	2cf900 <__bss_end__+0x2c5fe0>
    10c4:	490b390b 	stmdbmi	fp, {r0, r1, r3, r8, fp, ip, sp}
    10c8:	04000013 	streq	r0, [r0], #-19	; 0xffffffed
    10cc:	0b0b0024 	bleq	2c1164 <__bss_end__+0x2b7844>
    10d0:	0e030b3e 	vmoveq.16	d3[0], r0
    10d4:	26050000 	strcs	r0, [r5], -r0
    10d8:	00134900 	andseq	r4, r3, r0, lsl #18
    10dc:	01150600 	tsteq	r5, r0, lsl #12
    10e0:	13491927 	movtne	r1, #39207	; 0x9927
    10e4:	00001301 	andeq	r1, r0, r1, lsl #6
    10e8:	49000507 	stmdbmi	r0, {r0, r1, r2, r8, sl}
    10ec:	08000013 	stmdaeq	r0, {r0, r1, r4}
    10f0:	0e030034 	mcreq	0, 0, r0, cr3, cr4, {1}
    10f4:	0b3b0b3a 	bleq	ec3de4 <__bss_end__+0xeba4c4>
    10f8:	13490b39 	movtne	r0, #39737	; 0x9b39
    10fc:	193c193f 	ldmdbne	ip!, {r0, r1, r2, r3, r4, r5, r8, fp, ip}
    1100:	0f090000 	svceq	0x00090000
    1104:	490b0b00 	stmdbmi	fp, {r8, r9, fp}
    1108:	0a000013 	beq	115c <__code_start__-0x6ea4>
    110c:	193f012e 	ldmdbne	pc!, {r1, r2, r3, r5, r8}	; <UNPREDICTABLE>
    1110:	0b3a0e03 	bleq	e84924 <__bss_end__+0xe7b004>
    1114:	0b390b3b 	bleq	e43e08 <__bss_end__+0xe3a4e8>
    1118:	13491927 	movtne	r1, #39207	; 0x9927
    111c:	06120111 			; <UNDEFINED> instruction: 0x06120111
    1120:	42971840 	addsmi	r1, r7, #64, 16	; 0x400000
    1124:	00130119 	andseq	r0, r3, r9, lsl r1
    1128:	00050b00 	andeq	r0, r5, r0, lsl #22
    112c:	0b3a0803 	bleq	e83140 <__bss_end__+0xe79820>
    1130:	0b390b3b 	bleq	e43e24 <__bss_end__+0xe3a504>
    1134:	17021349 	strne	r1, [r2, -r9, asr #6]
    1138:	001742b7 			; <UNDEFINED> instruction: 0x001742b7
    113c:	00340c00 	eorseq	r0, r4, r0, lsl #24
    1140:	0b3a0803 	bleq	e83154 <__bss_end__+0xe79834>
    1144:	0b390b3b 	bleq	e43e38 <__bss_end__+0xe3a518>
    1148:	17021349 	strne	r1, [r2, -r9, asr #6]
    114c:	001742b7 			; <UNDEFINED> instruction: 0x001742b7
    1150:	11010000 	mrsne	r0, (UNDEF: 1)
    1154:	130e2501 	movwne	r2, #58625	; 0xe501
    1158:	1b0e030b 	blne	381d8c <__bss_end__+0x37846c>
    115c:	1201110e 	andne	r1, r1, #-2147483645	; 0x80000003
    1160:	00171006 	andseq	r1, r7, r6
    1164:	00240200 	eoreq	r0, r4, r0, lsl #4
    1168:	0b3e0b0b 	bleq	f83d9c <__bss_end__+0xf7a47c>
    116c:	00000803 	andeq	r0, r0, r3, lsl #16
    1170:	0b002403 	bleq	a184 <__bss_end__+0x864>
    1174:	030b3e0b 	movweq	r3, #48651	; 0xbe0b
    1178:	0400000e 	streq	r0, [r0], #-14
    117c:	19270115 	stmdbne	r7!, {r0, r2, r4, r8}
    1180:	13011349 	movwne	r1, #4937	; 0x1349
    1184:	05050000 	streq	r0, [r5, #-0]
    1188:	00134900 	andseq	r4, r3, r0, lsl #18
    118c:	00340600 	eorseq	r0, r4, r0, lsl #12
    1190:	0b3a0e03 	bleq	e849a4 <__bss_end__+0xe7b084>
    1194:	0b390b3b 	bleq	e43e88 <__bss_end__+0xe3a568>
    1198:	193f1349 	ldmdbne	pc!, {r0, r3, r6, r8, r9, ip}	; <UNPREDICTABLE>
    119c:	0000193c 	andeq	r1, r0, ip, lsr r9
    11a0:	0b000f07 	bleq	4dc4 <__code_start__-0x323c>
    11a4:	0013490b 	andseq	r4, r3, fp, lsl #18
    11a8:	00260800 	eoreq	r0, r6, r0, lsl #16
    11ac:	00001349 	andeq	r1, r0, r9, asr #6
    11b0:	3f002e09 	svccc	0x00002e09
    11b4:	3a0e0319 	bcc	381e20 <__bss_end__+0x378500>
    11b8:	390b3b0b 	stmdbcc	fp, {r0, r1, r3, r8, r9, fp, ip, sp}
    11bc:	1119270b 	tstne	r9, fp, lsl #14
    11c0:	40061201 	andmi	r1, r6, r1, lsl #4
    11c4:	19429718 	stmdbne	r2, {r3, r4, r8, r9, sl, ip, pc}^
    11c8:	01000000 	mrseq	r0, (UNDEF: 0)
    11cc:	0e250111 	mcreq	1, 1, r0, cr5, cr1, {0}
    11d0:	0e030b13 	vmoveq.32	d3[0], r0
    11d4:	01110e1b 	tsteq	r1, fp, lsl lr
    11d8:	17100612 			; <UNDEFINED> instruction: 0x17100612
    11dc:	24020000 	strcs	r0, [r2], #-0
    11e0:	3e0b0b00 	vmlacc.f64	d0, d11, d0
    11e4:	0008030b 	andeq	r0, r8, fp, lsl #6
    11e8:	00240300 	eoreq	r0, r4, r0, lsl #6
    11ec:	0b3e0b0b 	bleq	f83e20 <__bss_end__+0xf7a500>
    11f0:	00000e03 	andeq	r0, r0, r3, lsl #28
    11f4:	49002604 	stmdbmi	r0, {r2, r9, sl, sp}
    11f8:	05000013 	streq	r0, [r0, #-19]	; 0xffffffed
    11fc:	0e030016 	mcreq	0, 0, r0, cr3, cr6, {0}
    1200:	0b3b0b3a 	bleq	ec3ef0 <__bss_end__+0xeba5d0>
    1204:	13490b39 	movtne	r0, #39737	; 0x9b39
    1208:	04060000 	streq	r0, [r6], #-0
    120c:	0b0b3e01 	bleq	2d0a18 <__bss_end__+0x2c70f8>
    1210:	3a13490b 	bcc	4d3644 <__bss_end__+0x4c9d24>
    1214:	390b3b0b 	stmdbcc	fp, {r0, r1, r3, r8, r9, fp, ip, sp}
    1218:	0013010b 	andseq	r0, r3, fp, lsl #2
    121c:	00280700 	eoreq	r0, r8, r0, lsl #14
    1220:	0b1c0e03 	bleq	704a34 <__bss_end__+0x6fb114>
    1224:	34080000 	strcc	r0, [r8], #-0
    1228:	3a0e0300 	bcc	381e30 <__bss_end__+0x378510>
    122c:	390b3b0b 	stmdbcc	fp, {r0, r1, r3, r8, r9, fp, ip, sp}
    1230:	1c13490b 			; <UNDEFINED> instruction: 0x1c13490b
    1234:	09000006 	stmdbeq	r0, {r1, r2}
    1238:	193f012e 	ldmdbne	pc!, {r1, r2, r3, r5, r8}	; <UNPREDICTABLE>
    123c:	0b3a0e03 	bleq	e84a50 <__bss_end__+0xe7b130>
    1240:	0b390b3b 	bleq	e43f34 <__bss_end__+0xe3a614>
    1244:	13491927 	movtne	r1, #39207	; 0x9927
    1248:	06120111 			; <UNDEFINED> instruction: 0x06120111
    124c:	42971840 	addsmi	r1, r7, #64, 16	; 0x400000
    1250:	00130119 	andseq	r0, r3, r9, lsl r1
    1254:	00050a00 	andeq	r0, r5, r0, lsl #20
    1258:	0b3a0803 	bleq	e8326c <__bss_end__+0xe7994c>
    125c:	0b390b3b 	bleq	e43f50 <__bss_end__+0xe3a630>
    1260:	17021349 	strne	r1, [r2, -r9, asr #6]
    1264:	001742b7 			; <UNDEFINED> instruction: 0x001742b7
    1268:	00340b00 	eorseq	r0, r4, r0, lsl #22
    126c:	0b3a0e03 	bleq	e84a80 <__bss_end__+0xe7b160>
    1270:	0b390b3b 	bleq	e43f64 <__bss_end__+0xe3a644>
    1274:	17021349 	strne	r1, [r2, -r9, asr #6]
    1278:	001742b7 			; <UNDEFINED> instruction: 0x001742b7
    127c:	00340c00 	eorseq	r0, r4, r0, lsl #24
    1280:	0b3a0803 	bleq	e83294 <__bss_end__+0xe79974>
    1284:	0b390b3b 	bleq	e43f78 <__bss_end__+0xe3a658>
    1288:	17021349 	strne	r1, [r2, -r9, asr #6]
    128c:	001742b7 			; <UNDEFINED> instruction: 0x001742b7
    1290:	82890d00 	addhi	r0, r9, #0, 26
    1294:	01110101 	tsteq	r1, r1, lsl #2
    1298:	00001331 	andeq	r1, r0, r1, lsr r3
    129c:	01828a0e 	orreq	r8, r2, lr, lsl #20
    12a0:	91180200 	tstls	r8, r0, lsl #4
    12a4:	00001842 	andeq	r1, r0, r2, asr #16
    12a8:	3f012e0f 	svccc	0x00012e0f
    12ac:	3a0e0319 	bcc	381f18 <__bss_end__+0x3785f8>
    12b0:	390b3b0b 	stmdbcc	fp, {r0, r1, r3, r8, r9, fp, ip, sp}
    12b4:	1119270b 	tstne	r9, fp, lsl #14
    12b8:	40061201 	andmi	r1, r6, r1, lsl #4
    12bc:	19429718 	stmdbne	r2, {r3, r4, r8, r9, sl, ip, pc}^
    12c0:	00001301 	andeq	r1, r0, r1, lsl #6
    12c4:	01828910 	orreq	r8, r2, r0, lsl r9
    12c8:	31011101 	tstcc	r1, r1, lsl #2
    12cc:	00130113 	andseq	r0, r3, r3, lsl r1
    12d0:	82891100 	addhi	r1, r9, #0
    12d4:	01110001 	tsteq	r1, r1
    12d8:	00001331 	andeq	r1, r0, r1, lsr r3
    12dc:	03000512 	movweq	r0, #1298	; 0x512
    12e0:	3b0b3a0e 	blcc	2cfb20 <__bss_end__+0x2c6200>
    12e4:	490b390b 	stmdbmi	fp, {r0, r1, r3, r8, fp, ip, sp}
    12e8:	b7170213 			; <UNDEFINED> instruction: 0xb7170213
    12ec:	00001742 	andeq	r1, r0, r2, asr #14
    12f0:	03012e13 	movweq	r2, #7699	; 0x1e13
    12f4:	3b0b3a0e 	blcc	2cfb34 <__bss_end__+0x2c6214>
    12f8:	270b390b 	strcs	r3, [fp, -fp, lsl #18]
    12fc:	20134919 	andscs	r4, r3, r9, lsl r9
    1300:	0013010b 	andseq	r0, r3, fp, lsl #2
    1304:	00051400 	andeq	r1, r5, r0, lsl #8
    1308:	0b3a0803 	bleq	e8331c <__bss_end__+0xe799fc>
    130c:	0b390b3b 	bleq	e44000 <__bss_end__+0xe3a6e0>
    1310:	00001349 	andeq	r1, r0, r9, asr #6
    1314:	3f002e15 	svccc	0x00002e15
    1318:	6e193c19 	mrcvs	12, 0, r3, cr9, cr9, {0}
    131c:	3a0e030e 	bcc	381f5c <__bss_end__+0x37863c>
    1320:	390b3b0b 	stmdbcc	fp, {r0, r1, r3, r8, r9, fp, ip, sp}
    1324:	0000000b 	andeq	r0, r0, fp

Disassembly of section .debug_loc:

00000000 <.debug_loc>:
       0:	00000000 	andeq	r0, r0, r0
       4:	00000128 	andeq	r0, r0, r8, lsr #2
       8:	0000012c 	andeq	r0, r0, ip, lsr #2
       c:	2c500001 	mrrccs	0, 0, r0, r0, cr1	; <UNPREDICTABLE>
      10:	88000001 	stmdahi	r0, {r0}
      14:	01000001 	tsteq	r0, r1
      18:	00005500 	andeq	r5, r0, r0, lsl #10
      1c:	00000000 	andeq	r0, r0, r0
      20:	00030000 	andeq	r0, r3, r0
      24:	01280000 			; <UNDEFINED> instruction: 0x01280000
      28:	012c0000 			; <UNDEFINED> instruction: 0x012c0000
      2c:	00020000 	andeq	r0, r2, r0
      30:	012c9f30 			; <UNDEFINED> instruction: 0x012c9f30
      34:	01880000 	orreq	r0, r8, r0
      38:	00010000 	andeq	r0, r1, r0
      3c:	00000054 	andeq	r0, r0, r4, asr r0
	...
      48:	00013c00 	andeq	r3, r1, r0, lsl #24
      4c:	00014c00 	andeq	r4, r1, r0, lsl #24
      50:	50000100 	andpl	r0, r0, r0, lsl #2
      54:	00000158 	andeq	r0, r0, r8, asr r1
      58:	00000170 	andeq	r0, r0, r0, ror r1
      5c:	00500001 	subseq	r0, r0, r1
	...
      74:	10000000 	andne	r0, r0, r0
      78:	01000000 	mrseq	r0, (UNDEF: 0)
      7c:	00105000 	andseq	r5, r0, r0
      80:	00280000 	eoreq	r0, r8, r0
      84:	00010000 	andeq	r0, r1, r0
      88:	00002857 	andeq	r2, r0, r7, asr r8
      8c:	00002c00 	andeq	r2, r0, r0, lsl #24
      90:	56000100 	strpl	r0, [r0], -r0, lsl #2
      94:	0000002c 	andeq	r0, r0, ip, lsr #32
      98:	0000008c 	andeq	r0, r0, ip, lsl #1
      9c:	8c570001 	mrrchi	0, 0, r0, r7, cr1
      a0:	00000000 	andeq	r0, r0, r0
      a4:	01000001 	tsteq	r0, r1
      a8:	01005600 	tsteq	r0, r0, lsl #12
      ac:	01140000 	tsteq	r4, r0
      b0:	00040000 	andeq	r0, r4, r0
      b4:	9f5001f3 	svcls	0x005001f3
	...
      c4:	00180000 	andseq	r0, r8, r0
      c8:	001c0000 	andseq	r0, ip, r0
      cc:	00010000 	andeq	r0, r1, r0
      d0:	00001c50 	andeq	r1, r0, r0, asr ip
      d4:	00010000 	andeq	r0, r1, r0
      d8:	55000100 	strpl	r0, [r0, #-256]	; 0xffffff00
      dc:	00000100 	andeq	r0, r0, r0, lsl #2
      e0:	00000114 	andeq	r0, r0, r4, lsl r1
      e4:	00500001 	subseq	r0, r0, r1
      e8:	00000000 	andeq	r0, r0, r0
      ec:	02000000 	andeq	r0, r0, #0, 0
      f0:	18000000 	stmdane	r0, {}	; <UNPREDICTABLE>
      f4:	1c000000 	stcne	0, cr0, [r0], {-0}
      f8:	02000000 	andeq	r0, r0, #0, 0
      fc:	1c9f3000 	ldcne	0, cr3, [pc], {0}
     100:	d4000000 	strle	r0, [r0], #-0
     104:	01000000 	mrseq	r0, (UNDEF: 0)
     108:	00005400 	andeq	r5, r0, r0, lsl #8
	...
     114:	00000038 	andeq	r0, r0, r8, lsr r0
     118:	00000057 	andeq	r0, r0, r7, asr r0
     11c:	00500001 	subseq	r0, r0, r1
	...
     128:	90000000 	andls	r0, r0, r0
     12c:	b4000000 	strlt	r0, [r0], #-0
     130:	01000000 	mrseq	r0, (UNDEF: 0)
     134:	00d05300 	sbcseq	r5, r0, r0, lsl #6
     138:	00d80000 	sbcseq	r0, r8, r0
     13c:	00010000 	andeq	r0, r1, r0
     140:	00000053 	andeq	r0, r0, r3, asr r0
     144:	00000000 	andeq	r0, r0, r0
     148:	d8000000 	stmdale	r0, {}	; <UNPREDICTABLE>
     14c:	00000000 	andeq	r0, r0, r0
     150:	01000001 	tsteq	r0, r1
     154:	00005400 	andeq	r5, r0, r0, lsl #8
	...
     160:	01140000 	tsteq	r4, r0
     164:	01280000 			; <UNDEFINED> instruction: 0x01280000
     168:	00010000 	andeq	r0, r1, r0
     16c:	00012850 	andeq	r2, r1, r0, asr r8
     170:	00022400 	andeq	r2, r2, r0, lsl #8
     174:	55000100 	strpl	r0, [r0, #-256]	; 0xffffff00
	...
     180:	01240000 			; <UNDEFINED> instruction: 0x01240000
     184:	02240000 	eoreq	r0, r4, #0, 0
     188:	00010000 	andeq	r0, r1, r0
     18c:	00000054 	andeq	r0, r0, r4, asr r0
	...
     198:	74000000 	strvc	r0, [r0], #-0
     19c:	ac000001 	stcge	0, cr0, [r0], {1}
     1a0:	01000001 	tsteq	r0, r1
     1a4:	01b05000 	movseq	r5, r0
     1a8:	01e70000 	mvneq	r0, r0
     1ac:	00010000 	andeq	r0, r1, r0
     1b0:	0001ec50 	andeq	lr, r1, r0, asr ip
     1b4:	00022400 	andeq	r2, r2, r0, lsl #8
     1b8:	50000100 	andpl	r0, r0, r0, lsl #2
	...
     1cc:	00000260 	andeq	r0, r0, r0, ror #4
     1d0:	00000270 	andeq	r0, r0, r0, ror r2
     1d4:	70500001 	subsvc	r0, r0, r1
     1d8:	a0000002 	andge	r0, r0, r2
     1dc:	03000002 	movweq	r0, #2
     1e0:	9f797000 	svcls	0x00797000
     1e4:	000002a0 	andeq	r0, r0, r0, lsr #5
     1e8:	00000384 	andeq	r0, r0, r4, lsl #7
     1ec:	01f30004 	mvnseq	r0, r4
     1f0:	03849f50 	orreq	r9, r4, #80, 30	; 0x140
     1f4:	03900000 	orrseq	r0, r0, #0, 0
     1f8:	00010000 	andeq	r0, r1, r0
     1fc:	00000050 	andeq	r0, r0, r0, asr r0
	...
     208:	01010000 	mrseq	r0, (UNDEF: 1)
     20c:	00000000 	andeq	r0, r0, r0
     210:	0002d800 	andeq	sp, r2, r0, lsl #16
     214:	0002dc00 	andeq	sp, r2, r0, lsl #24
     218:	54000100 	strpl	r0, [r0], #-256	; 0xffffff00
     21c:	000002f4 	strdeq	r0, [r0], -r4
     220:	00000314 	andeq	r0, r0, r4, lsl r3
     224:	1c540001 	mrrcne	0, 0, r0, r4, cr1
     228:	28000003 	stmdacs	r0, {r0, r1}
     22c:	01000003 	tsteq	r0, r3
     230:	03285400 			; <UNDEFINED> instruction: 0x03285400
     234:	03300000 	teqeq	r0, #0, 0
     238:	00020000 	andeq	r0, r2, r0
     23c:	03300074 	teqeq	r0, #116, 0	; 0x74
     240:	03780000 	cmneq	r8, #0, 0
     244:	00010000 	andeq	r0, r1, r0
     248:	00037854 	andeq	r7, r3, r4, asr r8
     24c:	00038400 	andeq	r8, r3, r0, lsl #8
     250:	50000100 	andpl	r0, r0, r0, lsl #2
	...
     25c:	01000000 	mrseq	r0, (UNDEF: 0)
     260:	00000001 	andeq	r0, r0, r1
     264:	000002cc 	andeq	r0, r0, ip, asr #5
     268:	00000314 	andeq	r0, r0, r4, lsl r3
     26c:	1c560001 	mrrcne	0, 0, r0, r6, cr1
     270:	28000003 	stmdacs	r0, {r0, r1}
     274:	01000003 	tsteq	r0, r3
     278:	03285600 			; <UNDEFINED> instruction: 0x03285600
     27c:	03300000 	teqeq	r0, #0, 0
     280:	00010000 	andeq	r0, r1, r0
     284:	00033054 	andeq	r3, r3, r4, asr r0
     288:	00038400 	andeq	r8, r3, r0, lsl #8
     28c:	56000100 	strpl	r0, [r0], -r0, lsl #2
	...
     29c:	00000278 	andeq	r0, r0, r8, ror r2
     2a0:	00000314 	andeq	r0, r0, r4, lsl r3
     2a4:	1c550001 	mrrcne	0, 0, r0, r5, cr1
     2a8:	84000003 	strhi	r0, [r0], #-3
     2ac:	01000003 	tsteq	r0, r3
     2b0:	00005500 	andeq	r5, r0, r0, lsl #10
	...
     2bc:	02240000 	eoreq	r0, r4, #0, 0
     2c0:	02300000 	eorseq	r0, r0, #0, 0
     2c4:	00010000 	andeq	r0, r1, r0
     2c8:	00023050 	andeq	r3, r2, r0, asr r0
     2cc:	00026000 	andeq	r6, r2, r0
     2d0:	54000100 	strpl	r0, [r0], #-256	; 0xffffff00
	...
     2e0:	02340000 	eorseq	r0, r4, #0, 0
     2e4:	02440000 	subeq	r0, r4, #0, 0
     2e8:	00010000 	andeq	r0, r1, r0
     2ec:	00024450 	andeq	r4, r2, r0, asr r4
     2f0:	00024700 	andeq	r4, r2, r0, lsl #14
     2f4:	70000300 	andvc	r0, r0, r0, lsl #6
     2f8:	02549f78 	subseq	r9, r4, #120, 30	; 0x1e0
     2fc:	02580000 	subseq	r0, r8, #0, 0
     300:	00010000 	andeq	r0, r1, r0
     304:	00000050 	andeq	r0, r0, r0, asr r0
     308:	00000000 	andeq	r0, r0, r0
     30c:	00000100 	andeq	r0, r0, r0, lsl #2
     310:	00023c00 	andeq	r3, r2, r0, lsl #24
     314:	00024400 	andeq	r4, r2, r0, lsl #8
     318:	50000100 	andpl	r0, r0, r0, lsl #2
     31c:	00000244 	andeq	r0, r0, r4, asr #4
     320:	00000247 	andeq	r0, r0, r7, asr #4
     324:	78700003 	ldmdavc	r0!, {r0, r1}^
     328:	0000009f 	muleq	r0, pc, r0	; <UNPREDICTABLE>
	...
     338:	b4000000 	strlt	r0, [r0], #-0
     33c:	c8000000 	stmdagt	r0, {}	; <UNPREDICTABLE>
     340:	01000000 	mrseq	r0, (UNDEF: 0)
     344:	00c85000 	sbceq	r5, r8, r0
     348:	00ec0000 	rsceq	r0, ip, r0
     34c:	00010000 	andeq	r0, r1, r0
     350:	0000ec54 	andeq	lr, r0, r4, asr ip
     354:	00010400 	andeq	r0, r1, r0, lsl #8
     358:	f3000400 	vshl.u8	d0, d0, d0
     35c:	049f5001 	ldreq	r5, [pc], #1	; 364 <__code_start__-0x7c9c>
     360:	08000001 	stmdaeq	r0, {r0}
     364:	01000001 	tsteq	r0, r1
     368:	01085000 	mrseq	r5, (UNDEF: 8)
     36c:	01140000 	tsteq	r4, r0
     370:	00040000 	andeq	r0, r4, r0
     374:	9f5001f3 	svcls	0x005001f3
	...
     380:	00e80001 	rsceq	r0, r8, r1
     384:	01040000 	mrseq	r0, (UNDEF: 4)
     388:	00010000 	andeq	r0, r1, r0
     38c:	00000055 	andeq	r0, r0, r5, asr r0
	...
     398:	00009c00 	andeq	r9, r0, r0, lsl #24
     39c:	0000ab00 	andeq	sl, r0, r0, lsl #22
     3a0:	50000100 	andpl	r0, r0, r0, lsl #2
     3a4:	000000ab 	andeq	r0, r0, fp, lsr #1
     3a8:	000000b4 	strheq	r0, [r0], -r4
     3ac:	01f30004 	mvnseq	r0, r4
     3b0:	00009f50 	andeq	r9, r0, r0, asr pc
	...
     3c0:	000c0000 	andeq	r0, ip, r0
     3c4:	00010000 	andeq	r0, r1, r0
     3c8:	00000c50 	andeq	r0, r0, r0, asr ip
     3cc:	00006000 	andeq	r6, r0, r0
     3d0:	50000100 	andpl	r0, r0, r0, lsl #2
	...
     3e4:	0000000c 	andeq	r0, r0, ip
     3e8:	0000002c 	andeq	r0, r0, ip, lsr #32
     3ec:	2c520001 	mrrccs	0, 0, r0, r2, cr1
     3f0:	3c000000 	stccc	0, cr0, [r0], {-0}
     3f4:	03000000 	movweq	r0, #0
     3f8:	9f017200 	svcls	0x00017200
     3fc:	0000003c 	andeq	r0, r0, ip, lsr r0
     400:	00000040 	andeq	r0, r0, r0, asr #32
     404:	54520001 	ldrbpl	r0, [r2], #-1
     408:	9c000000 	stcls	0, cr0, [r0], {-0}
     40c:	01000000 	mrseq	r0, (UNDEF: 0)
     410:	00005200 	andeq	r5, r0, r0, lsl #4
     414:	00000000 	andeq	r0, r0, r0
     418:	00020000 	andeq	r0, r2, r0
     41c:	0000005c 	andeq	r0, r0, ip, asr r0
     420:	0000009c 	muleq	r0, ip, r0
     424:	00530001 	subseq	r0, r3, r1
	...
     430:	00007000 	andeq	r7, r0, r0
     434:	00009c00 	andeq	r9, r0, r0, lsl #24
     438:	5c000100 	stfpls	f0, [r0], {-0}
	...
     448:	002c0000 	eoreq	r0, ip, r0
     44c:	00380000 	eorseq	r0, r8, r0
     450:	00010000 	andeq	r0, r1, r0
     454:	00003850 	andeq	r3, r0, r0, asr r8
     458:	00004800 	andeq	r4, r0, r0, lsl #16
     45c:	54000100 	strpl	r0, [r0], #-256	; 0xffffff00
     460:	00000048 	andeq	r0, r0, r8, asr #32
     464:	00000058 	andeq	r0, r0, r8, asr r0
     468:	00500001 	subseq	r0, r0, r1
	...
     478:	0b000000 	bleq	480 <__code_start__-0x7b80>
     47c:	01000000 	mrseq	r0, (UNDEF: 0)
     480:	000b5000 	andeq	r5, fp, r0
     484:	00140000 	andseq	r0, r4, r0
     488:	00010000 	andeq	r0, r1, r0
     48c:	00000054 	andeq	r0, r0, r4, asr r0
     490:	00000000 	andeq	r0, r0, r0
     494:	01010000 	mrseq	r0, (UNDEF: 1)
     498:	00000000 	andeq	r0, r0, r0
     49c:	00000800 	andeq	r0, r0, r0, lsl #16
     4a0:	50000100 	andpl	r0, r0, r0, lsl #2
     4a4:	00000008 	andeq	r0, r0, r8
     4a8:	00000034 	andeq	r0, r0, r4, lsr r0
     4ac:	00540001 	subseq	r0, r4, r1
	...
     4bc:	00028800 	andeq	r8, r2, r0, lsl #16
     4c0:	0002b800 	andeq	fp, r2, r0, lsl #16
     4c4:	50000100 	andpl	r0, r0, r0, lsl #2
     4c8:	000002b8 			; <UNDEFINED> instruction: 0x000002b8
     4cc:	00000704 	andeq	r0, r0, r4, lsl #14
     4d0:	04590001 	ldrbeq	r0, [r9], #-1
     4d4:	40000007 	andmi	r0, r0, r7
     4d8:	04000007 	streq	r0, [r0], #-7
     4dc:	5001f300 	andpl	pc, r1, r0, lsl #6
     4e0:	0000009f 	muleq	r0, pc, r0	; <UNPREDICTABLE>
	...
     4ec:	88000000 	stmdahi	r0, {}	; <UNPREDICTABLE>
     4f0:	a0000002 	andge	r0, r0, r2
     4f4:	01000002 	tsteq	r0, r2
     4f8:	02a05100 	adceq	r5, r0, #0
     4fc:	02b80000 	adcseq	r0, r8, #0, 0
     500:	00030000 	andeq	r0, r3, r0
     504:	b89f0171 	ldmlt	pc, {r0, r4, r5, r6, r8}	; <UNPREDICTABLE>
     508:	40000002 	andmi	r0, r0, r2
     50c:	04000007 	streq	r0, [r0], #-7
     510:	5101f300 	mrspl	pc, SP_irq	; <UNPREDICTABLE>
     514:	0000009f 	muleq	r0, pc, r0	; <UNPREDICTABLE>
	...
     528:	00028800 	andeq	r8, r2, r0, lsl #16
     52c:	0002b800 	andeq	fp, r2, r0, lsl #16
     530:	52000100 	andpl	r0, r0, #0
     534:	000002b8 			; <UNDEFINED> instruction: 0x000002b8
     538:	000003ec 	andeq	r0, r0, ip, ror #7
     53c:	ec560001 	mrrc	0, 0, r0, r6, cr1
     540:	b8000003 	stmdalt	r0, {r0, r1}
     544:	01000004 	tsteq	r0, r4
     548:	04b85b00 	ldrteq	r5, [r8], #2816	; 0xb00
     54c:	04d80000 	ldrbeq	r0, [r8], #0
     550:	00010000 	andeq	r0, r1, r0
     554:	0004d856 	andeq	sp, r4, r6, asr r8
     558:	00055c00 	andeq	r5, r5, r0, lsl #24
     55c:	5b000100 	blpl	964 <__code_start__-0x769c>
     560:	0000055c 	andeq	r0, r0, ip, asr r5
     564:	00000704 	andeq	r0, r0, r4, lsl #14
     568:	00560001 	subseq	r0, r6, r1
     56c:	00000000 	andeq	r0, r0, r0
     570:	01000000 	mrseq	r0, (UNDEF: 0)
     574:	00000000 	andeq	r0, r0, r0
     578:	01010000 	mrseq	r0, (UNDEF: 1)
     57c:	00000000 	andeq	r0, r0, r0
     580:	02020000 	andeq	r0, r2, #0, 0
     584:	9c000000 	stcls	0, cr0, [r0], {-0}
     588:	b8000002 	stmdalt	r0, {r1}
     58c:	01000002 	tsteq	r0, r2
     590:	02b85000 	adcseq	r5, r8, #0, 0
     594:	02bc0000 	adcseq	r0, ip, #0, 0
     598:	00010000 	andeq	r0, r1, r0
     59c:	0002bc54 	andeq	fp, r2, r4, asr ip
     5a0:	0002c000 	andeq	ip, r2, r0
     5a4:	74000300 	strvc	r0, [r0], #-768	; 0xfffffd00
     5a8:	02c09f01 	sbceq	r9, r0, #1, 30
     5ac:	02e40000 	rsceq	r0, r4, #0, 0
     5b0:	00010000 	andeq	r0, r1, r0
     5b4:	0002e454 	andeq	lr, r2, r4, asr r4
     5b8:	0002e800 	andeq	lr, r2, r0, lsl #16
     5bc:	74000300 	strvc	r0, [r0], #-768	; 0xfffffd00
     5c0:	02e89f01 	rsceq	r9, r8, #1, 30
     5c4:	06d40000 	ldrbeq	r0, [r4], r0
     5c8:	00010000 	andeq	r0, r1, r0
     5cc:	0006d454 	andeq	sp, r6, r4, asr r4
     5d0:	0006d800 	andeq	sp, r6, r0, lsl #16
     5d4:	74000300 	strvc	r0, [r0], #-768	; 0xfffffd00
     5d8:	06d89f01 	ldrbeq	r9, [r8], r1, lsl #30
     5dc:	06f00000 	ldrbteq	r0, [r0], r0
     5e0:	00010000 	andeq	r0, r1, r0
     5e4:	0006f054 	andeq	pc, r6, r4, asr r0	; <UNPREDICTABLE>
     5e8:	0006f800 	andeq	pc, r6, r0, lsl #16
     5ec:	74000300 	strvc	r0, [r0], #-768	; 0xfffffd00
     5f0:	06f89f01 	ldrbteq	r9, [r8], r1, lsl #30
     5f4:	07040000 	streq	r0, [r4, -r0]
     5f8:	00010000 	andeq	r0, r1, r0
     5fc:	00000054 	andeq	r0, r0, r4, asr r0
	...
     608:	0002a400 	andeq	sl, r2, r0, lsl #8
     60c:	00070400 	andeq	r0, r7, r0, lsl #8
     610:	58000100 	stmdapl	r0, {r8}
     614:	00000704 	andeq	r0, r0, r4, lsl #14
     618:	00000740 	andeq	r0, r0, r0, asr #14
     61c:	01f3000a 	mvnseq	r0, sl
     620:	5001f351 	andpl	pc, r1, r1, asr r3	; <UNPREDICTABLE>
     624:	9f1c3122 	svcls	0x001c3122
	...
     630:	00000001 	andeq	r0, r0, r1
     634:	04080000 	streq	r0, [r8], #-0
     638:	04740000 	ldrbteq	r0, [r4], #-0
     63c:	00010000 	andeq	r0, r1, r0
     640:	0004d857 	andeq	sp, r4, r7, asr r8
     644:	0004fc00 	andeq	pc, r4, r0, lsl #24
     648:	57000100 	strpl	r0, [r0, -r0, lsl #2]
     64c:	00000540 	andeq	r0, r0, r0, asr #10
     650:	0000055c 	andeq	r0, r0, ip, asr r5
     654:	00570001 	subseq	r0, r7, r1
     658:	00000000 	andeq	r0, r0, r0
     65c:	02000000 	andeq	r0, r0, #0, 0
     660:	08000000 	stmdaeq	r0, {}	; <UNPREDICTABLE>
     664:	b8000004 	stmdalt	r0, {r2}
     668:	01000004 	tsteq	r0, r4
     66c:	04d85a00 	ldrbeq	r5, [r8], #2560	; 0xa00
     670:	055c0000 	ldrbeq	r0, [ip, #-0]
     674:	00010000 	andeq	r0, r1, r0
     678:	0000005a 	andeq	r0, r0, sl, asr r0
     67c:	00000000 	andeq	r0, r0, r0
     680:	00000100 	andeq	r0, r0, r0, lsl #2
     684:	0002ac00 	andeq	sl, r2, r0, lsl #24
     688:	0002b800 	andeq	fp, r2, r0, lsl #16
     68c:	52000100 	andpl	r0, r0, #0
     690:	000002b8 			; <UNDEFINED> instruction: 0x000002b8
     694:	00000740 	andeq	r0, r0, r0, asr #14
     698:	c8910003 	ldmgt	r1, {r0, r1}
     69c:	0000007d 	andeq	r0, r0, sp, ror r0
	...
     6ac:	01010000 	mrseq	r0, (UNDEF: 1)
	...
     6b8:	74000000 	strvc	r0, [r0], #-0
     6bc:	8c000004 	stchi	0, cr0, [r0], {4}
     6c0:	01000004 	tsteq	r0, r4
     6c4:	048c5000 	streq	r5, [ip], #0
     6c8:	04b80000 	ldrteq	r0, [r8], #0
     6cc:	00010000 	andeq	r0, r1, r0
     6d0:	0004fc57 	andeq	pc, r4, r7, asr ip	; <UNPREDICTABLE>
     6d4:	00051400 	andeq	r1, r5, r0, lsl #8
     6d8:	50000100 	andpl	r0, r0, r0, lsl #2
     6dc:	00000514 	andeq	r0, r0, r4, lsl r5
     6e0:	00000540 	andeq	r0, r0, r0, asr #10
     6e4:	a4570001 	ldrbge	r0, [r7], #-1
     6e8:	a4000005 	strge	r0, [r0], #-5
     6ec:	01000005 	tsteq	r0, r5
     6f0:	05a45000 	streq	r5, [r4, #0]!
     6f4:	05ac0000 	streq	r0, [ip, #0]!
     6f8:	00010000 	andeq	r0, r1, r0
     6fc:	0005dc57 	andeq	sp, r5, r7, asr ip
     700:	0005e000 	andeq	lr, r5, r0
     704:	50000100 	andpl	r0, r0, r0, lsl #2
     708:	00000610 	andeq	r0, r0, r0, lsl r6
     70c:	00000614 	andeq	r0, r0, r4, lsl r6
     710:	44500001 	ldrbmi	r0, [r0], #-1
     714:	48000006 	stmdami	r0, {r1, r2}
     718:	01000006 	tsteq	r0, r6
     71c:	068c5000 	streq	r5, [ip], r0
     720:	06900000 	ldreq	r0, [r0], r0
     724:	00010000 	andeq	r0, r1, r0
     728:	0006d050 	andeq	sp, r6, r0, asr r0
     72c:	0006f000 	andeq	pc, r6, r0
     730:	57000100 	strpl	r0, [r0, -r0, lsl #2]
	...
     73c:	00000002 	andeq	r0, r0, r2
     740:	02f40000 	rscseq	r0, r4, #0, 0
     744:	02f80000 	rscseq	r0, r8, #0, 0
     748:	00020000 	andeq	r0, r2, r0
     74c:	02f89f30 	rscseq	r9, r8, #48, 30	; 0xc0
     750:	03140000 	tsteq	r4, #0, 0
     754:	00010000 	andeq	r0, r1, r0
     758:	00031c55 	andeq	r1, r3, r5, asr ip
     75c:	0006f000 	andeq	pc, r6, r0
     760:	55000100 	strpl	r0, [r0, #-256]	; 0xffffff00
	...
     76c:	00000001 	andeq	r0, r0, r1
     770:	00000000 	andeq	r0, r0, r0
     774:	03b80000 			; <UNDEFINED> instruction: 0x03b80000
     778:	04540000 	ldrbeq	r0, [r4], #-0
     77c:	00010000 	andeq	r0, r1, r0
     780:	00045456 	andeq	r5, r4, r6, asr r4
     784:	0004b800 	andeq	fp, r4, r0, lsl #16
     788:	7b000300 	blvc	1390 <__code_start__-0x6c70>
     78c:	04b89f7e 	ldrteq	r9, [r8], #3966	; 0xf7e
     790:	04dc0000 	ldrbeq	r0, [ip], #0
     794:	00010000 	andeq	r0, r1, r0
     798:	0004dc56 	andeq	sp, r4, r6, asr ip
     79c:	00054000 	andeq	r4, r5, r0
     7a0:	7b000300 	blvc	13a8 <__code_start__-0x6c58>
     7a4:	05409f7e 	strbeq	r9, [r0, #-3966]	; 0xfffff082
     7a8:	055c0000 	ldrbeq	r0, [ip, #-0]
     7ac:	00010000 	andeq	r0, r1, r0
     7b0:	00000056 	andeq	r0, r0, r6, asr r0
	...
     7bc:	70000000 	andvc	r0, r0, r0
     7c0:	94000000 	strls	r0, [r0], #-0
     7c4:	01000000 	mrseq	r0, (UNDEF: 0)
     7c8:	00945000 	addseq	r5, r4, r0
     7cc:	00fc0000 	rscseq	r0, ip, r0
     7d0:	00030000 	andeq	r0, r3, r0
     7d4:	fc9f0270 	ldc2	2, cr0, [pc], {112}	; 0x70
     7d8:	24000000 	strcs	r0, [r0], #-0
     7dc:	04000002 	streq	r0, [r0], #-2
     7e0:	5001f300 	andpl	pc, r1, r0, lsl #6
     7e4:	0000009f 	muleq	r0, pc, r0	; <UNPREDICTABLE>
	...
     7fc:	00007000 	andeq	r7, r0, r0
     800:	0000e000 	andeq	lr, r0, r0
     804:	51000100 	mrspl	r0, (UNDEF: 16)
     808:	000000e0 	andeq	r0, r0, r0, ror #1
     80c:	00000154 	andeq	r0, r0, r4, asr r1
     810:	54550001 	ldrbpl	r0, [r5], #-1
     814:	58000001 	stmdapl	r0, {r0}
     818:	01000001 	tsteq	r0, r1
     81c:	01585100 	cmpeq	r8, r0, lsl #2
     820:	01b00000 	movseq	r0, r0
     824:	00010000 	andeq	r0, r1, r0
     828:	0001b055 	andeq	fp, r1, r5, asr r0
     82c:	0001c000 	andeq	ip, r1, r0
     830:	51000100 	mrspl	r0, (UNDEF: 16)
     834:	000001c0 	andeq	r0, r0, r0, asr #3
     838:	000001e4 	andeq	r0, r0, r4, ror #3
     83c:	e4550001 	ldrb	r0, [r5], #-1
     840:	f8000001 			; <UNDEFINED> instruction: 0xf8000001
     844:	01000001 	tsteq	r0, r1
     848:	01f85100 	mvnseq	r5, r0, lsl #2
     84c:	02240000 	eoreq	r0, r4, #0, 0
     850:	00010000 	andeq	r0, r1, r0
     854:	00000055 	andeq	r0, r0, r5, asr r0
	...
     860:	00007000 	andeq	r7, r0, r0
     864:	00008400 	andeq	r8, r0, r0, lsl #8
     868:	52000100 	andpl	r0, r0, #0
     86c:	00000084 	andeq	r0, r0, r4, lsl #1
     870:	00000224 	andeq	r0, r0, r4, lsr #4
     874:	00540001 	subseq	r0, r4, r1
	...
     884:	00000001 	andeq	r0, r0, r1
     888:	70000000 	andvc	r0, r0, r0
     88c:	f4000000 	vst4.8	{d0-d3}, [r0], r0
     890:	01000000 	mrseq	r0, (UNDEF: 0)
     894:	014c5300 	mrseq	r5, SPSR_mon
     898:	01800000 	orreq	r0, r0, r0
     89c:	00010000 	andeq	r0, r1, r0
     8a0:	00018053 	andeq	r8, r1, r3, asr r0
     8a4:	00018c00 	andeq	r8, r1, r0, lsl #24
     8a8:	f3000400 	vshl.u8	d0, d0, d0
     8ac:	b09f5301 	addslt	r5, pc, r1, lsl #6
     8b0:	e8000001 	stmda	r0, {r0}
     8b4:	01000001 	tsteq	r0, r1
     8b8:	01e85300 	mvneq	r5, r0, lsl #6
     8bc:	01ff0000 	mvnseq	r0, r0
     8c0:	00010000 	andeq	r0, r1, r0
     8c4:	0001ff5c 	andeq	pc, r1, ip, asr pc	; <UNPREDICTABLE>
     8c8:	00022400 	andeq	r2, r2, r0, lsl #8
     8cc:	f3000400 	vshl.u8	d0, d0, d0
     8d0:	009f5301 	addseq	r5, pc, r1, lsl #6
	...
     8e0:	00007000 	andeq	r7, r0, r0
     8e4:	00008c00 	andeq	r8, r0, r0, lsl #24
     8e8:	91000200 	mrsls	r0, R8_usr
     8ec:	00008c00 	andeq	r8, r0, r0, lsl #24
     8f0:	00019300 	andeq	r9, r1, r0, lsl #6
     8f4:	52000100 	andpl	r0, r0, #0
     8f8:	000001b0 			; <UNDEFINED> instruction: 0x000001b0
     8fc:	000001f4 	strdeq	r0, [r0], -r4
     900:	00520001 	subseq	r0, r2, r1
     904:	00000000 	andeq	r0, r0, r0
     908:	01000000 	mrseq	r0, (UNDEF: 0)
     90c:	01010000 	mrseq	r0, (UNDEF: 1)
	...
     918:	01010101 	tsteq	r1, r1, lsl #2
     91c:	01010000 	mrseq	r0, (UNDEF: 1)
	...
     928:	8c000000 	stchi	0, cr0, [r0], {-0}
     92c:	fc000000 	stc2	0, cr0, [r0], {-0}
     930:	04000000 	streq	r0, [r0], #-0
     934:	7fa09100 	svcvc	0x00a09100
     938:	0000fc9f 	muleq	r0, pc, ip	; <UNPREDICTABLE>
     93c:	00013c00 	andeq	r3, r1, r0, lsl #24
     940:	50000100 	andpl	r0, r0, r0, lsl #2
     944:	0000013c 	andeq	r0, r0, ip, lsr r1
     948:	00000148 	andeq	r0, r0, r8, asr #2
     94c:	02710003 	rsbseq	r0, r1, #3, 0
     950:	0001489f 	muleq	r1, pc, r8	; <UNPREDICTABLE>
     954:	00014c00 	andeq	r4, r1, r0, lsl #24
     958:	50000100 	andpl	r0, r0, r0, lsl #2
     95c:	0000014c 	andeq	r0, r0, ip, asr #2
     960:	00000158 	andeq	r0, r0, r8, asr r1
     964:	a0910004 	addsge	r0, r1, r4
     968:	01589f7f 	cmpeq	r8, pc, ror pc
     96c:	016c0000 	cmneq	ip, r0
     970:	00010000 	andeq	r0, r1, r0
     974:	00016c51 	andeq	r6, r1, r1, asr ip
     978:	00017800 	andeq	r7, r1, r0, lsl #16
     97c:	71000300 	mrsvc	r0, LR_irq
     980:	01789f7f 	cmneq	r8, pc, ror pc
     984:	01840000 	orreq	r0, r4, r0
     988:	00030000 	andeq	r0, r3, r0
     98c:	849f0171 	ldrhi	r0, [pc], #369	; 994 <__code_start__-0x766c>
     990:	93000001 	movwls	r0, #1
     994:	01000001 	tsteq	r0, r1
     998:	01b05000 	movseq	r5, r0
     99c:	01b00000 	movseq	r0, r0
     9a0:	00040000 	andeq	r0, r4, r0
     9a4:	9f7fa091 	svcls	0x007fa091
     9a8:	000001b0 			; <UNDEFINED> instruction: 0x000001b0
     9ac:	000001b8 			; <UNDEFINED> instruction: 0x000001b8
     9b0:	a1910004 	orrsge	r0, r1, r4
     9b4:	01b89f7f 			; <UNDEFINED> instruction: 0x01b89f7f
     9b8:	01bc0000 			; <UNDEFINED> instruction: 0x01bc0000
     9bc:	00010000 	andeq	r0, r1, r0
     9c0:	0001bc50 	andeq	fp, r1, r0, asr ip
     9c4:	0001c000 	andeq	ip, r1, r0
     9c8:	91000400 	tstls	r0, r0, lsl #8
     9cc:	c09f7fa0 	addsgt	r7, pc, r0, lsr #31
     9d0:	d4000001 	strle	r0, [r0], #-1
     9d4:	01000001 	tsteq	r0, r1
     9d8:	01d45000 	bicseq	r5, r4, r0
     9dc:	01e40000 	mvneq	r0, r0
     9e0:	00030000 	andeq	r0, r3, r0
     9e4:	e49f7f70 	ldr	r7, [pc], #3952	; 9ec <__code_start__-0x7614>
     9e8:	24000001 	strcs	r0, [r0], #-1
     9ec:	04000002 	streq	r0, [r0], #-2
     9f0:	7fa09100 	svcvc	0x00a09100
     9f4:	0000009f 	muleq	r0, pc, r0	; <UNPREDICTABLE>
	...
     a00:	00000101 	andeq	r0, r0, r1, lsl #2
	...
     a10:	00009000 	andeq	r9, r0, r0
     a14:	0000dc00 	andeq	sp, r0, r0, lsl #24
     a18:	5c000100 	stfpls	f0, [r0], {-0}
     a1c:	000000dc 	ldrdeq	r0, [r0], -ip
     a20:	000000f4 	strdeq	r0, [r0], -r4
     a24:	f4530001 			; <UNDEFINED> instruction: 0xf4530001
     a28:	4c000000 	stcmi	0, cr0, [r0], {-0}
     a2c:	01000001 	tsteq	r0, r1
     a30:	014c5c00 	cmpeq	ip, r0, lsl #24
     a34:	01580000 	cmpeq	r8, r0
     a38:	00010000 	andeq	r0, r1, r0
     a3c:	00015853 	andeq	r5, r1, r3, asr r8
     a40:	00017400 	andeq	r7, r1, r0, lsl #8
     a44:	5c000100 	stfpls	f0, [r0], {-0}
     a48:	000001b0 			; <UNDEFINED> instruction: 0x000001b0
     a4c:	000001c0 	andeq	r0, r0, r0, asr #3
     a50:	c0530001 	subsgt	r0, r3, r1
     a54:	dc000001 	stcle	0, cr0, [r0], {1}
     a58:	01000001 	tsteq	r0, r1
     a5c:	01e45c00 	mvneq	r5, r0, lsl #24
     a60:	01e80000 	mvneq	r0, r0
     a64:	00010000 	andeq	r0, r1, r0
     a68:	0001e853 	andeq	lr, r1, r3, asr r8
     a6c:	0001ff00 	andeq	pc, r1, r0, lsl #30
     a70:	5c000100 	stfpls	f0, [r0], {-0}
     a74:	000001ff 	strdeq	r0, [r0], -pc	; <UNPREDICTABLE>
     a78:	00000224 	andeq	r0, r0, r4, lsr #4
     a7c:	01f30004 	mvnseq	r0, r4
     a80:	00009f53 	andeq	r9, r0, r3, asr pc
     a84:	00000000 	andeq	r0, r0, r0
     a88:	01010000 	mrseq	r0, (UNDEF: 1)
     a8c:	00000001 	andeq	r0, r0, r1
     a90:	00dc0000 	sbcseq	r0, ip, r0
     a94:	00f00000 	rscseq	r0, r0, r0
     a98:	00020000 	andeq	r0, r2, r0
     a9c:	00f09f30 	rscseq	r9, r0, r0, lsr pc
     aa0:	00f80000 	rscseq	r0, r8, r0
     aa4:	00020000 	andeq	r0, r2, r0
     aa8:	00fc9f31 	rscseq	r9, ip, r1, lsr pc
     aac:	014c0000 	mrseq	r0, (UNDEF: 76)
     ab0:	00010000 	andeq	r0, r1, r0
     ab4:	00014c56 	andeq	r4, r1, r6, asr ip
     ab8:	00015400 	andeq	r5, r1, r0, lsl #8
     abc:	30000200 	andcc	r0, r0, r0, lsl #4
     ac0:	0000009f 	muleq	r0, pc, r0	; <UNPREDICTABLE>
	...
     acc:	00000101 	andeq	r0, r0, r1, lsl #2
     ad0:	38000101 	stmdacc	r0, {r0, r8}
     ad4:	54000000 	strpl	r0, [r0], #-0
     ad8:	01000000 	mrseq	r0, (UNDEF: 0)
     adc:	00545000 	subseq	r5, r4, r0
     ae0:	00580000 	subseq	r0, r8, r0
     ae4:	00010000 	andeq	r0, r1, r0
     ae8:	00005852 	andeq	r5, r0, r2, asr r8
     aec:	00006000 	andeq	r6, r0, r0
     af0:	72000300 	andvc	r0, r0, #0, 6
     af4:	00609f01 	rsbeq	r9, r0, r1, lsl #30
     af8:	00640000 	rsbeq	r0, r4, r0
     afc:	00010000 	andeq	r0, r1, r0
     b00:	00006452 	andeq	r6, r0, r2, asr r4
     b04:	00007000 	andeq	r7, r0, r0
     b08:	72000300 	andvc	r0, r0, #0, 6
     b0c:	00009f01 	andeq	r9, r0, r1, lsl #30
	...
     b18:	00380000 	eorseq	r0, r8, r0
     b1c:	00500000 	subseq	r0, r0, r0
     b20:	00010000 	andeq	r0, r1, r0
     b24:	00005051 	andeq	r5, r0, r1, asr r0
     b28:	00007000 	andeq	r7, r0, r0
     b2c:	f3000400 	vshl.u8	d0, d0, d0
     b30:	009f5101 	addseq	r5, pc, r1, lsl #2
	...
     b40:	38000101 	stmdacc	r0, {r0, r8}
     b44:	50000000 	andpl	r0, r0, r0
     b48:	01000000 	mrseq	r0, (UNDEF: 0)
     b4c:	00505200 	subseq	r5, r0, r0, lsl #4
     b50:	005c0000 	subseq	r0, ip, r0
     b54:	00010000 	andeq	r0, r1, r0
     b58:	00005c51 	andeq	r5, r0, r1, asr ip
     b5c:	00006000 	andeq	r6, r0, r0
     b60:	71000300 	mrsvc	r0, LR_irq
     b64:	00609f01 	rsbeq	r9, r0, r1, lsl #30
     b68:	00700000 	rsbseq	r0, r0, r0
     b6c:	00010000 	andeq	r0, r1, r0
     b70:	00000051 	andeq	r0, r0, r1, asr r0
	...
     b7c:	00003800 	andeq	r3, r0, r0, lsl #16
     b80:	00004c00 	andeq	r4, r0, r0, lsl #24
     b84:	53000100 	movwpl	r0, #256	; 0x100
     b88:	0000004c 	andeq	r0, r0, ip, asr #32
     b8c:	00000068 	andeq	r0, r0, r8, rrx
     b90:	00530001 	subseq	r0, r3, r1
	...
     ba0:	40000000 	andmi	r0, r0, r0
     ba4:	48000000 	stmdami	r0, {}	; <UNPREDICTABLE>
     ba8:	01000000 	mrseq	r0, (UNDEF: 0)
     bac:	00485c00 	subeq	r5, r8, r0, lsl #24
     bb0:	004c0000 	subeq	r0, ip, r0
     bb4:	00080000 	andeq	r0, r8, r0
     bb8:	00730072 	rsbseq	r0, r3, r2, ror r0
     bbc:	9f01231c 	svcls	0x0001231c
     bc0:	0000004c 	andeq	r0, r0, ip, asr #32
     bc4:	00000054 	andeq	r0, r0, r4, asr r0
     bc8:	00720009 	rsbseq	r0, r2, r9
     bcc:	1c5301f3 	ldfnee	f0, [r3], {243}	; 0xf3
     bd0:	549f0123 	ldrpl	r0, [pc], #291	; bd8 <__code_start__-0x7428>
     bd4:	70000000 	andvc	r0, r0, r0
     bd8:	0a000000 	beq	be0 <__code_start__-0x7420>
     bdc:	5201f300 	andpl	pc, r1, #0, 6
     be0:	1c5301f3 	ldfnee	f0, [r3], {243}	; 0xf3
     be4:	009f0123 	addseq	r0, pc, r3, lsr #2
     be8:	00000000 	andeq	r0, r0, r0
     bec:	01000000 	mrseq	r0, (UNDEF: 0)
     bf0:	00004c00 	andeq	r4, r0, r0, lsl #24
     bf4:	00007000 	andeq	r7, r0, r0
     bf8:	50000100 	andpl	r0, r0, r0, lsl #2
	...
     c04:	00010100 	andeq	r0, r1, r0, lsl #2
     c08:	00140000 	andseq	r0, r4, r0
     c0c:	001c0000 	andseq	r0, ip, r0
     c10:	00010000 	andeq	r0, r1, r0
     c14:	00001c50 	andeq	r1, r0, r0, asr ip
     c18:	00002400 	andeq	r2, r0, r0, lsl #8
     c1c:	70000300 	andvc	r0, r0, r0, lsl #6
     c20:	00249f01 	eoreq	r9, r4, r1, lsl #30
     c24:	00380000 	eorseq	r0, r8, r0
     c28:	00010000 	andeq	r0, r1, r0
     c2c:	00000050 	andeq	r0, r0, r0, asr r0
	...
     c38:	00001400 	andeq	r1, r0, r0, lsl #8
     c3c:	00001800 	andeq	r1, r0, r0, lsl #16
     c40:	51000100 	mrspl	r0, (UNDEF: 16)
     c44:	00000018 	andeq	r0, r0, r8, lsl r0
     c48:	00000038 	andeq	r0, r0, r8, lsr r0
     c4c:	01f30004 	mvnseq	r0, r4
     c50:	00009f51 	andeq	r9, r0, r1, asr pc
	...
     c5c:	00000018 	andeq	r0, r0, r8, lsl r0
     c60:	00000038 	andeq	r0, r0, r8, lsr r0
     c64:	00510001 	subseq	r0, r1, r1
	...
     c78:	00000400 	andeq	r0, r0, r0, lsl #8
     c7c:	50000100 	andpl	r0, r0, r0, lsl #2
     c80:	00000004 	andeq	r0, r0, r4
     c84:	0000000c 	andeq	r0, r0, ip
     c88:	30700003 	rsbscc	r0, r0, r3
     c8c:	00000c9f 	muleq	r0, pc, ip	; <UNPREDICTABLE>
     c90:	00001400 	andeq	r1, r0, r0, lsl #8
     c94:	f3000400 	vshl.u8	d0, d0, d0
     c98:	009f5001 	addseq	r5, pc, r1
	...
     ca4:	24000000 	strcs	r0, [r0], #-0
     ca8:	68000002 	stmdavs	r0, {r1}
     cac:	01000002 	tsteq	r0, r2
     cb0:	02685000 	rsbeq	r5, r8, #0, 0
     cb4:	02880000 	addeq	r0, r8, #0, 0
     cb8:	00040000 	andeq	r0, r4, r0
     cbc:	9f5001f3 	svcls	0x005001f3
	...
     ccc:	00000224 	andeq	r0, r0, r4, lsr #4
     cd0:	00000264 	andeq	r0, r0, r4, ror #4
     cd4:	64510001 	ldrbvs	r0, [r1], #-1
     cd8:	88000002 	stmdahi	r0, {r1}
     cdc:	04000002 	streq	r0, [r0], #-2
     ce0:	5101f300 	mrspl	pc, SP_irq	; <UNPREDICTABLE>
     ce4:	0000009f 	muleq	r0, pc, r0	; <UNPREDICTABLE>
     ce8:	00000000 	andeq	r0, r0, r0
     cec:	01010000 	mrseq	r0, (UNDEF: 1)
     cf0:	0c000000 	stceq	0, cr0, [r0], {-0}
     cf4:	14000000 	strne	r0, [r0], #-0
     cf8:	01000000 	mrseq	r0, (UNDEF: 0)
     cfc:	00145300 	andseq	r5, r4, r0, lsl #6
     d00:	001c0000 	andseq	r0, ip, r0
     d04:	00030000 	andeq	r0, r3, r0
     d08:	1c9f0473 	cfldrsne	mvf0, [pc], {115}	; 0x73
     d0c:	23000000 	movwcs	r0, #0
     d10:	01000000 	mrseq	r0, (UNDEF: 0)
     d14:	00005300 	andeq	r5, r0, r0, lsl #6
     d18:	00000000 	andeq	r0, r0, r0
     d1c:	00010000 	andeq	r0, r1, r0
     d20:	00008e28 	andeq	r8, r0, r8, lsr #28
     d24:	00008e44 	andeq	r8, r0, r4, asr #28
     d28:	1c0c0006 	stcne	0, cr0, [ip], {6}
     d2c:	9f201000 	svcls	0x00201000
	...
     d38:	8e280002 	cdphi	0, 2, cr0, cr8, cr2, {0}
     d3c:	8e440000 	cdphi	0, 4, cr0, cr4, cr0, {0}
     d40:	00060000 	andeq	r0, r6, r0
     d44:	1000240c 	andne	r2, r0, ip, lsl #8
     d48:	00009f20 	andeq	r9, r0, r0, lsr #30
     d4c:	00000000 	andeq	r0, r0, r0
     d50:	00030000 	andeq	r0, r3, r0
     d54:	00008e28 	andeq	r8, r0, r8, lsr #28
     d58:	00008e44 	andeq	r8, r0, r4, asr #28
     d5c:	b4080005 	strlt	r0, [r8], #-5
     d60:	009f2447 	addseq	r2, pc, r7, asr #8
     d64:	00000000 	andeq	r0, r0, r0
     d68:	04000000 	streq	r0, [r0], #-0
     d6c:	008e2800 	addeq	r2, lr, r0, lsl #16
     d70:	008e4400 	addeq	r4, lr, r0, lsl #8
     d74:	08000300 	stmdaeq	r0, {r8, r9}
     d78:	00009f20 	andeq	r9, r0, r0, lsr #30
     d7c:	00000000 	andeq	r0, r0, r0
     d80:	00020000 	andeq	r0, r2, r0
     d84:	00000000 	andeq	r0, r0, r0
     d88:	00008df4 	strdeq	r8, [r0], -r4
     d8c:	00008df8 	strdeq	r8, [r0], -r8	; <UNPREDICTABLE>
     d90:	9f300002 	svcls	0x00300002
     d94:	00008df8 	strdeq	r8, [r0], -r8	; <UNPREDICTABLE>
     d98:	00008dfc 	strdeq	r8, [r0], -ip
     d9c:	00530001 	subseq	r0, r3, r1
     da0:	0800008e 	stmdaeq	r0, {r1, r2, r3, r7}
     da4:	0100008e 	smlabbeq	r0, lr, r0, r0
     da8:	00005300 	andeq	r5, r0, r0, lsl #6
     dac:	00000000 	andeq	r0, r0, r0
     db0:	00020000 	andeq	r0, r2, r0
     db4:	8ddc0000 	ldclhi	0, cr0, [ip]
     db8:	8de00000 	stclhi	0, cr0, [r0]
     dbc:	00020000 	andeq	r0, r2, r0
     dc0:	8de09f30 	stclhi	15, cr9, [r0, #192]!	; 0xc0
     dc4:	8de40000 	stclhi	0, cr0, [r4]
     dc8:	00010000 	andeq	r0, r1, r0
     dcc:	00000050 	andeq	r0, r0, r0, asr r0
	...
     dd8:	00006c00 	andeq	r6, r0, r0, lsl #24
     ddc:	00007800 	andeq	r7, r0, r0, lsl #16
     de0:	50000100 	andpl	r0, r0, r0, lsl #2
     de4:	00000078 	andeq	r0, r0, r8, ror r0
     de8:	00000084 	andeq	r0, r0, r4, lsl #1
     dec:	01f30004 	mvnseq	r0, r4
     df0:	00009f50 	andeq	r9, r0, r0, asr pc
	...
     dfc:	00540000 	subseq	r0, r4, r0
     e00:	00600000 	rsbeq	r0, r0, r0
     e04:	00010000 	andeq	r0, r1, r0
     e08:	00006050 	andeq	r6, r0, r0, asr r0
     e0c:	00006c00 	andeq	r6, r0, r0, lsl #24
     e10:	f3000400 	vshl.u8	d0, d0, d0
     e14:	009f5001 	addseq	r5, pc, r1
	...
     e20:	30000000 	andcc	r0, r0, r0
     e24:	3b000000 	blcc	e2c <__code_start__-0x71d4>
     e28:	01000000 	mrseq	r0, (UNDEF: 0)
     e2c:	003b5000 	eorseq	r5, fp, r0
     e30:	00540000 	subseq	r0, r4, r0
     e34:	00010000 	andeq	r0, r1, r0
     e38:	00000055 	andeq	r0, r0, r5, asr r0
     e3c:	00000000 	andeq	r0, r0, r0
     e40:	40000000 	andmi	r0, r0, r0
     e44:	54000000 	strpl	r0, [r0], #-0
     e48:	01000000 	mrseq	r0, (UNDEF: 0)
     e4c:	00005400 	andeq	r5, r0, r0, lsl #8
	...
     e58:	00000044 	andeq	r0, r0, r4, asr #32
     e5c:	00000048 	andeq	r0, r0, r8, asr #32
     e60:	00500001 	subseq	r0, r0, r1
	...
     e6c:	24000000 	strcs	r0, [r0], #-0
     e70:	27000000 	strcs	r0, [r0, -r0]
     e74:	01000000 	mrseq	r0, (UNDEF: 0)
     e78:	00275000 	eoreq	r5, r7, r0
     e7c:	00300000 	eorseq	r0, r0, r0
     e80:	00010000 	andeq	r0, r1, r0
     e84:	00000054 	andeq	r0, r0, r4, asr r0
	...
     e90:	00015800 	andeq	r5, r1, r0, lsl #16
     e94:	00016300 	andeq	r6, r1, r0, lsl #6
     e98:	50000100 	andpl	r0, r0, r0, lsl #2
     e9c:	00000163 	andeq	r0, r0, r3, ror #2
     ea0:	00000188 	andeq	r0, r0, r8, lsl #3
     ea4:	00540001 	subseq	r0, r4, r1
	...
     eb0:	00014800 	andeq	r4, r1, r0, lsl #16
     eb4:	00015800 	andeq	r5, r1, r0, lsl #16
     eb8:	54000100 	strpl	r0, [r0], #-256	; 0xffffff00
	...
     ecc:	0000000f 	andeq	r0, r0, pc
     ed0:	0f500001 	svceq	0x00500001
     ed4:	20000000 	andcs	r0, r0, r0
     ed8:	01000000 	mrseq	r0, (UNDEF: 0)
     edc:	00005400 	andeq	r5, r0, r0, lsl #8
	...
     eec:	000f0000 	andeq	r0, pc, r0
     ef0:	00010000 	andeq	r0, r1, r0
     ef4:	00000f51 	andeq	r0, r0, r1, asr pc
     ef8:	00002000 	andeq	r2, r0, r0
     efc:	55000100 	strpl	r0, [r0, #-256]	; 0xffffff00
	...
     f0c:	00000020 	andeq	r0, r0, r0, lsr #32
     f10:	0000002f 	andeq	r0, r0, pc, lsr #32
     f14:	2f500001 	svccs	0x00500001
     f18:	40000000 	andmi	r0, r0, r0
     f1c:	01000000 	mrseq	r0, (UNDEF: 0)
     f20:	00005400 	andeq	r5, r0, r0, lsl #8
	...
     f2c:	00200000 	eoreq	r0, r0, r0
     f30:	002f0000 	eoreq	r0, pc, r0
     f34:	00010000 	andeq	r0, r1, r0
     f38:	00002f51 	andeq	r2, r0, r1, asr pc
     f3c:	00004000 	andeq	r4, r0, r0
     f40:	55000100 	strpl	r0, [r0, #-256]	; 0xffffff00
	...
     f54:	0000001c 	andeq	r0, r0, ip, lsl r0
     f58:	1c510001 	mrrcne	0, 0, r0, r1, cr1
     f5c:	34000000 	strcc	r0, [r0], #-0
     f60:	04000000 	streq	r0, [r0], #-0
     f64:	5101f300 	mrspl	pc, SP_irq	; <UNPREDICTABLE>
     f68:	0000009f 	muleq	r0, pc, r0	; <UNPREDICTABLE>
     f6c:	00000000 	andeq	r0, r0, r0
     f70:	00000200 	andeq	r0, r0, r0, lsl #4
     f74:	01010000 	mrseq	r0, (UNDEF: 1)
     f78:	00000000 	andeq	r0, r0, r0
     f7c:	04000000 	streq	r0, [r0], #-0
     f80:	01000000 	mrseq	r0, (UNDEF: 0)
     f84:	00045000 	andeq	r5, r4, r0
     f88:	001c0000 	andseq	r0, ip, r0
     f8c:	00010000 	andeq	r0, r1, r0
     f90:	00001c52 	andeq	r1, r0, r2, asr ip
     f94:	00002400 	andeq	r2, r0, r0, lsl #8
     f98:	53000100 	movwpl	r0, #256	; 0x100
     f9c:	00000024 	andeq	r0, r0, r4, lsr #32
     fa0:	00000028 	andeq	r0, r0, r8, lsr #32
     fa4:	01730003 	cmneq	r3, r3
     fa8:	0000289f 	muleq	r0, pc, r8	; <UNPREDICTABLE>
     fac:	00003400 	andeq	r3, r0, r0, lsl #8
     fb0:	53000100 	movwpl	r0, #256	; 0x100
	...
     fbc:	00000003 	andeq	r0, r0, r3
     fc0:	00000000 	andeq	r0, r0, r0
     fc4:	00000024 	andeq	r0, r0, r4, lsr #32
     fc8:	24510001 	ldrbcs	r0, [r1], #-1
     fcc:	34000000 	strcc	r0, [r0], #-0
     fd0:	03000000 	movweq	r0, #0
     fd4:	9f7f7100 	svcls	0x007f7100
	...
     fe4:	00000010 	andeq	r0, r0, r0, lsl r0
     fe8:	0000001c 	andeq	r0, r0, ip, lsl r0
     fec:	245c0001 	ldrbcs	r0, [ip], #-1
     ff0:	34000000 	strcc	r0, [r0], #-0
     ff4:	01000000 	mrseq	r0, (UNDEF: 0)
     ff8:	00005200 	andeq	r5, r0, r0, lsl #4
	...
    1008:	00180000 	andseq	r0, r8, r0
    100c:	00010000 	andeq	r0, r1, r0
    1010:	00001850 	andeq	r1, r0, r0, asr r8
    1014:	00002400 	andeq	r2, r0, r0, lsl #8
    1018:	50000100 	andpl	r0, r0, r0, lsl #2
	...
    102c:	0000001c 	andeq	r0, r0, ip, lsl r0
    1030:	1c510001 	mrrcne	0, 0, r0, r1, cr1
    1034:	2c000000 	stccs	0, cr0, [r0], {-0}
    1038:	01000000 	mrseq	r0, (UNDEF: 0)
    103c:	00005100 	andeq	r5, r0, r0, lsl #2
	...
    1050:	00000004 	andeq	r0, r0, r4
    1054:	04510001 	ldrbeq	r0, [r1], #-1
    1058:	0c000000 	stceq	0, cr0, [r0], {-0}
    105c:	01000000 	mrseq	r0, (UNDEF: 0)
    1060:	000c5100 	andeq	r5, ip, r0, lsl #2
    1064:	00200000 	eoreq	r0, r0, r0
    1068:	00030000 	andeq	r0, r3, r0
    106c:	009f7f71 	addseq	r7, pc, r1, ror pc	; <UNPREDICTABLE>
    1070:	00000000 	andeq	r0, r0, r0
    1074:	02000000 	andeq	r0, r0, #0, 0
	...
    1080:	00000400 	andeq	r0, r0, r0, lsl #8
    1084:	50000100 	andpl	r0, r0, r0, lsl #2
    1088:	00000004 	andeq	r0, r0, r4
    108c:	00000014 	andeq	r0, r0, r4, lsl r0
    1090:	145c0001 	ldrbne	r0, [ip], #-1
    1094:	20000000 	andcs	r0, r0, r0
    1098:	03000000 	movweq	r0, #0
    109c:	9f7f7c00 	svcls	0x007f7c00
	...
    10a8:	00030300 	andeq	r0, r3, r0, lsl #6
    10ac:	00009150 	andeq	r9, r0, r0, asr r1
    10b0:	00009150 	andeq	r9, r0, r0, asr r1
    10b4:	50500001 	subspl	r0, r0, r1
    10b8:	7c000091 	stcvc	0, cr0, [r0], {145}	; 0x91
    10bc:	04000091 	streq	r0, [r0], #-145	; 0xffffff6f
    10c0:	5001f300 	andpl	pc, r1, r0, lsl #6
    10c4:	0000009f 	muleq	r0, pc, r0	; <UNPREDICTABLE>
    10c8:	00000000 	andeq	r0, r0, r0
    10cc:	03030000 	movweq	r0, #12288	; 0x3000
    10d0:	00915000 	addseq	r5, r1, r0
    10d4:	00915000 	addseq	r5, r1, r0
    10d8:	51000100 	mrspl	r0, (UNDEF: 16)
    10dc:	00009150 	andeq	r9, r0, r0, asr r1
    10e0:	0000917c 	andeq	r9, r0, ip, ror r1
    10e4:	01f30004 	mvnseq	r0, r4
    10e8:	00009f51 	andeq	r9, r0, r1, asr pc
    10ec:	00000000 	andeq	r0, r0, r0
    10f0:	03000000 	movweq	r0, #0
    10f4:	00000003 	andeq	r0, r0, r3
    10f8:	00009150 	andeq	r9, r0, r0, asr r1
    10fc:	00009150 	andeq	r9, r0, r0, asr r1
    1100:	50520001 	subspl	r0, r2, r1
    1104:	58000091 	stmdapl	r0, {r0, r4, r7}
    1108:	01000091 	swpeq	r0, r1, [r0]	; <UNPREDICTABLE>
    110c:	91585200 	cmpls	r8, r0, lsl #4
    1110:	917c0000 	cmnls	ip, r0
    1114:	00030000 	andeq	r0, r3, r0
    1118:	009f0172 	addseq	r0, pc, r2, ror r1	; <UNPREDICTABLE>
    111c:	00000000 	andeq	r0, r0, r0
    1120:	02000000 	andeq	r0, r0, #0, 0
    1124:	00000101 	andeq	r0, r0, r1, lsl #2
    1128:	50000000 	andpl	r0, r0, r0
    112c:	5c000091 	stcpl	0, cr0, [r0], {145}	; 0x91
    1130:	01000091 	swpeq	r0, r1, [r0]	; <UNPREDICTABLE>
    1134:	915c5000 	cmpls	ip, r0
    1138:	91600000 	cmnls	r0, r0
    113c:	00030000 	andeq	r0, r3, r0
    1140:	609f0170 	addsvs	r0, pc, r0, ror r1	; <UNPREDICTABLE>
    1144:	70000091 	mulvc	r0, r1, r0
    1148:	01000091 	swpeq	r0, r1, [r0]	; <UNPREDICTABLE>
    114c:	91745000 	cmnls	r4, r0
    1150:	91780000 	cmnls	r8, r0
    1154:	00010000 	andeq	r0, r1, r0
    1158:	00000050 	andeq	r0, r0, r0, asr r0
    115c:	00000000 	andeq	r0, r0, r0
    1160:	00000200 	andeq	r0, r0, r0, lsl #4
    1164:	50000000 	andpl	r0, r0, r0
    1168:	60000091 	mulvs	r0, r1, r0
    116c:	01000091 	swpeq	r0, r1, [r0]	; <UNPREDICTABLE>
    1170:	91605100 	cmnls	r0, r0, lsl #2
    1174:	91640000 	cmnls	r4, r0
    1178:	00030000 	andeq	r0, r3, r0
    117c:	649f0171 	ldrvs	r0, [pc], #369	; 1184 <__code_start__-0x6e7c>
    1180:	7c000091 	stcvc	0, cr0, [r0], {145}	; 0x91
    1184:	01000091 	swpeq	r0, r1, [r0]	; <UNPREDICTABLE>
    1188:	00005100 	andeq	r5, r0, r0, lsl #2
	...
    1198:	00e80000 	rsceq	r0, r8, r0
    119c:	01000000 	mrseq	r0, (UNDEF: 0)
    11a0:	00010000 	andeq	r0, r1, r0
    11a4:	00010050 	andeq	r0, r1, r0, asr r0
    11a8:	00011000 	andeq	r1, r1, r0
    11ac:	f3000400 	vshl.u8	d0, d0, d0
    11b0:	109f5001 	addsne	r5, pc, r1
    11b4:	14000001 	strne	r0, [r0], #-1
    11b8:	01000001 	tsteq	r0, r1
    11bc:	01145000 	tsteq	r4, r0
    11c0:	011c0000 	tsteq	ip, r0
    11c4:	00040000 	andeq	r0, r4, r0
    11c8:	9f5001f3 	svcls	0x005001f3
	...
    11d4:	00000001 	andeq	r0, r0, r1
    11d8:	00f40000 	rscseq	r0, r4, r0
    11dc:	01000000 	mrseq	r0, (UNDEF: 0)
    11e0:	000b0000 	andeq	r0, fp, r0
    11e4:	25350070 	ldrcs	r0, [r5, #-112]!	; 0xffffff90
    11e8:	8080b423 	addhi	fp, r0, r3, lsr #8
    11ec:	009f0281 	addseq	r0, pc, r1, lsl #5
    11f0:	03000001 	movweq	r0, #1
    11f4:	01000001 	tsteq	r0, r1
    11f8:	01035000 	mrseq	r5, (UNDEF: 3)
    11fc:	01100000 	tsteq	r0, r0
    1200:	000c0000 	andeq	r0, ip, r0
    1204:	355001f3 	ldrbcc	r0, [r0, #-499]	; 0xfffffe0d
    1208:	80b42325 	adcshi	r2, r4, r5, lsr #6
    120c:	9f028180 	svcls	0x00028180
	...
    1218:	00f80000 	rscseq	r0, r8, r0
    121c:	01100000 	tsteq	r0, r0
    1220:	00010000 	andeq	r0, r1, r0
    1224:	00000054 	andeq	r0, r0, r4, asr r0
	...
    1234:	0000cc00 	andeq	ip, r0, r0, lsl #24
    1238:	0000db00 	andeq	sp, r0, r0, lsl #22
    123c:	50000100 	andpl	r0, r0, r0, lsl #2
    1240:	000000db 	ldrdeq	r0, [r0], -fp
    1244:	000000e0 	andeq	r0, r0, r0, ror #1
    1248:	01f30004 	mvnseq	r0, r4
    124c:	00e09f50 	rsceq	r9, r0, r0, asr pc
    1250:	00e30000 	rsceq	r0, r3, r0
    1254:	00010000 	andeq	r0, r1, r0
    1258:	0000e350 	andeq	lr, r0, r0, asr r3
    125c:	0000e800 	andeq	lr, r0, r0, lsl #16
    1260:	f3000400 	vshl.u8	d0, d0, d0
    1264:	009f5001 	addseq	r5, pc, r1
	...
    1274:	cc000000 	stcgt	0, cr0, [r0], {-0}
    1278:	db000000 	blle	1280 <__code_start__-0x6d80>
    127c:	01000000 	mrseq	r0, (UNDEF: 0)
    1280:	00db5100 	sbcseq	r5, fp, r0, lsl #2
    1284:	00e00000 	rsceq	r0, r0, r0
    1288:	00040000 	andeq	r0, r4, r0
    128c:	9f5101f3 	svcls	0x005101f3
    1290:	000000e0 	andeq	r0, r0, r0, ror #1
    1294:	000000e3 	andeq	r0, r0, r3, ror #1
    1298:	e3510001 	cmp	r1, #1, 0
    129c:	e8000000 	stmda	r0, {}	; <UNPREDICTABLE>
    12a0:	04000000 	streq	r0, [r0], #-0
    12a4:	5101f300 	mrspl	pc, SP_irq	; <UNPREDICTABLE>
    12a8:	0000009f 	muleq	r0, pc, r0	; <UNPREDICTABLE>
	...
    12b4:	0000bc00 	andeq	fp, r0, r0, lsl #24
    12b8:	0000c700 	andeq	ip, r0, r0, lsl #14
    12bc:	50000100 	andpl	r0, r0, r0, lsl #2
    12c0:	000000c7 	andeq	r0, r0, r7, asr #1
    12c4:	000000cc 	andeq	r0, r0, ip, asr #1
    12c8:	01f30004 	mvnseq	r0, r4
    12cc:	00009f50 	andeq	r9, r0, r0, asr pc
	...
    12d8:	00980000 	addseq	r0, r8, r0
    12dc:	00b00000 	adcseq	r0, r0, r0
    12e0:	00010000 	andeq	r0, r1, r0
    12e4:	0000b050 	andeq	fp, r0, r0, asr r0
    12e8:	0000bc00 	andeq	fp, r0, r0, lsl #24
    12ec:	f3000400 	vshl.u8	d0, d0, d0
    12f0:	009f5001 	addseq	r5, pc, r1
	...
    12fc:	74000000 	strvc	r0, [r0], #-0
    1300:	8c000000 	stchi	0, cr0, [r0], {-0}
    1304:	01000000 	mrseq	r0, (UNDEF: 0)
    1308:	008c5000 	addeq	r5, ip, r0
    130c:	00980000 	addseq	r0, r8, r0
    1310:	00040000 	andeq	r0, r4, r0
    1314:	9f5001f3 	svcls	0x005001f3
	...
    1324:	00000064 	andeq	r0, r0, r4, rrx
    1328:	0000006f 	andeq	r0, r0, pc, rrx
    132c:	6f500001 	svcvs	0x00500001
    1330:	74000000 	strvc	r0, [r0], #-0
    1334:	04000000 	streq	r0, [r0], #-0
    1338:	5001f300 	andpl	pc, r1, r0, lsl #6
    133c:	0000009f 	muleq	r0, pc, r0	; <UNPREDICTABLE>
	...
    134c:	00003800 	andeq	r3, r0, r0, lsl #16
    1350:	50000100 	andpl	r0, r0, r0, lsl #2
    1354:	00000038 	andeq	r0, r0, r8, lsr r0
    1358:	00000064 	andeq	r0, r0, r4, rrx
    135c:	01f30004 	mvnseq	r0, r4
    1360:	00009f50 	andeq	r9, r0, r0, asr pc
	...
    1370:	00470000 	subeq	r0, r7, r0
    1374:	00010000 	andeq	r0, r1, r0
    1378:	00004751 	andeq	r4, r0, r1, asr r7
    137c:	00006400 	andeq	r6, r0, r0, lsl #8
    1380:	f3000400 	vshl.u8	d0, d0, d0
    1384:	009f5101 	addseq	r5, pc, r1, lsl #2
	...
    1390:	00003400 	andeq	r3, r0, r0, lsl #8
    1394:	00006400 	andeq	r6, r0, r0, lsl #8
    1398:	54000100 	strpl	r0, [r0], #-256	; 0xffffff00
	...
    13a4:	00400000 	subeq	r0, r0, r0
    13a8:	00640000 	rsbeq	r0, r4, r0
    13ac:	00010000 	andeq	r0, r1, r0
    13b0:	00000056 	andeq	r0, r0, r6, asr r0
	...
    13bc:	00000101 	andeq	r0, r0, r1, lsl #2
    13c0:	00004800 	andeq	r4, r0, r0, lsl #16
    13c4:	00005000 	andeq	r5, r0, r0
    13c8:	50000100 	andpl	r0, r0, r0, lsl #2
    13cc:	00000050 	andeq	r0, r0, r0, asr r0
    13d0:	00000050 	andeq	r0, r0, r0, asr r0
    13d4:	50510001 	subspl	r0, r1, r1
    13d8:	54000000 	strpl	r0, [r0], #-0
    13dc:	09000000 	stmdbeq	r0, {}	; <UNPREDICTABLE>
    13e0:	74007500 	strvc	r7, [r0], #-1280	; 0xfffffb00
    13e4:	00712400 	rsbseq	r2, r1, r0, lsl #8
    13e8:	00549f21 	subseq	r9, r4, r1, lsr #30
    13ec:	005b0000 	subseq	r0, fp, r0
    13f0:	00010000 	andeq	r0, r1, r0
    13f4:	00000051 	andeq	r0, r0, r1, asr r0
    13f8:	00000000 	andeq	r0, r0, r0
	...

Disassembly of section .debug_aranges:

00000000 <.debug_aranges>:
   0:	0000001c 	andeq	r0, r0, ip, lsl r0
   4:	00000002 	andeq	r0, r0, r2
   8:	00040000 	andeq	r0, r4, r0
   c:	00000000 	andeq	r0, r0, r0
  10:	00008038 	andeq	r8, r0, r8, lsr r0
  14:	000001a0 	andeq	r0, r0, r0, lsr #3
	...
  20:	0000001c 	andeq	r0, r0, ip, lsl r0
  24:	04070002 	streq	r0, [r7], #-2
  28:	00040000 	andeq	r0, r4, r0
  2c:	00000000 	andeq	r0, r0, r0
  30:	000081d8 	ldrdeq	r8, [r0], -r8	; <UNPREDICTABLE>
  34:	00000390 	muleq	r0, r0, r3
	...
  40:	0000001c 	andeq	r0, r0, ip, lsl r0
  44:	08900002 	ldmeq	r0, {r1}
  48:	00040000 	andeq	r0, r4, r0
  4c:	00000000 	andeq	r0, r0, r0
  50:	00008568 	andeq	r8, r0, r8, ror #10
  54:	00000058 	andeq	r0, r0, r8, asr r0
	...
  60:	0000001c 	andeq	r0, r0, ip, lsl r0
  64:	0a310002 	beq	c40074 <__bss_end__+0xc36754>
  68:	00040000 	andeq	r0, r4, r0
  6c:	00000000 	andeq	r0, r0, r0
  70:	000085c0 	andeq	r8, r0, r0, asr #11
  74:	0000003c 	andeq	r0, r0, ip, lsr r0
	...
  80:	0000001c 	andeq	r0, r0, ip, lsl r0
  84:	0b7e0002 	bleq	1f80094 <__bss_end__+0x1f76774>
  88:	00040000 	andeq	r0, r4, r0
  8c:	00000000 	andeq	r0, r0, r0
  90:	000085fc 	strdeq	r8, [r0], -ip
  94:	00000034 	andeq	r0, r0, r4, lsr r0
	...
  a0:	0000001c 	andeq	r0, r0, ip, lsl r0
  a4:	0c750002 	ldcleq	0, cr0, [r5], #-8
  a8:	00040000 	andeq	r0, r4, r0
  ac:	00000000 	andeq	r0, r0, r0
  b0:	00008630 	andeq	r8, r0, r0, lsr r6
  b4:	00000740 	andeq	r0, r0, r0, asr #14
	...
  c0:	0000001c 	andeq	r0, r0, ip, lsl r0
  c4:	17500002 	ldrbne	r0, [r0, -r2]
  c8:	00040000 	andeq	r0, r4, r0
  cc:	00000000 	andeq	r0, r0, r0
  d0:	00008d70 	andeq	r8, r0, r0, ror sp
  d4:	0000002c 	andeq	r0, r0, ip, lsr #32
	...
  e0:	0000001c 	andeq	r0, r0, ip, lsl r0
  e4:	18830002 	stmne	r3, {r1}
  e8:	00040000 	andeq	r0, r4, r0
  ec:	00000000 	andeq	r0, r0, r0
  f0:	00008d9c 	muleq	r0, ip, sp
  f4:	0000003c 	andeq	r0, r0, ip, lsr r0
	...
 100:	0000001c 	andeq	r0, r0, ip, lsl r0
 104:	1a100002 	bne	400114 <__bss_end__+0x3f67f4>
 108:	00040000 	andeq	r0, r4, r0
 10c:	00000000 	andeq	r0, r0, r0
 110:	00008dd8 	ldrdeq	r8, [r0], -r8	; <UNPREDICTABLE>
 114:	00000004 	andeq	r0, r0, r4
	...
 120:	0000001c 	andeq	r0, r0, ip, lsl r0
 124:	1ae20002 	bne	ff880134 <__bss_end__+0xff876814>
 128:	00040000 	andeq	r0, r4, r0
 12c:	00000000 	andeq	r0, r0, r0
 130:	00008ddc 	ldrdeq	r8, [r0], -ip
 134:	00000080 	andeq	r0, r0, r0, lsl #1
	...
 140:	0000001c 	andeq	r0, r0, ip, lsl r0
 144:	1d1c0002 	ldcne	0, cr0, [ip, #-8]
 148:	00040000 	andeq	r0, r4, r0
 14c:	00000000 	andeq	r0, r0, r0
 150:	00008e5c 	andeq	r8, r0, ip, asr lr
 154:	00000084 	andeq	r0, r0, r4, lsl #1
	...
 160:	0000001c 	andeq	r0, r0, ip, lsl r0
 164:	1f6d0002 	svcne	0x006d0002
 168:	00040000 	andeq	r0, r4, r0
 16c:	00000000 	andeq	r0, r0, r0
 170:	00008ee0 	andeq	r8, r0, r0, ror #29
 174:	000001f0 	strdeq	r0, [r0], -r0	; <UNPREDICTABLE>
	...
 180:	0000001c 	andeq	r0, r0, ip, lsl r0
 184:	253e0002 	ldrcs	r0, [lr, #-2]!
 188:	00040000 	andeq	r0, r4, r0
 18c:	00000000 	andeq	r0, r0, r0
 190:	000090d0 	ldrdeq	r9, [r0], -r0
 194:	00000034 	andeq	r0, r0, r4, lsr r0
	...
 1a0:	0000001c 	andeq	r0, r0, ip, lsl r0
 1a4:	26790002 	ldrbtcs	r0, [r9], -r2
 1a8:	00040000 	andeq	r0, r4, r0
 1ac:	00000000 	andeq	r0, r0, r0
 1b0:	00009104 	andeq	r9, r0, r4, lsl #2
 1b4:	0000002c 	andeq	r0, r0, ip, lsr #32
	...
 1c0:	0000001c 	andeq	r0, r0, ip, lsl r0
 1c4:	27740002 	ldrbcs	r0, [r4, -r2]!
 1c8:	00040000 	andeq	r0, r4, r0
 1cc:	00000000 	andeq	r0, r0, r0
 1d0:	00009130 	andeq	r9, r0, r0, lsr r1
 1d4:	00000020 	andeq	r0, r0, r0, lsr #32
	...
 1e0:	0000001c 	andeq	r0, r0, ip, lsl r0
 1e4:	28870002 	stmcs	r7, {r1}
 1e8:	00040000 	andeq	r0, r4, r0
 1ec:	00000000 	andeq	r0, r0, r0
 1f0:	00009150 	andeq	r9, r0, r0, asr r1
 1f4:	0000002c 	andeq	r0, r0, ip, lsr #32
	...
 200:	0000001c 	andeq	r0, r0, ip, lsl r0
 204:	29d90002 	ldmibcs	r9, {r1}^
 208:	00040000 	andeq	r0, r4, r0
 20c:	00000000 	andeq	r0, r0, r0
 210:	0000917c 	andeq	r9, r0, ip, ror r1
 214:	00000004 	andeq	r0, r0, r4
	...
 220:	0000001c 	andeq	r0, r0, ip, lsl r0
 224:	2aab0002 	bcs	feac0234 <__bss_end__+0xfeab6914>
 228:	00040000 	andeq	r0, r4, r0
 22c:	00000000 	andeq	r0, r0, r0
 230:	00009198 	muleq	r0, r8, r1
 234:	0000011c 	andeq	r0, r0, ip, lsl r1
	...

Disassembly of section .debug_ranges:

00000000 <.debug_ranges>:
   0:	00000028 	andeq	r0, r0, r8, lsr #32
   4:	0000004c 	andeq	r0, r0, ip, asr #32
   8:	00000054 	andeq	r0, r0, r4, asr r0
   c:	0000008c 	andeq	r0, r0, ip, lsl #1
	...
  18:	00000134 	andeq	r0, r0, r4, lsr r1
  1c:	00000150 	andeq	r0, r0, r0, asr r1
  20:	00000158 	andeq	r0, r0, r8, asr r1
  24:	00000178 	andeq	r0, r0, r8, ror r1
	...
  30:	0000005c 	andeq	r0, r0, ip, asr r0
  34:	00000068 	andeq	r0, r0, r8, rrx
  38:	0000006c 	andeq	r0, r0, ip, rrx
  3c:	0000009c 	muleq	r0, ip, r0
	...
  48:	00008ddc 	ldrdeq	r8, [r0], -ip
  4c:	00008e5c 	andeq	r8, r0, ip, asr lr
	...
  58:	00009150 	andeq	r9, r0, r0, asr r1
  5c:	0000917c 	andeq	r9, r0, ip, ror r1
	...

Disassembly of section .debug_line:

00000000 <.debug_line>:
       0:	000002a0 	andeq	r0, r0, r0, lsr #5
       4:	00ec0003 	rsceq	r0, ip, r3
       8:	01020000 	mrseq	r0, (UNDEF: 2)
       c:	000d0efb 	strdeq	r0, [sp], -fp
      10:	01010101 	tsteq	r1, r1, lsl #2
      14:	01000000 	mrseq	r0, (UNDEF: 0)
      18:	2f010000 	svccs	0x00010000
      1c:	72657355 	rsbvc	r7, r5, #1409286145	; 0x54000001
      20:	616a2f73 	smcvs	41715	; 0xa2f3
      24:	77646572 			; <UNDEFINED> instruction: 0x77646572
      28:	73736965 	cmnvc	r3, #1654784	; 0x194000
      2c:	67726562 	ldrbvs	r6, [r2, -r2, ror #10]!
      30:	756f432f 	strbvc	r4, [pc, #-815]!	; fffffd09 <__bss_end__+0xffff63e9>
      34:	73657372 	cmnvc	r5, #-939524095	; 0xc8000001
      38:	3173632f 	cmncc	r3, pc, lsr #6
      3c:	2f653034 	svccs	0x00653034
      40:	34327363 	ldrtcc	r7, [r2], #-867	; 0xfffffc9d
      44:	2d786c30 	ldclcs	12, cr6, [r8, #-192]!	; 0xffffff40
      48:	70733232 	rsbsvc	r3, r3, r2, lsr r2
      4c:	6c2f2f72 	stcvs	15, cr2, [pc], #-456	; fffffe8c <__bss_end__+0xffff656c>
      50:	69706269 	ldmdbvs	r0!, {r0, r3, r5, r6, r9, sp, lr}^
      54:	636e692f 	cmnvs	lr, #770048	; 0xbc000
      58:	6564756c 	strbvs	r7, [r4, #-1388]!	; 0xfffffa94
      5c:	706f2f00 	rsbvc	r2, pc, r0, lsl #30
      60:	6f682f74 	svcvs	0x00682f74
      64:	7262656d 	rsbvc	r6, r2, #457179136	; 0x1b400000
      68:	432f7765 			; <UNDEFINED> instruction: 0x432f7765
      6c:	616c6c65 	cmnvs	ip, r5, ror #24
      70:	72612f72 	rsbvc	r2, r1, #456	; 0x1c8
      74:	6f6e2d6d 	svcvs	0x006e2d6d
      78:	652d656e 	strvs	r6, [sp, #-1390]!	; 0xfffffa92
      7c:	2d696261 	sfmcs	f6, 2, [r9, #-388]!	; 0xfffffe7c
      80:	74736574 	ldrbtvc	r6, [r3], #-1396	; 0xfffffa8c
      84:	322d392f 	eorcc	r3, sp, #770048	; 0xbc000
      88:	71393130 	teqvc	r9, r0, lsr r1
      8c:	73632d34 	cmnvc	r3, #52, 26	; 0xd00
      90:	65373031 	ldrvs	r3, [r7, #-49]!	; 0xffffffcf
      94:	62696c2f 	rsbvs	r6, r9, #12032	; 0x2f00
      98:	6363672f 	cmnvs	r3, #12320768	; 0xbc0000
      9c:	6d72612f 	ldfvse	f6, [r2, #-188]!	; 0xffffff44
      a0:	6e6f6e2d 	cdpvs	14, 6, cr6, cr15, cr13, {1}
      a4:	61652d65 	cmnvs	r5, r5, ror #26
      a8:	392f6962 	stmdbcc	pc!, {r1, r5, r6, r8, fp, sp, lr}	; <UNPREDICTABLE>
      ac:	312e322e 			; <UNDEFINED> instruction: 0x312e322e
      b0:	636e692f 	cmnvs	lr, #770048	; 0xbc000
      b4:	6564756c 	strbvs	r7, [r4, #-1388]!	; 0xfffffa94
      b8:	2d320000 	ldccs	0, cr0, [r2, #-0]
      bc:	74736574 	ldrbtvc	r6, [r3], #-1396	; 0xfffffa8c
      c0:	6c616d2d 	stclvs	13, cr6, [r1], #-180	; 0xffffff4c
      c4:	2e636f6c 	cdpcs	15, 6, cr6, cr3, cr12, {3}
      c8:	00000063 	andeq	r0, r0, r3, rrx
      cc:	69707200 	ldmdbvs	r0!, {r9, ip, sp, lr}^
      d0:	0100682e 	tsteq	r0, lr, lsr #16
      d4:	726b0000 	rsbvc	r0, fp, #0, 0
      d8:	6c616d2d 	stclvs	13, cr6, [r1], #-180	; 0xffffff4c
      dc:	2e636f6c 	cdpcs	15, 6, cr6, cr3, cr12, {3}
      e0:	00000068 	andeq	r0, r0, r8, rrx
      e4:	64747300 	ldrbtvs	r7, [r4], #-768	; 0xfffffd00
      e8:	2d746e69 	ldclcs	14, cr6, [r4, #-420]!	; 0xfffffe5c
      ec:	2e636367 	cdpcs	3, 6, cr6, cr3, cr7, {3}
      f0:	00020068 	andeq	r0, r2, r8, rrx
      f4:	2a050000 	bcs	1400fc <__bss_end__+0x1367dc>
      f8:	38020500 	stmdacc	r2, {r8, sl}
      fc:	19000080 	stmdbne	r0, {r7}
     100:	05050106 	streq	r0, [r5, #-262]	; 0xfffffefa
     104:	16056a06 	strne	r6, [r5], -r6, lsl #20
     108:	052e0106 	streq	r0, [lr, #-262]!	; 0xfffffefa
     10c:	054c0605 	strbeq	r0, [ip, #-1541]	; 0xfffff9fb
     110:	0d050109 	stfeqs	f0, [r5, #-36]	; 0xffffffdc
     114:	14050106 	strne	r0, [r5], #-262	; 0xfffffefa
     118:	02040200 	andeq	r0, r4, #0, 4
     11c:	18052e06 	stmdane	r5, {r1, r2, r9, sl, fp, sp}
     120:	02040200 	andeq	r0, r4, #0, 4
     124:	05050106 	streq	r0, [r5, #-262]	; 0xfffffefa
     128:	02040200 	andeq	r0, r4, #0, 4
     12c:	0609052e 	streq	r0, [r9], -lr, lsr #10
     130:	061a054b 	ldreq	r0, [sl], -fp, asr #10
     134:	2e200501 	cfsh64cs	mvdx0, mvdx0, #1
     138:	054a1e05 	strbeq	r1, [sl, #-3589]	; 0xfffff1fb
     13c:	05310609 	ldreq	r0, [r1, #-1545]!	; 0xfffff9f7
     140:	0501060c 	streq	r0, [r1, #-1548]	; 0xfffff9f4
     144:	014b0609 	cmpeq	fp, r9, lsl #12
     148:	02040200 	andeq	r0, r4, #0, 4
     14c:	00200566 	eoreq	r0, r0, r6, ror #10
     150:	0d020402 	cfstrseq	mvf0, [r2, #-8]
     154:	02002105 	andeq	r2, r0, #1073741825	; 0x40000001
     158:	01060204 	tsteq	r6, r4, lsl #4
     15c:	02040200 	andeq	r0, r4, #0, 4
     160:	0009052e 	andeq	r0, r9, lr, lsr #10
     164:	06010402 	streq	r0, [r1], -r2, lsl #8
     168:	04020033 	streq	r0, [r2], #-51	; 0xffffffcd
     16c:	02002e01 	andeq	r2, r0, #1, 28
     170:	74080104 	strvc	r0, [r8], #-260	; 0xfffffefc
     174:	01040200 	mrseq	r0, R12_usr
     178:	0d052e06 	stceq	14, cr2, [r5, #-24]	; 0xffffffe8
     17c:	00140519 	andseq	r0, r4, r9, lsl r5
     180:	06020402 	streq	r0, [r2], -r2, lsl #8
     184:	0005052e 	andeq	r0, r5, lr, lsr #10
     188:	06020402 	streq	r0, [r2], -r2, lsl #8
     18c:	06090501 	streq	r0, [r9], -r1, lsl #10
     190:	0200014b 	andeq	r0, r0, #-1073741806	; 0xc0000012
     194:	00820204 	addeq	r0, r2, r4, lsl #4
     198:	01020402 	tsteq	r2, r2, lsl #8
     19c:	02002005 	andeq	r2, r0, #5, 0
     1a0:	05110204 	ldreq	r0, [r1, #-516]	; 0xfffffdfc
     1a4:	04020021 	streq	r0, [r2], #-33	; 0xffffffdf
     1a8:	00010602 	andeq	r0, r1, r2, lsl #12
     1ac:	2e020402 	cdpcs	4, 0, cr0, cr2, cr2, {0}
     1b0:	02000905 	andeq	r0, r0, #81920	; 0x14000
     1b4:	2f060104 	svccs	0x00060104
     1b8:	01040200 	mrseq	r0, R12_usr
     1bc:	04020001 	streq	r0, [r2], #-1
     1c0:	002e0601 	eoreq	r0, lr, r1, lsl #12
     1c4:	06010402 	streq	r0, [r1], -r2, lsl #8
     1c8:	040200ba 	streq	r0, [r2], #-186	; 0xffffff46
     1cc:	052e0601 	streq	r0, [lr, #-1537]!	; 0xfffff9ff
     1d0:	052e150d 	streq	r1, [lr, #-1293]!	; 0xfffffaf3
     1d4:	04020009 	streq	r0, [r2], #-9
     1d8:	052f0603 	streq	r0, [pc, #-1539]!	; fffffbdd <__bss_end__+0xffff62bd>
     1dc:	04020020 	streq	r0, [r2], #-32	; 0xffffffe0
     1e0:	21054903 	tstcs	r5, r3, lsl #18
     1e4:	03040200 	movweq	r0, #16896	; 0x4200
     1e8:	14050106 	strne	r0, [r5], #-262	; 0xfffffefa
     1ec:	01040200 	mrseq	r0, R12_usr
     1f0:	05052e06 	streq	r2, [r5, #-3590]	; 0xfffff1fa
     1f4:	01040200 	mrseq	r0, R12_usr
     1f8:	4c060106 	stfmis	f0, [r6], {6}
     1fc:	0601054c 	streq	r0, [r1], -ip, asr #10
     200:	14056613 	strne	r6, [r5], #-1555	; 0xfffff9ed
     204:	02050006 	andeq	r0, r5, #6, 0
     208:	0000814c 	andeq	r8, r0, ip, asr #2
     20c:	4b050514 	blmi	141664 <__bss_end__+0x137d44>
     210:	10051414 	andne	r1, r5, r4, lsl r4
     214:	05050106 	streq	r0, [r5, #-262]	; 0xfffffefa
     218:	05136706 	ldreq	r6, [r3, #-1798]	; 0xfffff8fa
     21c:	0d050109 	stfeqs	f0, [r5, #-36]	; 0xffffffdc
     220:	14050106 	strne	r0, [r5], #-262	; 0xfffffefa
     224:	02040200 	andeq	r0, r4, #0, 4
     228:	05052e06 	streq	r2, [r5, #-3590]	; 0xfffff1fa
     22c:	02040200 	andeq	r0, r4, #0, 4
     230:	09050106 	stmdbeq	r5, {r1, r2, r8}
     234:	14054b06 	strne	r4, [r5], #-2822	; 0xfffff4fa
     238:	09050106 	stmdbeq	r5, {r1, r2, r8}
     23c:	00014d06 	andeq	r4, r1, r6, lsl #26
     240:	4a020402 	bmi	81250 <__bss_end__+0x77930>
     244:	02040200 	andeq	r0, r4, #0, 4
     248:	04020001 	streq	r0, [r2], #-1
     24c:	02001402 	andeq	r1, r0, #33554432	; 0x2000000
     250:	00010204 	andeq	r0, r1, r4, lsl #4
     254:	06020402 	streq	r0, [r2], -r2, lsl #8
     258:	0402004a 	streq	r0, [r2], #-74	; 0xffffffb6
     25c:	052e0602 	streq	r0, [lr, #-1538]!	; 0xfffff9fe
     260:	04020020 	streq	r0, [r2], #-32	; 0xffffffe0
     264:	017a0302 	cmneq	sl, r2, lsl #6
     268:	02002105 	andeq	r2, r0, #1073741825	; 0x40000001
     26c:	01060204 	tsteq	r6, r4, lsl #4
     270:	02040200 	andeq	r0, r4, #0, 4
     274:	0009052e 	andeq	r0, r9, lr, lsr #10
     278:	06010402 	streq	r0, [r1], -r2, lsl #8
     27c:	04020032 	streq	r0, [r2], #-50	; 0xffffffce
     280:	02000101 	andeq	r0, r0, #1073741824	; 0x40000000
     284:	ba060104 	blt	18069c <__bss_end__+0x176d7c>
     288:	01040200 	mrseq	r0, R12_usr
     28c:	02002e06 	andeq	r2, r0, #96	; 0x60
     290:	2e060104 	adfcss	f0, f6, f4
     294:	16060505 	strne	r0, [r6], -r5, lsl #10
     298:	01054a01 	tsteq	r5, r1, lsl #20
     29c:	024a1306 	subeq	r1, sl, #402653184	; 0x18000000
     2a0:	0101000c 	tsteq	r1, ip
     2a4:	000003e4 	andeq	r0, r0, r4, ror #7
     2a8:	006d0003 	rsbeq	r0, sp, r3
     2ac:	01020000 	mrseq	r0, (UNDEF: 2)
     2b0:	000d0efb 	strdeq	r0, [sp], -fp
     2b4:	01010101 	tsteq	r1, r1, lsl #2
     2b8:	01000000 	mrseq	r0, (UNDEF: 0)
     2bc:	2f010000 	svccs	0x00010000
     2c0:	72657355 	rsbvc	r7, r5, #1409286145	; 0x54000001
     2c4:	616a2f73 	smcvs	41715	; 0xa2f3
     2c8:	77646572 			; <UNDEFINED> instruction: 0x77646572
     2cc:	73736965 	cmnvc	r3, #1654784	; 0x194000
     2d0:	67726562 	ldrbvs	r6, [r2, -r2, ror #10]!
     2d4:	756f432f 	strbvc	r4, [pc, #-815]!	; ffffffad <__bss_end__+0xffff668d>
     2d8:	73657372 	cmnvc	r5, #-939524095	; 0xc8000001
     2dc:	3173632f 	cmncc	r3, pc, lsr #6
     2e0:	2f653034 	svccs	0x00653034
     2e4:	34327363 	ldrtcc	r7, [r2], #-867	; 0xfffffc9d
     2e8:	2d786c30 	ldclcs	12, cr6, [r8, #-192]!	; 0xffffff40
     2ec:	70733232 	rsbsvc	r3, r3, r2, lsr r2
     2f0:	6c2f2f72 	stcvs	15, cr2, [pc], #-456	; 130 <__code_start__-0x7ed0>
     2f4:	69706269 	ldmdbvs	r0!, {r0, r3, r5, r6, r9, sp, lr}^
     2f8:	636e692f 	cmnvs	lr, #770048	; 0xbc000
     2fc:	6564756c 	strbvs	r7, [r4, #-1388]!	; 0xfffffa94
     300:	726b0000 	rsbvc	r0, fp, #0, 0
     304:	6c616d2d 	stclvs	13, cr6, [r1], #-180	; 0xffffff4c
     308:	2e636f6c 	cdpcs	15, 6, cr6, cr3, cr12, {3}
     30c:	00000063 	andeq	r0, r0, r3, rrx
     310:	69707200 	ldmdbvs	r0!, {r9, ip, sp, lr}^
     314:	0100682e 	tsteq	r0, lr, lsr #16
     318:	05000000 	streq	r0, [r0, #-0]
     31c:	0205002a 	andeq	r0, r5, #42, 0	; 0x2a
     320:	000081d8 	ldrdeq	r8, [r0], -r8	; <UNPREDICTABLE>
     324:	05010b03 	streq	r0, [r1, #-2819]	; 0xfffff4fd
     328:	07051305 	streq	r1, [r5, -r5, lsl #6]
     32c:	052e0106 	streq	r0, [lr, #-262]!	; 0xfffffefa
     330:	0a053309 	beq	14cf5c <__bss_end__+0x14363c>
     334:	09052f06 	stmdbeq	r5, {r1, r2, r8, r9, sl, fp, sp}
     338:	061d054b 	ldreq	r0, [sp], -fp, asr #10
     33c:	ba180501 	blt	601748 <__bss_end__+0x5f7e28>
     340:	052e1205 	streq	r1, [lr, #-517]!	; 0xfffffdfb
     344:	052f0609 	streq	r0, [pc, #-1545]!	; fffffd43 <__bss_end__+0xffff6423>
     348:	0501060b 	streq	r0, [r1, #-1547]	; 0xfffff9f5
     34c:	052e2d0e 	streq	r2, [lr, #-3342]!	; 0xfffff2f2
     350:	7a030609 	bvc	c1b7c <__bss_end__+0xb825c>
     354:	0610052e 	ldreq	r0, [r0], -lr, lsr #10
     358:	06090501 	streq	r0, [r9], -r1, lsl #10
     35c:	0610054b 	ldreq	r0, [r0], -fp, asr #10
     360:	06090501 	streq	r0, [r9], -r1, lsl #10
     364:	3505054b 	strcc	r0, [r5, #-1355]	; 0xfffffab5
     368:	01060c05 	tsteq	r6, r5, lsl #24
     36c:	4b060505 	blmi	181788 <__bss_end__+0x177e68>
     370:	05010905 	streq	r0, [r1, #-2309]	; 0xfffff6fb
     374:	17050112 	smladne	r5, r2, r1, r0
     378:	05050106 	streq	r0, [r5, #-262]	; 0xfffffefa
     37c:	032a052e 			; <UNDEFINED> instruction: 0x032a052e
     380:	09054a74 	stmdbeq	r5, {r2, r4, r5, r6, r9, fp, lr}
     384:	03040200 	movweq	r0, #16896	; 0x4200
     388:	2e0d0306 	cdpcs	3, 0, cr0, cr13, cr6, {0}
     38c:	02000e05 	andeq	r0, r0, #80	; 0x50
     390:	01060304 	tsteq	r6, r4, lsl #6
     394:	02000905 	andeq	r0, r0, #81920	; 0x14000
     398:	2f060304 	svccs	0x00060304
     39c:	02001705 	andeq	r1, r0, #1310720	; 0x140000
     3a0:	01060304 	tsteq	r6, r4, lsl #6
     3a4:	02001905 	andeq	r1, r0, #81920	; 0x14000
     3a8:	052e0304 	streq	r0, [lr, #-772]!	; 0xfffffcfc
     3ac:	04020015 	streq	r0, [r2], #-21	; 0xffffffeb
     3b0:	10052e03 	andne	r2, r5, r3, lsl #28
     3b4:	03040200 	movweq	r0, #16896	; 0x4200
     3b8:	0009052e 	andeq	r0, r9, lr, lsr #10
     3bc:	06030402 	streq	r0, [r3], -r2, lsl #8
     3c0:	0014052f 	andseq	r0, r4, pc, lsr #10
     3c4:	06030402 	streq	r0, [r3], -r2, lsl #8
     3c8:	001b0501 	andseq	r0, fp, r1, lsl #10
     3cc:	06030402 	streq	r0, [r3], -r2, lsl #8
     3d0:	001c052b 	andseq	r0, ip, fp, lsr #10
     3d4:	06030402 	streq	r0, [r3], -r2, lsl #8
     3d8:	00120501 	andseq	r0, r2, r1, lsl #10
     3dc:	06030402 	streq	r0, [r3], -r2, lsl #8
     3e0:	0017052e 	andseq	r0, r7, lr, lsr #10
     3e4:	06030402 	streq	r0, [r3], -r2, lsl #8
     3e8:	00050501 	andeq	r0, r5, r1, lsl #10
     3ec:	2e030402 	cdpcs	4, 0, cr0, cr3, cr2, {0}
     3f0:	88061e05 	stmdahi	r6, {r0, r2, r9, sl, fp, ip}
     3f4:	05050106 	streq	r0, [r5, #-262]	; 0xfffffefa
     3f8:	05134b06 	ldreq	r4, [r3, #-2822]	; 0xfffff4fa
     3fc:	054c0601 	strbeq	r0, [ip, #-1537]	; 0xfffff9ff
     400:	0650061f 			; <UNDEFINED> instruction: 0x0650061f
     404:	06050501 	streq	r0, [r5], -r1, lsl #10
     408:	06070530 			; <UNDEFINED> instruction: 0x06070530
     40c:	06050501 	streq	r0, [r5], -r1, lsl #10
     410:	15131351 	ldrne	r1, [r3, #-849]	; 0xfffffcaf
     414:	30064a06 	andcc	r4, r6, r6, lsl #20
     418:	0611054d 	ldreq	r0, [r1], -sp, asr #10
     41c:	4a070501 	bmi	1c1828 <__bss_end__+0x1b7f08>
     420:	05301005 	ldreq	r1, [r0, #-5]!
     424:	134d0605 	movtne	r0, #54789	; 0xd605
     428:	01060e05 	tsteq	r6, r5, lsl #28
     42c:	0605052e 	streq	r0, [r5], -lr, lsr #10
     430:	054c4c30 	strbeq	r4, [ip, #-3120]	; 0xfffff3d0
     434:	0501060c 	streq	r0, [r1, #-1548]	; 0xfffff9f4
     438:	2e650310 	mcrcs	3, 3, r0, cr5, cr0, {0}
     43c:	1c030105 	stfnes	f0, [r3], {5}
     440:	0618052e 	ldreq	r0, [r8], -lr, lsr #10
     444:	6600f803 	strvs	pc, [r0], -r3, lsl #16
     448:	05050106 	streq	r0, [r5, #-262]	; 0xfffffefa
     44c:	07053006 	streq	r3, [r5, -r6]
     450:	05050106 	streq	r0, [r5, #-262]	; 0xfffffefa
     454:	13054f06 	movwne	r4, #24326	; 0x5f06
     458:	05050106 	streq	r0, [r5, #-262]	; 0xfffffefa
     45c:	2e063006 	cdpcs	0, 0, cr3, cr6, cr6, {0}
     460:	054e3006 	strbeq	r3, [lr, #-6]
     464:	05010608 	streq	r0, [r1, #-1544]	; 0xfffff9f8
     468:	0f054a07 	svceq	0x00054a07
     46c:	01040200 	mrseq	r0, R12_usr
     470:	0032054a 	eorseq	r0, r2, sl, asr #10
     474:	4a020402 	bmi	81484 <__bss_end__+0x77b64>
     478:	4c060905 			; <UNDEFINED> instruction: 0x4c060905
     47c:	01061405 	tsteq	r6, r5, lsl #8
     480:	67060905 	strvs	r0, [r6, -r5, lsl #18]
     484:	01061405 	tsteq	r6, r5, lsl #8
     488:	4b060905 	blmi	1828a4 <__bss_end__+0x178f84>
     48c:	01060e05 	tsteq	r6, r5, lsl #28
     490:	31060505 	tstcc	r6, r5, lsl #10
     494:	060b0514 			; <UNDEFINED> instruction: 0x060b0514
     498:	4a050501 	bmi	1418a4 <__bss_end__+0x137f84>
     49c:	0014052e 	andseq	r0, r4, lr, lsr #10
     4a0:	06010402 	streq	r0, [r1], -r2, lsl #8
     4a4:	0005052e 	andeq	r0, r5, lr, lsr #10
     4a8:	06010402 	streq	r0, [r1], -r2, lsl #8
     4ac:	00290501 	eoreq	r0, r9, r1, lsl #10
     4b0:	4a030402 	bmi	c14c0 <__bss_end__+0xb7ba0>
     4b4:	02001405 	andeq	r1, r0, #83886080	; 0x5000000
     4b8:	052e0304 	streq	r0, [lr, #-772]!	; 0xfffffcfc
     4bc:	054c0609 	strbeq	r0, [ip, #-1545]	; 0xfffff9f7
     4c0:	05010615 	streq	r0, [r1, #-1557]	; 0xfffff9eb
     4c4:	1a052e0b 	bne	14bcf8 <__bss_end__+0x1423d8>
     4c8:	01040200 	mrseq	r0, R12_usr
     4cc:	0025054a 	eoreq	r0, r5, sl, asr #10
     4d0:	4a020402 	bmi	814e0 <__bss_end__+0x77bc0>
     4d4:	02040200 	andeq	r0, r4, #0, 4
     4d8:	0605054a 	streq	r0, [r5], -sl, asr #10
     4dc:	06120534 			; <UNDEFINED> instruction: 0x06120534
     4e0:	2e0b0501 	cfsh32cs	mvfx0, mvfx11, #1
     4e4:	052e1f05 	streq	r1, [lr, #-3845]!	; 0xfffff0fb
     4e8:	09052e07 	stmdbeq	r5, {r0, r1, r2, r9, sl, fp, sp}
     4ec:	13054f06 	movwne	r4, #24326	; 0x5f06
     4f0:	05050106 	streq	r0, [r5, #-262]	; 0xfffffefa
     4f4:	10053206 	andne	r3, r5, r6, lsl #4
     4f8:	0a050106 	beq	140918 <__bss_end__+0x136ff8>
     4fc:	2e07052e 	cfsh32cs	mvfx0, mvfx7, #30
     500:	4f060905 	svcmi	0x00060905
     504:	01061205 	tsteq	r6, r5, lsl #4
     508:	30060505 	andcc	r0, r6, r5, lsl #10
     50c:	01060b05 	tsteq	r6, r5, lsl #22
     510:	4d060505 	cfstr32mi	mvfx0, [r6, #-20]	; 0xffffffec
     514:	30060105 	andcc	r0, r6, r5, lsl #2
     518:	03060905 	movweq	r0, #26885	; 0x6905
     51c:	22052e6d 	andcs	r2, r5, #1744	; 0x6d0
     520:	14050106 	strne	r0, [r5], #-262	; 0xfffffefa
     524:	0609052e 	streq	r0, [r9], -lr, lsr #10
     528:	0619054b 	ldreq	r0, [r9], -fp, asr #10
     52c:	2e200501 	cfsh64cs	mvdx0, mvdx0, #1
     530:	052e1305 	streq	r1, [lr, #-773]!	; 0xfffffcfb
     534:	05520609 	ldrbeq	r0, [r2, #-1545]	; 0xfffff9f7
     538:	0501061b 	streq	r0, [r1, #-1563]	; 0xfffff9e5
     53c:	09052e13 	stmdbeq	r5, {r0, r1, r4, r9, sl, fp, sp}
     540:	19054b06 	stmdbne	r5, {r1, r2, r8, r9, fp, lr}
     544:	12050106 	andne	r0, r5, #-2147483647	; 0x80000001
     548:	062f052e 	strteq	r0, [pc], -lr, lsr #10
     54c:	667ef103 	ldrbtvs	pc, [lr], -r3, lsl #2	; <UNPREDICTABLE>
     550:	05050106 	streq	r0, [r5, #-262]	; 0xfffffefa
     554:	10054c06 	andne	r4, r5, r6, lsl #24
     558:	052e0106 	streq	r0, [lr, #-262]!	; 0xfffffefa
     55c:	052f0605 	streq	r0, [pc, #-1541]!	; ffffff5f <__bss_end__+0xffff663f>
     560:	05010607 	streq	r0, [r1, #-1543]	; 0xfffff9f9
     564:	134f0605 	movtne	r0, #62981	; 0xf605
     568:	01061005 	tsteq	r6, r5
     56c:	32060505 	andcc	r0, r6, #20971520	; 0x1400000
     570:	062e0613 			; <UNDEFINED> instruction: 0x062e0613
     574:	060c0531 			; <UNDEFINED> instruction: 0x060c0531
     578:	03100501 	tsteq	r0, #4194304	; 0x400000
     57c:	01056674 	tsteq	r5, r4, ror r6
     580:	052e0d03 	streq	r0, [lr, #-3331]!	; 0xfffff2fd
     584:	064f0622 	strbeq	r0, [pc], -r2, lsr #12
     588:	06050501 	streq	r0, [r5], -r1, lsl #10
     58c:	05141331 	ldreq	r1, [r4, #-817]	; 0xfffffccf
     590:	2e010607 	cfmadd32cs	mvax0, mvfx0, mvfx1, mvfx7
     594:	33060505 	movwcc	r0, #25861	; 0x6505
     598:	01062d05 	tsteq	r6, r5, lsl #26
     59c:	052e3105 	streq	r3, [lr, #-261]!	; 0xfffffefb
     5a0:	05052e0c 	streq	r2, [r5, #-3596]	; 0xfffff1f4
     5a4:	08053206 	stmdaeq	r5, {r1, r2, r9, ip, sp}
     5a8:	07050106 	streq	r0, [r5, -r6, lsl #2]
     5ac:	000f054a 	andeq	r0, pc, sl, asr #10
     5b0:	4a010402 	bmi	415c0 <__bss_end__+0x37ca0>
     5b4:	02003205 	andeq	r3, r0, #1342177280	; 0x50000000
     5b8:	054a0204 	strbeq	r0, [sl, #-516]	; 0xfffffdfc
     5bc:	054c0609 	strbeq	r0, [ip, #-1545]	; 0xfffff9f7
     5c0:	4a010614 	bmi	41e18 <__bss_end__+0x384f8>
     5c4:	2f060905 	svccs	0x00060905
     5c8:	01061405 	tsteq	r6, r5, lsl #8
     5cc:	4b060905 	blmi	1829e8 <__bss_end__+0x1790c8>
     5d0:	01061405 	tsteq	r6, r5, lsl #8
     5d4:	31060905 	tstcc	r6, r5, lsl #18
     5d8:	05054c30 	streq	r4, [r5, #-3120]	; 0xfffff3d0
     5dc:	060f054e 	streq	r0, [pc], -lr, asr #10
     5e0:	4a070501 	bmi	1c19ec <__bss_end__+0x1b80cc>
     5e4:	52060505 	andpl	r0, r6, #20971520	; 0x1400000
     5e8:	01060b05 	tsteq	r6, r5, lsl #22
     5ec:	0609052e 	streq	r0, [r9], -lr, lsr #10
     5f0:	052e7a03 	streq	r7, [lr, #-2563]!	; 0xfffff5fd
     5f4:	05010614 	streq	r0, [r1, #-1556]	; 0xfffff9ec
     5f8:	054b0609 	strbeq	r0, [fp, #-1545]	; 0xfffff9f7
     5fc:	05010614 	streq	r0, [r1, #-1556]	; 0xfffff9ec
     600:	054b0609 	strbeq	r0, [fp, #-1545]	; 0xfffff9f7
     604:	0501060e 	streq	r0, [r1, #-1550]	; 0xfffff9f2
     608:	1103060d 	tstne	r3, sp, lsl #12
     60c:	060f054a 	streq	r0, [pc], -sl, asr #10
     610:	06110501 	ldreq	r0, [r1], -r1, lsl #10
     614:	061b0531 			; <UNDEFINED> instruction: 0x061b0531
     618:	06110501 	ldreq	r0, [r1], -r1, lsl #10
     61c:	0613054b 	ldreq	r0, [r3], -fp, asr #10
     620:	06110501 	ldreq	r0, [r1], -r1, lsl #10
     624:	061b052f 	ldreq	r0, [fp], -pc, lsr #10
     628:	060d0501 	streq	r0, [sp], -r1, lsl #10
     62c:	06130530 			; <UNDEFINED> instruction: 0x06130530
     630:	060d0501 	streq	r0, [sp], -r1, lsl #10
     634:	0614054c 	ldreq	r0, [r4], -ip, asr #10
     638:	03010501 	movweq	r0, #5377	; 0x1501
     63c:	11052e0b 	tstne	r5, fp, lsl #28
     640:	4a6d0306 	bmi	1b41260 <__bss_end__+0x1b37940>
     644:	01062405 	tsteq	r6, r5, lsl #8
     648:	052e1e05 	streq	r1, [lr, #-3589]!	; 0xfffff1fb
     64c:	7203061c 	andvc	r0, r3, #28, 12	; 0x1c00000
     650:	011a054a 	tsteq	sl, sl, asr #10
     654:	01062205 	tsteq	r6, r5, lsl #4
     658:	052e2905 	streq	r2, [lr, #-2309]!	; 0xfffff6fb
     65c:	4c300609 	ldcmi	6, cr0, [r0], #-36	; 0xffffffdc
     660:	054d684c 	strbeq	r6, [sp, #-2124]	; 0xfffff7b4
     664:	05010610 	streq	r0, [r1, #-1552]	; 0xfffff9f0
     668:	09052e0b 	stmdbeq	r5, {r0, r1, r3, r9, sl, fp, sp}
     66c:	4a0d0306 	bmi	34128c <__bss_end__+0x33796c>
     670:	01060e05 	tsteq	r6, r5, lsl #28
     674:	054a0b05 	strbeq	r0, [sl, #-2821]	; 0xfffff4fb
     678:	054d060d 	strbeq	r0, [sp, #-1549]	; 0xfffff9f3
     67c:	05010615 	streq	r0, [r1, #-1557]	; 0xfffff9eb
     680:	10054a0f 	andne	r4, r5, pc, lsl #20
     684:	02664703 	rsbeq	r4, r6, #786432	; 0xc0000
     688:	01010006 	tsteq	r1, r6
     68c:	00000128 	andeq	r0, r0, r8, lsr #2
     690:	00f60003 	rscseq	r0, r6, r3
     694:	01020000 	mrseq	r0, (UNDEF: 2)
     698:	000d0efb 	strdeq	r0, [sp], -fp
     69c:	01010101 	tsteq	r1, r1, lsl #2
     6a0:	01000000 	mrseq	r0, (UNDEF: 0)
     6a4:	2e010000 	cdpcs	0, 0, cr0, cr1, cr0, {0}
     6a8:	62696c2f 	rsbvs	r6, r9, #12032	; 0x2f00
     6ac:	6f2f0063 	svcvs	0x002f0063
     6b0:	682f7470 	stmdavs	pc!, {r4, r5, r6, sl, ip, sp, lr}	; <UNPREDICTABLE>
     6b4:	62656d6f 	rsbvs	r6, r5, #7104	; 0x1bc0
     6b8:	2f776572 	svccs	0x00776572
     6bc:	6c6c6543 	cfstr64vs	mvdx6, [ip], #-268	; 0xfffffef4
     6c0:	612f7261 			; <UNDEFINED> instruction: 0x612f7261
     6c4:	6e2d6d72 	mcrvs	13, 1, r6, cr13, cr2, {3}
     6c8:	2d656e6f 	stclcs	14, cr6, [r5, #-444]!	; 0xfffffe44
     6cc:	69626165 	stmdbvs	r2!, {r0, r2, r5, r6, r8, sp, lr}^
     6d0:	7365742d 	cmnvc	r5, #754974720	; 0x2d000000
     6d4:	2d392f74 	ldccs	15, cr2, [r9, #-464]!	; 0xfffffe30
     6d8:	39313032 	ldmdbcc	r1!, {r1, r4, r5, ip, sp}
     6dc:	632d3471 			; <UNDEFINED> instruction: 0x632d3471
     6e0:	37303173 			; <UNDEFINED> instruction: 0x37303173
     6e4:	696c2f65 	stmdbvs	ip!, {r0, r2, r5, r6, r8, r9, sl, fp, sp}^
     6e8:	63672f62 	cmnvs	r7, #392	; 0x188
     6ec:	72612f63 	rsbvc	r2, r1, #396	; 0x18c
     6f0:	6f6e2d6d 	svcvs	0x006e2d6d
     6f4:	652d656e 	strvs	r6, [sp, #-1390]!	; 0xfffffa92
     6f8:	2f696261 	svccs	0x00696261
     6fc:	2e322e39 	mrccs	14, 1, r2, cr2, cr9, {1}
     700:	6e692f31 	mcrvs	15, 3, r2, cr9, cr1, {1}
     704:	64756c63 	ldrbtvs	r6, [r5], #-3171	; 0xfffff39d
     708:	552f0065 	strpl	r0, [pc, #-101]!	; 6ab <__code_start__-0x7955>
     70c:	73726573 	cmnvc	r2, #482344960	; 0x1cc00000
     710:	72616a2f 	rsbvc	r6, r1, #192512	; 0x2f000
     714:	65776465 	ldrbvs	r6, [r7, #-1125]!	; 0xfffffb9b
     718:	62737369 	rsbsvs	r7, r3, #-1543503871	; 0xa4000001
     71c:	2f677265 	svccs	0x00677265
     720:	72756f43 	rsbsvc	r6, r5, #268	; 0x10c
     724:	2f736573 	svccs	0x00736573
     728:	34317363 	ldrtcc	r7, [r1], #-867	; 0xfffffc9d
     72c:	632f6530 			; <UNDEFINED> instruction: 0x632f6530
     730:	30343273 	eorscc	r3, r4, r3, ror r2
     734:	322d786c 	eorcc	r7, sp, #108, 16	; 0x6c0000
     738:	72707332 	rsbsvc	r7, r0, #-939524096	; 0xc8000000
     73c:	696c2f2f 	stmdbvs	ip!, {r0, r1, r2, r3, r5, r8, r9, sl, fp, sp}^
     740:	2f697062 	svccs	0x00697062
     744:	6c636e69 	stclvs	14, cr6, [r3], #-420	; 0xfffffe5c
     748:	00656475 	rsbeq	r6, r5, r5, ror r4
     74c:	69727000 	ldmdbvs	r2!, {ip, sp, lr}^
     750:	2e6b746e 	cdpcs	4, 6, cr7, cr11, cr14, {3}
     754:	00010063 	andeq	r0, r1, r3, rrx
     758:	64747300 	ldrbtvs	r7, [r4], #-768	; 0xfffffd00
     75c:	2e677261 	cdpcs	2, 6, cr7, cr7, cr1, {3}
     760:	00020068 	andeq	r0, r2, r8, rrx
     764:	69707200 	ldmdbvs	r0!, {r9, ip, sp, lr}^
     768:	0300682e 	movweq	r6, #2094	; 0x82e
     76c:	623c0000 	eorsvs	r0, ip, #0, 0
     770:	746c6975 	strbtvc	r6, [ip], #-2421	; 0xfffff68b
     774:	3e6e692d 	vmulcc.f16	s13, s28, s27	; <UNPREDICTABLE>
     778:	00000000 	andeq	r0, r0, r0
     77c:	702d6176 	eorvc	r6, sp, r6, ror r1
     780:	746e6972 	strbtvc	r6, [lr], #-2418	; 0xfffff68e
     784:	00682e6b 	rsbeq	r2, r8, fp, ror #28
     788:	00000001 	andeq	r0, r0, r1
     78c:	05002205 	streq	r2, [r0, #-517]	; 0xfffffdfb
     790:	00856802 	addeq	r6, r5, r2, lsl #16
     794:	01061700 	tsteq	r6, r0, lsl #14
     798:	68060505 	stmdavs	r6, {r0, r2, r8, sl}
     79c:	09051413 	stmdbeq	r5, {r0, r1, r4, sl, ip}
     7a0:	0612054b 	ldreq	r0, [r2], -fp, asr #10
     7a4:	06050501 	streq	r0, [r5], -r1, lsl #10
     7a8:	660616bb 			; <UNDEFINED> instruction: 0x660616bb
     7ac:	01053406 	tsteq	r5, r6, lsl #8
     7b0:	02661306 	rsbeq	r1, r6, #402653184	; 0x18000000
     7b4:	01010008 	tsteq	r1, r8
     7b8:	000000b0 	strheq	r0, [r0], -r0	; <UNPREDICTABLE>
     7bc:	00720003 	rsbseq	r0, r2, r3
     7c0:	01020000 	mrseq	r0, (UNDEF: 2)
     7c4:	000d0efb 	strdeq	r0, [sp], -fp
     7c8:	01010101 	tsteq	r1, r1, lsl #2
     7cc:	01000000 	mrseq	r0, (UNDEF: 0)
     7d0:	2e010000 	cdpcs	0, 0, cr0, cr1, cr0, {0}
     7d4:	62696c2f 	rsbvs	r6, r9, #12032	; 0x2f00
     7d8:	552f0063 	strpl	r0, [pc, #-99]!	; 77d <__code_start__-0x7883>
     7dc:	73726573 	cmnvc	r2, #482344960	; 0x1cc00000
     7e0:	72616a2f 	rsbvc	r6, r1, #192512	; 0x2f000
     7e4:	65776465 	ldrbvs	r6, [r7, #-1125]!	; 0xfffffb9b
     7e8:	62737369 	rsbsvs	r7, r3, #-1543503871	; 0xa4000001
     7ec:	2f677265 	svccs	0x00677265
     7f0:	72756f43 	rsbsvc	r6, r5, #268	; 0x10c
     7f4:	2f736573 	svccs	0x00736573
     7f8:	34317363 	ldrtcc	r7, [r1], #-867	; 0xfffffc9d
     7fc:	632f6530 			; <UNDEFINED> instruction: 0x632f6530
     800:	30343273 	eorscc	r3, r4, r3, ror r2
     804:	322d786c 	eorcc	r7, sp, #108, 16	; 0x6c0000
     808:	72707332 	rsbsvc	r7, r0, #-939524096	; 0xc8000000
     80c:	696c2f2f 	stmdbvs	ip!, {r0, r1, r2, r3, r5, r8, r9, sl, fp, sp}^
     810:	2f697062 	svccs	0x00697062
     814:	6c636e69 	stclvs	14, cr6, [r3], #-420	; 0xfffffe5c
     818:	00656475 	rsbeq	r6, r5, r5, ror r4
     81c:	74757000 	ldrbtvc	r7, [r5], #-0
     820:	72616863 	rsbvc	r6, r1, #6488064	; 0x630000
     824:	0100632e 	tsteq	r0, lr, lsr #6
     828:	70720000 	rsbsvc	r0, r2, r0
     82c:	00682e69 	rsbeq	r2, r8, r9, ror #28
     830:	00000002 	andeq	r0, r0, r2
     834:	05002405 	streq	r2, [r0, #-1029]	; 0xfffffbfb
     838:	0085c002 	addeq	ip, r5, r2
     83c:	01061400 	tsteq	r6, r0, lsl #8
     840:	4a062605 	bmi	18a05c <__bss_end__+0x18073c>
     844:	052e3405 	streq	r3, [lr, #-1029]!	; 0xfffffbfb
     848:	05010601 	streq	r0, [r1, #-1537]	; 0xfffff9ff
     84c:	054f061b 	strbeq	r0, [pc, #-1563]	; 239 <__code_start__-0x7dc7>
     850:	11051305 	tstne	r5, r5, lsl #6
     854:	01050106 	tsteq	r5, r6, lsl #2
     858:	06230567 	strteq	r0, [r3], -r7, ror #10
     85c:	13050567 	movwne	r0, #21863	; 0x5567
     860:	01061105 	tsteq	r6, r5, lsl #2
     864:	024b0105 	subeq	r0, fp, #1073741825	; 0x40000001
     868:	01010004 	tsteq	r1, r4
     86c:	000000bd 	strheq	r0, [r0], -sp
     870:	006f0003 	rsbeq	r0, pc, r3
     874:	01020000 	mrseq	r0, (UNDEF: 2)
     878:	000d0efb 	strdeq	r0, [sp], -fp
     87c:	01010101 	tsteq	r1, r1, lsl #2
     880:	01000000 	mrseq	r0, (UNDEF: 0)
     884:	2e010000 	cdpcs	0, 0, cr0, cr1, cr0, {0}
     888:	62696c2f 	rsbvs	r6, r9, #12032	; 0x2f00
     88c:	552f0063 	strpl	r0, [pc, #-99]!	; 831 <__code_start__-0x77cf>
     890:	73726573 	cmnvc	r2, #482344960	; 0x1cc00000
     894:	72616a2f 	rsbvc	r6, r1, #192512	; 0x2f000
     898:	65776465 	ldrbvs	r6, [r7, #-1125]!	; 0xfffffb9b
     89c:	62737369 	rsbsvs	r7, r3, #-1543503871	; 0xa4000001
     8a0:	2f677265 	svccs	0x00677265
     8a4:	72756f43 	rsbsvc	r6, r5, #268	; 0x10c
     8a8:	2f736573 	svccs	0x00736573
     8ac:	34317363 	ldrtcc	r7, [r1], #-867	; 0xfffffc9d
     8b0:	632f6530 			; <UNDEFINED> instruction: 0x632f6530
     8b4:	30343273 	eorscc	r3, r4, r3, ror r2
     8b8:	322d786c 	eorcc	r7, sp, #108, 16	; 0x6c0000
     8bc:	72707332 	rsbsvc	r7, r0, #-939524096	; 0xc8000000
     8c0:	696c2f2f 	stmdbvs	ip!, {r0, r1, r2, r3, r5, r8, r9, sl, fp, sp}^
     8c4:	2f697062 	svccs	0x00697062
     8c8:	6c636e69 	stclvs	14, cr6, [r3], #-420	; 0xfffffe5c
     8cc:	00656475 	rsbeq	r6, r5, r5, ror r4
     8d0:	74757000 	ldrbtvc	r7, [r5], #-0
     8d4:	00632e6b 	rsbeq	r2, r3, fp, ror #28
     8d8:	72000001 	andvc	r0, r0, #1, 0
     8dc:	682e6970 	stmdavs	lr!, {r4, r5, r6, r8, fp, sp, lr}
     8e0:	00000200 	andeq	r0, r0, r0, lsl #4
     8e4:	00220500 	eoreq	r0, r2, r0, lsl #10
     8e8:	85fc0205 	ldrbhi	r0, [ip, #517]!	; 0x205
     8ec:	06150000 	ldreq	r0, [r5], -r0
     8f0:	06050501 	streq	r0, [r5], -r1, lsl #10
     8f4:	000b054b 	andeq	r0, fp, fp, asr #10
     8f8:	01010402 	tsteq	r1, r2, lsl #8
     8fc:	02000505 	andeq	r0, r0, #20971520	; 0x1400000
     900:	2e060104 	adfcss	f0, f6, f4
     904:	02000905 	andeq	r0, r0, #81920	; 0x14000
     908:	4b060204 	blmi	181120 <__bss_end__+0x177800>
     90c:	02000f05 	andeq	r0, r0, #5, 30
     910:	05650204 	strbeq	r0, [r5, #-516]!	; 0xfffffdfc
     914:	04020010 	streq	r0, [r2], #-16
     918:	00010602 	andeq	r0, r1, r2, lsl #12
     91c:	2e020402 	cdpcs	4, 0, cr0, cr2, cr2, {0}
     920:	32060505 	andcc	r0, r6, #20971520	; 0x1400000
     924:	13060105 	movwne	r0, #24837	; 0x6105
     928:	01000602 	tsteq	r0, r2, lsl #12
     92c:	00061201 	andeq	r1, r6, r1, lsl #4
     930:	0c000300 	stceq	3, cr0, [r0], {-0}
     934:	02000001 	andeq	r0, r0, #1, 0
     938:	0d0efb01 	vstreq	d15, [lr, #-4]
     93c:	01010100 	mrseq	r0, (UNDEF: 17)
     940:	00000001 	andeq	r0, r0, r1
     944:	01000001 	tsteq	r0, r1
     948:	696c2f2e 	stmdbvs	ip!, {r1, r2, r3, r5, r8, r9, sl, fp, sp}^
     94c:	2f006362 	svccs	0x00006362
     950:	2f74706f 	svccs	0x0074706f
     954:	656d6f68 	strbvs	r6, [sp, #-3944]!	; 0xfffff098
     958:	77657262 	strbvc	r7, [r5, -r2, ror #4]!
     95c:	6c65432f 	stclvs	3, cr4, [r5], #-188	; 0xffffff44
     960:	2f72616c 	svccs	0x0072616c
     964:	2d6d7261 	sfmcs	f7, 2, [sp, #-388]!	; 0xfffffe7c
     968:	656e6f6e 	strbvs	r6, [lr, #-3950]!	; 0xfffff092
     96c:	6261652d 	rsbvs	r6, r1, #188743680	; 0xb400000
     970:	65742d69 	ldrbvs	r2, [r4, #-3433]!	; 0xfffff297
     974:	392f7473 	stmdbcc	pc!, {r0, r1, r4, r5, r6, sl, ip, sp, lr}	; <UNPREDICTABLE>
     978:	3130322d 	teqcc	r0, sp, lsr #4
     97c:	2d347139 	ldfcss	f7, [r4, #-228]!	; 0xffffff1c
     980:	30317363 	eorscc	r7, r1, r3, ror #6
     984:	6c2f6537 	cfstr32vs	mvfx6, [pc], #-220	; 8b0 <__code_start__-0x7750>
     988:	672f6269 	strvs	r6, [pc, -r9, ror #4]!
     98c:	612f6363 			; <UNDEFINED> instruction: 0x612f6363
     990:	6e2d6d72 	mcrvs	13, 1, r6, cr13, cr2, {3}
     994:	2d656e6f 	stclcs	14, cr6, [r5, #-444]!	; 0xfffffe44
     998:	69626165 	stmdbvs	r2!, {r0, r2, r5, r6, r8, sp, lr}^
     99c:	322e392f 	eorcc	r3, lr, #770048	; 0xbc000
     9a0:	692f312e 	stmdbvs	pc!, {r1, r2, r3, r5, r8, ip, sp}	; <UNPREDICTABLE>
     9a4:	756c636e 	strbvc	r6, [ip, #-878]!	; 0xfffffc92
     9a8:	2f006564 	svccs	0x00006564
     9ac:	72657355 	rsbvc	r7, r5, #1409286145	; 0x54000001
     9b0:	616a2f73 	smcvs	41715	; 0xa2f3
     9b4:	77646572 			; <UNDEFINED> instruction: 0x77646572
     9b8:	73736965 	cmnvc	r3, #1654784	; 0x194000
     9bc:	67726562 	ldrbvs	r6, [r2, -r2, ror #10]!
     9c0:	756f432f 	strbvc	r4, [pc, #-815]!	; 699 <__code_start__-0x7967>
     9c4:	73657372 	cmnvc	r5, #-939524095	; 0xc8000001
     9c8:	3173632f 	cmncc	r3, pc, lsr #6
     9cc:	2f653034 	svccs	0x00653034
     9d0:	34327363 	ldrtcc	r7, [r2], #-867	; 0xfffffc9d
     9d4:	2d786c30 	ldclcs	12, cr6, [r8, #-192]!	; 0xffffff40
     9d8:	70733232 	rsbsvc	r3, r3, r2, lsr r2
     9dc:	6c2f2f72 	stcvs	15, cr2, [pc], #-456	; 81c <__code_start__-0x77e4>
     9e0:	69706269 	ldmdbvs	r0!, {r0, r3, r5, r6, r9, sp, lr}^
     9e4:	636e692f 	cmnvs	lr, #770048	; 0xbc000
     9e8:	6564756c 	strbvs	r7, [r4, #-1388]!	; 0xfffffa94
     9ec:	61760000 	cmnvs	r6, r0
     9f0:	6972702d 	ldmdbvs	r2!, {r0, r2, r3, r5, ip, sp, lr}^
     9f4:	2e6b746e 	cdpcs	4, 6, cr7, cr11, cr14, {3}
     9f8:	00010063 	andeq	r0, r1, r3, rrx
     9fc:	64747300 	ldrbtvs	r7, [r4], #-768	; 0xfffffd00
     a00:	2d746e69 	ldclcs	14, cr6, [r4, #-420]!	; 0xfffffe5c
     a04:	2e636367 	cdpcs	3, 6, cr6, cr3, cr7, {3}
     a08:	00020068 	andeq	r0, r2, r8, rrx
     a0c:	69707200 	ldmdbvs	r0!, {r9, ip, sp, lr}^
     a10:	0300682e 	movweq	r6, #2094	; 0x82e
     a14:	70720000 	rsbsvc	r0, r2, r0
     a18:	6e692d69 	cdpvs	13, 6, cr2, cr9, cr9, {3}
     a1c:	6e726574 	mrcvs	5, 3, r6, cr2, cr4, {3}
     a20:	682e6c61 	stmdavs	lr!, {r0, r5, r6, sl, fp, sp, lr}
     a24:	00000300 	andeq	r0, r0, r0, lsl #6
     a28:	61647473 	smcvs	18243	; 0x4743
     a2c:	682e6772 	stmdavs	lr!, {r1, r4, r5, r6, r8, r9, sl, sp, lr}
     a30:	00000200 	andeq	r0, r0, r0, lsl #4
     a34:	6975623c 	ldmdbvs	r5!, {r2, r3, r4, r5, r9, sp, lr}^
     a38:	692d746c 	pushvs	{r2, r3, r5, r6, sl, ip, sp, lr}
     a3c:	00003e6e 	andeq	r3, r0, lr, ror #28
     a40:	05000000 	streq	r0, [r0, #-0]
     a44:	0205001b 	andeq	r0, r5, #27, 0
     a48:	00008630 	andeq	r8, r0, r0, lsr r6
     a4c:	05012603 	streq	r2, [r1, #-1539]	; 0xfffff9fd
     a50:	2d05011d 	stfcss	f0, [r5, #-116]	; 0xffffff8c
     a54:	01050106 	tsteq	r5, r6, lsl #2
     a58:	33054a2e 	movwcc	r4, #23086	; 0x5a2e
     a5c:	02055106 	andeq	r5, r5, #-2147483647	; 0x80000001
     a60:	06060513 			; <UNDEFINED> instruction: 0x06060513
     a64:	06020501 	streq	r0, [r2], -r1, lsl #10
     a68:	00080530 	andeq	r0, r8, r0, lsr r5
     a6c:	01010402 	tsteq	r1, r2, lsl #8
     a70:	02000205 	andeq	r0, r0, #1342177280	; 0x50000000
     a74:	01060104 	tsteq	r6, r4, lsl #2
     a78:	02000305 	andeq	r0, r0, #335544320	; 0x14000000
     a7c:	2f060204 	svccs	0x00060204
     a80:	02000805 	andeq	r0, r0, #327680	; 0x50000
     a84:	01060204 	tsteq	r6, r4, lsl #4
     a88:	02001505 	andeq	r1, r0, #20971520	; 0x1400000
     a8c:	49060204 	stmdbmi	r6, {r2, r9}
     a90:	02001805 	andeq	r1, r0, #327680	; 0x50000
     a94:	01060204 	tsteq	r6, r4, lsl #4
     a98:	02040200 	andeq	r0, r4, #0, 4
     a9c:	0602052e 	streq	r0, [r2], -lr, lsr #10
     aa0:	06050530 			; <UNDEFINED> instruction: 0x06050530
     aa4:	06020501 	streq	r0, [r2], -r1, lsl #10
     aa8:	0601054b 	streq	r0, [r1], -fp, asr #10
     aac:	063e0513 			; <UNDEFINED> instruction: 0x063e0513
     ab0:	14020531 	strne	r0, [r2], #-1329	; 0xfffffacf
     ab4:	01060e05 	tsteq	r6, r5, lsl #28
     ab8:	052e0605 	streq	r0, [lr, #-1541]!	; 0xfffff9fb
     abc:	052f0602 	streq	r0, [pc, #-1538]!	; 4c2 <__code_start__-0x7b3e>
     ac0:	05010604 	streq	r0, [r1, #-1540]	; 0xfffff9fc
     ac4:	052f0603 	streq	r0, [pc, #-1539]!	; 4c9 <__code_start__-0x7b37>
     ac8:	05010611 	streq	r0, [r1, #-1553]	; 0xfffff9ef
     acc:	02052e09 	andeq	r2, r5, #144	; 0x90
     ad0:	05153006 	ldreq	r3, [r5, #-6]
     ad4:	05010607 	streq	r0, [r1, #-1543]	; 0xfffff9f9
     ad8:	0b052e02 	bleq	14c2e8 <__bss_end__+0x1429c8>
     adc:	01040200 	mrseq	r0, R12_usr
     ae0:	02052e06 	andeq	r2, r5, #96	; 0x60
     ae4:	01040200 	mrseq	r0, R12_usr
     ae8:	03050106 	movweq	r0, #20742	; 0x5106
     aec:	03040200 	movweq	r0, #16896	; 0x4200
     af0:	0c052f06 	stceq	15, cr2, [r5], {6}
     af4:	03040200 	movweq	r0, #16896	; 0x4200
     af8:	0a050106 	beq	140f18 <__bss_end__+0x1375f8>
     afc:	03040200 	movweq	r0, #16896	; 0x4200
     b00:	0017052e 	andseq	r0, r7, lr, lsr #10
     b04:	06030402 	streq	r0, [r3], -r2, lsl #8
     b08:	0402002d 	streq	r0, [r2], #-45	; 0xffffffd3
     b0c:	05010603 	streq	r0, [r1, #-1539]	; 0xfffff9fd
     b10:	05300602 	ldreq	r0, [r0, #-1538]!	; 0xfffff9fe
     b14:	2e010609 	cfmadd32cs	mvax0, mvfx0, mvfx1, mvfx9
     b18:	30060205 	andcc	r0, r6, r5, lsl #4
     b1c:	13060105 	movwne	r0, #24837	; 0x6105
     b20:	31064905 	tstcc	r6, r5, lsl #18
     b24:	02050106 	andeq	r0, r5, #-2147483647	; 0x80000001
     b28:	0405a006 	streq	sl, [r5], #-6
     b2c:	03050106 	movweq	r0, #20742	; 0x5106
     b30:	09052f06 	stmdbeq	r5, {r1, r2, r8, r9, sl, fp, sp}
     b34:	02050106 	andeq	r0, r5, #-2147483647	; 0x80000001
     b38:	05133006 	ldreq	r3, [r3, #-6]
     b3c:	0501060b 	streq	r0, [r1, #-1547]	; 0xfffff9f5
     b40:	06300602 	ldrteq	r0, [r0], -r2, lsl #12
     b44:	0604052e 	streq	r0, [r4], -lr, lsr #10
     b48:	13152402 	tstne	r5, #33554432	; 0x2000000
     b4c:	01060f05 	tsteq	r6, r5, lsl #30
     b50:	4a06052e 	bmi	182010 <__bss_end__+0x1786f0>
     b54:	4b060505 	blmi	181f70 <__bss_end__+0x178650>
     b58:	06090513 			; <UNDEFINED> instruction: 0x06090513
     b5c:	06050501 	streq	r0, [r5], -r1, lsl #10
     b60:	060b052f 	streq	r0, [fp], -pc, lsr #10
     b64:	000d0510 	andeq	r0, sp, r0, lsl r5
     b68:	2c010402 	cfstrscs	mvf0, [r1], {2}
     b6c:	02000405 	andeq	r0, r0, #83886080	; 0x5000000
     b70:	34060104 	strcc	r0, [r6], #-260	; 0xfffffefc
     b74:	02000505 	andeq	r0, r0, #20971520	; 0x1400000
     b78:	05130104 	ldreq	r0, [r3, #-260]	; 0xfffffefc
     b7c:	0402001b 	streq	r0, [r2], #-27	; 0xffffffe5
     b80:	05010601 	streq	r0, [r1, #-1537]	; 0xfffff9ff
     b84:	04020007 	streq	r0, [r2], #-7
     b88:	1805d601 	stmdane	r5, {r0, r9, sl, ip, lr, pc}
     b8c:	01040200 	mrseq	r0, R12_usr
     b90:	000a052e 	andeq	r0, sl, lr, lsr #10
     b94:	4a010402 	bmi	41ba4 <__bss_end__+0x38284>
     b98:	02000b05 	andeq	r0, r0, #5120	; 0x1400
     b9c:	2f060104 	svccs	0x00060104
     ba0:	02000e05 	andeq	r0, r0, #80	; 0x50
     ba4:	2e060104 	adfcss	f0, f6, f4
     ba8:	02000405 	andeq	r0, r0, #83886080	; 0x5000000
     bac:	062e0104 	strteq	r0, [lr], -r4, lsl #2
     bb0:	0606054b 	streq	r0, [r6], -fp, asr #10
     bb4:	06050501 	streq	r0, [r5], -r1, lsl #10
     bb8:	060a052f 	streq	r0, [sl], -pc, lsr #10
     bbc:	4a070501 	bmi	1c1fc8 <__bss_end__+0x1b86a8>
     bc0:	030d052e 	movweq	r0, #54574	; 0xd52e
     bc4:	054a2e76 	strbeq	r2, [sl, #-3702]	; 0xfffff18a
     bc8:	0d050d0b 	stceq	13, cr0, [r5, #-44]	; 0xffffffd4
     bcc:	01040200 	mrseq	r0, R12_usr
     bd0:	2e140306 	cdpcs	3, 1, cr0, cr4, cr6, {0}
     bd4:	02001105 	andeq	r1, r0, #1073741825	; 0x40000001
     bd8:	05130104 	ldreq	r0, [r3, #-260]	; 0xfffffefc
     bdc:	0402002d 	streq	r0, [r2], #-45	; 0xffffffd3
     be0:	05010601 	streq	r0, [r1, #-1537]	; 0xfffff9ff
     be4:	0402002a 	streq	r0, [r2], #-42	; 0xffffffd6
     be8:	16052e01 	strne	r2, [r5], -r1, lsl #28
     bec:	01040200 	mrseq	r0, R12_usr
     bf0:	0014054a 	andseq	r0, r4, sl, asr #10
     bf4:	06010402 	streq	r0, [r1], -r2, lsl #8
     bf8:	000d054b 	andeq	r0, sp, fp, asr #10
     bfc:	06010402 	streq	r0, [r1], -r2, lsl #8
     c00:	04020001 	streq	r0, [r2], #-1
     c04:	2f064a01 	svccs	0x00064a01
     c08:	01061205 	tsteq	r6, r5, lsl #4
     c0c:	060d054a 	streq	r0, [sp], -sl, asr #10
     c10:	0612052f 	ldreq	r0, [r2], -pc, lsr #10
     c14:	06190501 	ldreq	r0, [r9], -r1, lsl #10
     c18:	0004054b 	andeq	r0, r4, fp, asr #10
     c1c:	03020402 	movweq	r0, #9218	; 0x2402
     c20:	02000111 	andeq	r0, r0, #1073741828	; 0x40000004
     c24:	05010204 	streq	r0, [r1, #-516]	; 0xfffffdfc
     c28:	04020002 	streq	r0, [r2], #-2
     c2c:	09051502 	stmdbeq	r5, {r1, r8, sl, ip}
     c30:	02040200 	andeq	r0, r4, #0, 4
     c34:	02000106 	andeq	r0, r0, #-2147483647	; 0x80000001
     c38:	054a0204 	strbeq	r0, [sl, #-516]	; 0xfffffdfc
     c3c:	04020001 	streq	r0, [r2], #-1
     c40:	04059f02 	streq	r9, [r5], #-3842	; 0xfffff0fe
     c44:	4a6e0306 	bmi	1b81864 <__bss_end__+0x1b77f44>
     c48:	01060905 	tsteq	r6, r5, lsl #18
     c4c:	2f060405 	svccs	0x00060405
     c50:	11060605 	tstne	r6, r5, lsl #12
     c54:	052f0405 	streq	r0, [pc, #-1029]!	; 857 <__code_start__-0x77a9>
     c58:	2e63030b 	cdpcs	3, 6, cr0, cr3, cr11, {0}
     c5c:	02001905 	andeq	r1, r0, #81920	; 0x14000
     c60:	03060104 	movweq	r0, #24836	; 0x6104
     c64:	1a052e24 	bne	14c4fc <__bss_end__+0x142bdc>
     c68:	01040200 	mrseq	r0, R12_usr
     c6c:	00280513 	eoreq	r0, r8, r3, lsl r5
     c70:	06010402 	streq	r0, [r1], -r2, lsl #8
     c74:	00250501 	eoreq	r0, r5, r1, lsl #10
     c78:	2e010402 	cdpcs	4, 0, cr0, cr1, cr2, {0}
     c7c:	02001f05 	andeq	r1, r0, #5, 30
     c80:	054a0104 	strbeq	r0, [sl, #-260]	; 0xfffffefc
     c84:	0402000b 	streq	r0, [r2], #-11
     c88:	054b0601 	strbeq	r0, [fp, #-1537]	; 0xfffff9ff
     c8c:	04020004 	streq	r0, [r2], #-4
     c90:	00010601 	andeq	r0, r1, r1, lsl #12
     c94:	4a010402 	bmi	41ca4 <__bss_end__+0x38384>
     c98:	01040200 	mrseq	r0, R12_usr
     c9c:	02004e06 	andeq	r4, r0, #96	; 0x60
     ca0:	00010104 	andeq	r0, r1, r4, lsl #2
     ca4:	01010402 	tsteq	r1, r2, lsl #8
     ca8:	01040200 	mrseq	r0, R12_usr
     cac:	04020001 	streq	r0, [r2], #-1
     cb0:	002e0601 	eoreq	r0, lr, r1, lsl #12
     cb4:	66010402 	strvs	r0, [r1], -r2, lsl #8
     cb8:	01040200 	mrseq	r0, R12_usr
     cbc:	0402002e 	streq	r0, [r2], #-46	; 0xffffffd2
     cc0:	054a0601 	strbeq	r0, [sl, #-1537]	; 0xfffff9ff
     cc4:	7fa60348 	svcvc	0x00a60348
     cc8:	05052008 	streq	r2, [r5, #-8]
     ccc:	2e060113 	mcrcs	1, 0, r0, cr6, cr3, {0}
     cd0:	02040200 	andeq	r0, r4, #0, 4
     cd4:	02002e06 	andeq	r2, r0, #96	; 0x60
     cd8:	00010204 	andeq	r0, r1, r4, lsl #4
     cdc:	13020402 	movwne	r0, #9218	; 0x2402
     ce0:	02001105 	andeq	r1, r0, #1073741825	; 0x40000001
     ce4:	01060204 	tsteq	r6, r4, lsl #4
     ce8:	02000505 	andeq	r0, r0, #20971520	; 0x1400000
     cec:	4b060204 	blmi	181504 <__bss_end__+0x177be4>
     cf0:	02000705 	andeq	r0, r0, #1310720	; 0x140000
     cf4:	01060204 	tsteq	r6, r4, lsl #4
     cf8:	4b060905 	blmi	183114 <__bss_end__+0x1797f4>
     cfc:	01060e05 	tsteq	r6, r5, lsl #28
     d00:	02004805 	andeq	r4, r0, #327680	; 0x50000
     d04:	05620104 	strbeq	r0, [r2, #-260]!	; 0xfffffefc
     d08:	04020005 	streq	r0, [r2], #-5
     d0c:	004b0601 	subeq	r0, fp, r1, lsl #12
     d10:	01010402 	tsteq	r1, r2, lsl #8
     d14:	01040200 	mrseq	r0, R12_usr
     d18:	02009e06 	andeq	r9, r0, #96	; 0x60
     d1c:	002e0104 	eoreq	r0, lr, r4, lsl #2
     d20:	06010402 	streq	r0, [r1], -r2, lsl #8
     d24:	0340052e 	movteq	r0, #1326	; 0x52e
     d28:	06d600e1 	ldrbeq	r0, [r6], r1, ror #1
     d2c:	06020501 	streq	r0, [r2], -r1, lsl #10
     d30:	061e059f 			; <UNDEFINED> instruction: 0x061e059f
     d34:	2e120501 	cfmul32cs	mvfx0, mvfx2, mvfx1
     d38:	2f060505 	svccs	0x00060505
     d3c:	05140205 	ldreq	r0, [r4, #-517]	; 0xfffffdfb
     d40:	05010609 	streq	r0, [r1, #-1545]	; 0xfffff9f7
     d44:	054b0605 	strbeq	r0, [fp, #-1541]	; 0xfffff9fb
     d48:	08051302 	stmdaeq	r5, {r1, r8, r9, ip}
     d4c:	02050d06 	andeq	r0, r5, #384	; 0x180
     d50:	06040533 			; <UNDEFINED> instruction: 0x06040533
     d54:	060f054c 	streq	r0, [pc], -ip, asr #10
     d58:	2e090501 	cfsh32cs	mvfx0, mvfx9, #1
     d5c:	2c060805 	stccs	8, cr0, [r6], {5}
     d60:	2e060205 	cdpcs	2, 0, cr0, cr6, cr5, {0}
     d64:	02000d05 	andeq	r0, r0, #320	; 0x140
     d68:	054a0104 	strbeq	r0, [sl, #-260]	; 0xfffffefc
     d6c:	054b0603 	strbeq	r0, [fp, #-1539]	; 0xfffff9fd
     d70:	05010605 	streq	r0, [r1, #-1541]	; 0xfffff9fb
     d74:	054d0608 	strbeq	r0, [sp, #-1544]	; 0xfffff9f8
     d78:	0501060e 	streq	r0, [r1, #-1550]	; 0xfffff9f2
     d7c:	04052e0a 	streq	r2, [r5], #-3594	; 0xfffff1f6
     d80:	09052f06 	stmdbeq	r5, {r1, r2, r8, r9, sl, fp, sp}
     d84:	04050106 	streq	r0, [r5], #-262	; 0xfffffefa
     d88:	07052f06 	streq	r2, [r5, -r6, lsl #30]
     d8c:	052e0106 	streq	r0, [lr, #-262]!	; 0xfffffefa
     d90:	05300604 	ldreq	r0, [r0, #-1540]!	; 0xfffff9fc
     d94:	05010607 	streq	r0, [r1, #-1543]	; 0xfffff9f9
     d98:	13300604 	teqne	r0, #4, 12	; 0x400000
     d9c:	060d0514 			; <UNDEFINED> instruction: 0x060d0514
     da0:	06090510 			; <UNDEFINED> instruction: 0x06090510
     da4:	06120530 			; <UNDEFINED> instruction: 0x06120530
     da8:	2e0a0501 	cfsh32cs	mvfx0, mvfx10, #1
     dac:	05660905 	strbeq	r0, [r6, #-2309]!	; 0xfffff6fb
     db0:	054b0605 	strbeq	r0, [fp, #-1541]	; 0xfffff9fb
     db4:	05010612 	streq	r0, [r1, #-1554]	; 0xfffff9ee
     db8:	0b052e16 	bleq	14c618 <__bss_end__+0x142cf8>
     dbc:	0605052e 	streq	r0, [r5], -lr, lsr #10
     dc0:	0608052f 	streq	r0, [r8], -pc, lsr #10
     dc4:	04052e01 	streq	r2, [r5], #-3585	; 0xfffff1ff
     dc8:	4a013006 	bmi	4cde8 <__bss_end__+0x434c8>
     dcc:	02001501 	andeq	r1, r0, #4194304	; 0x400000
     dd0:	36020104 	strcc	r0, [r2], -r4, lsl #2
     dd4:	0402000f 	streq	r0, [r2], #-15
     dd8:	02000101 	andeq	r0, r0, #1073741824	; 0x40000000
     ddc:	05d60104 	ldrbeq	r0, [r6, #260]	; 0x104
     de0:	01133411 	tsteq	r3, r1, lsl r4
     de4:	02040200 	andeq	r0, r4, #0, 4
     de8:	0200ba06 	andeq	fp, r0, #24576	; 0x6000
     dec:	ba060304 	blt	181a04 <__bss_end__+0x1780e4>
     df0:	03040200 	movweq	r0, #16896	; 0x4200
     df4:	04020001 	streq	r0, [r2], #-1
     df8:	15051403 	strne	r1, [r5, #-1027]	; 0xfffffbfd
     dfc:	03040200 	movweq	r0, #16896	; 0x4200
     e00:	11050106 	tstne	r5, r6, lsl #2
     e04:	03040200 	movweq	r0, #16896	; 0x4200
     e08:	1a052f06 	bne	14ca28 <__bss_end__+0x143108>
     e0c:	03040200 	movweq	r0, #16896	; 0x4200
     e10:	11050106 	tstne	r5, r6, lsl #2
     e14:	03040200 	movweq	r0, #16896	; 0x4200
     e18:	0200d706 	andeq	sp, r0, #1572864	; 0x180000
     e1c:	00130304 	andseq	r0, r3, r4, lsl #6
     e20:	14030402 	strne	r0, [r3], #-1026	; 0xfffffbfe
     e24:	03040200 	movweq	r0, #16896	; 0x4200
     e28:	04020067 	streq	r0, [r2], #-103	; 0xffffff99
     e2c:	14056803 	strne	r6, [r5], #-2051	; 0xfffff7fd
     e30:	03040200 	movweq	r0, #16896	; 0x4200
     e34:	13050106 	movwne	r0, #20742	; 0x5106
     e38:	03040200 	movweq	r0, #16896	; 0x4200
     e3c:	06180582 	ldreq	r0, [r8], -r2, lsl #11
     e40:	061b054e 	ldreq	r0, [fp], -lr, asr #10
     e44:	821a0501 	andshi	r0, sl, #4194304	; 0x400000
     e48:	4b060905 	blmi	183264 <__bss_end__+0x179944>
     e4c:	01060d05 	tsteq	r6, r5, lsl #26
     e50:	0609052e 	streq	r0, [r9], -lr, lsr #10
     e54:	05ba06f3 	ldreq	r0, [sl, #1779]!	; 0x6f3
     e58:	05300615 	ldreq	r0, [r0, #-1557]!	; 0xfffff9eb
     e5c:	05010618 	streq	r0, [r1, #-1560]	; 0xfffff9e8
     e60:	19056617 	stmdbne	r5, {r0, r1, r2, r4, r9, sl, sp, lr}
     e64:	15054b06 	strne	r4, [r5, #-2822]	; 0xfffff4fa
     e68:	666f0306 	strbtvs	r0, [pc], -r6, lsl #6
     e6c:	48061105 	stmdami	r6, {r0, r2, r8, ip}
     e70:	0905d601 	stmdbeq	r5, {r0, r9, sl, ip, lr, pc}
     e74:	052e0b03 	streq	r0, [lr, #-2819]!	; 0xfffff4fd
     e78:	2e01060d 	cfmadd32cs	mvax0, mvfx0, mvfx1, mvfx13
     e7c:	f3060905 	vmls.i8	d0, d6, d5
     e80:	1505ba06 	strne	fp, [r5, #-2566]	; 0xfffff5fa
     e84:	03062f06 	movweq	r2, #28422	; 0x6f06
     e88:	19056675 	stmdbne	r5, {r0, r2, r4, r5, r6, r9, sl, sp, lr}
     e8c:	4a130306 	bmi	4c1aac <__bss_end__+0x4b818c>
     e90:	03061505 	movweq	r1, #25861	; 0x6505
     e94:	0306666d 	movweq	r6, #26221	; 0x666d
     e98:	ba014a15 	blt	536f4 <__bss_end__+0x49dd4>
     e9c:	05052e06 	streq	r2, [r5, #-3590]	; 0xfffff1fa
     ea0:	9e011a06 	vmlals.f32	s2, s2, s12
     ea4:	010e032e 	tsteq	lr, lr, lsr #6
     ea8:	01060905 	tsteq	r6, r5, lsl #18
     eac:	08060505 	stmdaeq	r6, {r0, r2, r8, sl}
     eb0:	03040575 	movweq	r0, #17781	; 0x4575
     eb4:	07050118 	smladeq	r5, r8, r1, r0
     eb8:	04050106 	streq	r0, [r5], #-262	; 0xfffffefa
     ebc:	05053106 	streq	r3, [r5, #-262]	; 0xfffffefa
     ec0:	052e6703 	streq	r6, [lr, #-1795]!	; 0xfffff8fd
     ec4:	0501061c 	streq	r0, [r1, #-1564]	; 0xfffff9e4
     ec8:	05058209 	streq	r8, [r5, #-521]	; 0xfffffdf7
     ecc:	0531f306 	ldreq	pc, [r1, #-774]!	; 0xfffffcfa
     ed0:	0501061c 	streq	r0, [r1, #-1564]	; 0xfffff9e4
     ed4:	05058209 	streq	r8, [r5, #-521]	; 0xfffffdf7
     ed8:	0530f306 	ldreq	pc, [r0, #-774]!	; 0xfffffcfa
     edc:	0501061b 	streq	r0, [r1, #-1563]	; 0xfffff9e5
     ee0:	05058209 	streq	r8, [r5, #-521]	; 0xfffffdf7
     ee4:	0530f306 	ldreq	pc, [r0, #-774]!	; 0xfffffcfa
     ee8:	05010607 	streq	r0, [r1, #-1543]	; 0xfffff9f9
     eec:	30830605 	addcc	r0, r3, r5, lsl #12
     ef0:	01060905 	tsteq	r6, r5, lsl #18
     ef4:	08060505 	stmdaeq	r6, {r0, r2, r8, sl}
     ef8:	30110575 	andscc	r0, r1, r5, ror r5
     efc:	01062205 	tsteq	r6, r5, lsl #4
     f00:	4b060505 	blmi	18231c <__bss_end__+0x1789fc>
     f04:	05831105 	streq	r1, [r3, #261]	; 0x105
     f08:	9e018305 	cdpls	3, 0, cr8, cr1, cr5, {0}
     f0c:	060e0535 			; <UNDEFINED> instruction: 0x060e0535
     f10:	2e0a0501 	cfsh32cs	mvfx0, mvfx10, #1
     f14:	04052d06 	streq	r2, [r5], #-3334	; 0xfffff2fa
     f18:	13050106 	movwne	r0, #20742	; 0x5106
     f1c:	01040200 	mrseq	r0, R12_usr
     f20:	0010054a 	andseq	r0, r0, sl, asr #10
     f24:	2e010402 	cdpcs	4, 0, cr0, cr1, cr2, {0}
     f28:	01040200 	mrseq	r0, R12_usr
     f2c:	06020566 	streq	r0, [r2], -r6, ror #10
     f30:	06070516 			; <UNDEFINED> instruction: 0x06070516
     f34:	06020501 	streq	r0, [r2], -r1, lsl #10
     f38:	0601054b 	streq	r0, [r1], -fp, asr #10
     f3c:	1e026613 	mcrne	6, 0, r6, cr2, cr3, {0}
     f40:	97010100 	strls	r0, [r1, -r0, lsl #2]
     f44:	03000000 	movweq	r0, #0
     f48:	00007c00 	andeq	r7, r0, r0, lsl #24
     f4c:	fb010200 	blx	41756 <__bss_end__+0x37e36>
     f50:	01000d0e 	tsteq	r0, lr, lsl #26
     f54:	00010101 	andeq	r0, r1, r1, lsl #2
     f58:	00010000 	andeq	r0, r1, r0
     f5c:	2f2e0100 	svccs	0x002e0100
     f60:	66617473 			; <UNDEFINED> instruction: 0x66617473
     f64:	72732d66 	rsbsvc	r2, r3, #6528	; 0x1980
     f68:	552f0063 	strpl	r0, [pc, #-99]!	; f0d <__code_start__-0x70f3>
     f6c:	73726573 	cmnvc	r2, #482344960	; 0x1cc00000
     f70:	72616a2f 	rsbvc	r6, r1, #192512	; 0x2f000
     f74:	65776465 	ldrbvs	r6, [r7, #-1125]!	; 0xfffffb9b
     f78:	62737369 	rsbsvs	r7, r3, #-1543503871	; 0xa4000001
     f7c:	2f677265 	svccs	0x00677265
     f80:	72756f43 	rsbsvc	r6, r5, #268	; 0x10c
     f84:	2f736573 	svccs	0x00736573
     f88:	34317363 	ldrtcc	r7, [r1], #-867	; 0xfffffc9d
     f8c:	632f6530 			; <UNDEFINED> instruction: 0x632f6530
     f90:	30343273 	eorscc	r3, r4, r3, ror r2
     f94:	322d786c 	eorcc	r7, sp, #108, 16	; 0x6c0000
     f98:	72707332 	rsbsvc	r7, r0, #-939524096	; 0xc8000000
     f9c:	696c2f2f 	stmdbvs	ip!, {r0, r1, r2, r3, r5, r8, r9, sl, fp, sp}^
     fa0:	2f697062 	svccs	0x00697062
     fa4:	6c636e69 	stclvs	14, cr6, [r3], #-420	; 0xfffffe5c
     fa8:	00656475 	rsbeq	r6, r5, r5, ror r4
     fac:	656c6300 	strbvs	r6, [ip, #-768]!	; 0xfffffd00
     fb0:	722d6e61 	eorvc	r6, sp, #1552	; 0x610
     fb4:	6f6f6265 	svcvs	0x006f6265
     fb8:	00632e74 	rsbeq	r2, r3, r4, ror lr
     fbc:	72000001 	andvc	r0, r0, #1, 0
     fc0:	682e6970 	stmdavs	lr!, {r4, r5, r6, r8, fp, sp, lr}
     fc4:	00000200 	andeq	r0, r0, r0, lsl #4
     fc8:	00190500 	andseq	r0, r9, r0, lsl #10
     fcc:	8d700205 	lfmhi	f0, 2, [r0, #-20]!	; 0xffffffec
     fd0:	05150000 	ldreq	r0, [r5, #-0]
     fd4:	2f832f05 	svccs	0x00832f05
     fd8:	0006024b 	andeq	r0, r6, fp, asr #4
     fdc:	00b10101 	adcseq	r0, r1, r1, lsl #2
     fe0:	00030000 	andeq	r0, r3, r0
     fe4:	00000076 	andeq	r0, r0, r6, ror r0
     fe8:	0efb0102 	cdpeq	1, 15, cr0, cr11, cr2, {0}
     fec:	0101000d 	tsteq	r1, sp
     ff0:	00000101 	andeq	r0, r0, r1, lsl #2
     ff4:	00000100 	andeq	r0, r0, r0, lsl #2
     ff8:	732f2e01 			; <UNDEFINED> instruction: 0x732f2e01
     ffc:	66666174 			; <UNDEFINED> instruction: 0x66666174
    1000:	6372732d 	cmnvs	r2, #-1275068416	; 0xb4000000
    1004:	73552f00 	cmpvc	r5, #0, 30
    1008:	2f737265 	svccs	0x00737265
    100c:	6572616a 	ldrbvs	r6, [r2, #-362]!	; 0xfffffe96
    1010:	69657764 	stmdbvs	r5!, {r2, r5, r6, r8, r9, sl, ip, sp, lr}^
    1014:	65627373 	strbvs	r7, [r2, #-883]!	; 0xfffffc8d
    1018:	432f6772 			; <UNDEFINED> instruction: 0x432f6772
    101c:	7372756f 	cmnvc	r2, #465567744	; 0x1bc00000
    1020:	632f7365 			; <UNDEFINED> instruction: 0x632f7365
    1024:	30343173 	eorscc	r3, r4, r3, ror r1
    1028:	73632f65 	cmnvc	r3, #404	; 0x194
    102c:	6c303432 	cfldrsvs	mvf3, [r0], #-200	; 0xffffff38
    1030:	32322d78 	eorscc	r2, r2, #120, 26	; 0x1e00
    1034:	2f727073 	svccs	0x00727073
    1038:	62696c2f 	rsbvs	r6, r9, #12032	; 0x2f00
    103c:	692f6970 	stmdbvs	pc!, {r4, r5, r6, r8, fp, sp, lr}	; <UNPREDICTABLE>
    1040:	756c636e 	strbvc	r6, [ip, #-878]!	; 0xfffffc92
    1044:	00006564 	andeq	r6, r0, r4, ror #10
    1048:	61747363 	cmnvs	r4, r3, ror #6
    104c:	632e7472 			; <UNDEFINED> instruction: 0x632e7472
    1050:	00000100 	andeq	r0, r0, r0, lsl #2
    1054:	2e697072 	mcrcs	0, 3, r7, cr9, cr2, {3}
    1058:	00020068 	andeq	r0, r2, r8, rrx
    105c:	10050000 	andne	r0, r5, r0
    1060:	9c020500 	cfstr32ls	mvfx0, [r2], {-0}
    1064:	1500008d 	strne	r0, [r0, #-141]	; 0xffffff73
    1068:	052f0505 	streq	r0, [pc, #-1285]!	; b6b <__code_start__-0x7495>
    106c:	05051302 	streq	r1, [r5, #-770]	; 0xfffffcfe
    1070:	14133014 	ldrne	r3, [r3], #-20	; 0xffffffec
    1074:	0f060a05 	svceq	0x00060a05
    1078:	09053106 	stmdbeq	r5, {r1, r2, r8, ip, sp}
    107c:	0610054b 	ldreq	r0, [r0], -fp, asr #10
    1080:	05054a01 	streq	r4, [r5, #-2561]	; 0xfffff5ff
    1084:	01323006 	teqeq	r2, r6
    1088:	05144a01 	ldreq	r4, [r4, #-2561]	; 0xfffff5ff
    108c:	06022f02 	streq	r2, [r2], -r2, lsl #30
    1090:	95010100 	strls	r0, [r1, #-256]	; 0xffffff00
    1094:	03000000 	movweq	r0, #0
    1098:	00007d00 	andeq	r7, r0, r0, lsl #26
    109c:	fb010200 	blx	418a6 <__bss_end__+0x37f86>
    10a0:	01000d0e 	tsteq	r0, lr, lsl #26
    10a4:	00010101 	andeq	r0, r1, r1, lsl #2
    10a8:	00010000 	andeq	r0, r1, r0
    10ac:	2f2e0100 	svccs	0x002e0100
    10b0:	66617473 			; <UNDEFINED> instruction: 0x66617473
    10b4:	72732d66 	rsbsvc	r2, r3, #6528	; 0x1980
    10b8:	552f0063 	strpl	r0, [pc, #-99]!	; 105d <__code_start__-0x6fa3>
    10bc:	73726573 	cmnvc	r2, #482344960	; 0x1cc00000
    10c0:	72616a2f 	rsbvc	r6, r1, #192512	; 0x2f000
    10c4:	65776465 	ldrbvs	r6, [r7, #-1125]!	; 0xfffffb9b
    10c8:	62737369 	rsbsvs	r7, r3, #-1543503871	; 0xa4000001
    10cc:	2f677265 	svccs	0x00677265
    10d0:	72756f43 	rsbsvc	r6, r5, #268	; 0x10c
    10d4:	2f736573 	svccs	0x00736573
    10d8:	34317363 	ldrtcc	r7, [r1], #-867	; 0xfffffc9d
    10dc:	632f6530 			; <UNDEFINED> instruction: 0x632f6530
    10e0:	30343273 	eorscc	r3, r4, r3, ror r2
    10e4:	322d786c 	eorcc	r7, sp, #108, 16	; 0x6c0000
    10e8:	72707332 	rsbsvc	r7, r0, #-939524096	; 0xc8000000
    10ec:	696c2f2f 	stmdbvs	ip!, {r0, r1, r2, r3, r5, r8, r9, sl, fp, sp}^
    10f0:	2f697062 	svccs	0x00697062
    10f4:	6c636e69 	stclvs	14, cr6, [r3], #-420	; 0xfffffe5c
    10f8:	00656475 	rsbeq	r6, r5, r5, ror r4
    10fc:	73756300 	cmnvc	r5, #0, 6
    1100:	2d6d6f74 	stclcs	15, cr6, [sp, #-464]!	; 0xfffffe30
    1104:	64616f6c 	strbtvs	r6, [r1], #-3948	; 0xfffff094
    1108:	632e7265 			; <UNDEFINED> instruction: 0x632e7265
    110c:	00000100 	andeq	r0, r0, r0, lsl #2
    1110:	2e697072 	mcrcs	0, 3, r7, cr9, cr2, {3}
    1114:	00020068 	andeq	r0, r2, r8, rrx
    1118:	1a050000 	bne	141120 <__bss_end__+0x137800>
    111c:	d8020500 	stmdale	r2, {r8, sl}
    1120:	1500008d 	strne	r0, [r0, #-141]	; 0xffffff73
    1124:	02140105 	andseq	r0, r4, #1073741825	; 0x40000001
    1128:	01010002 	tsteq	r1, r2
    112c:	000000e5 	andeq	r0, r0, r5, ror #1
    1130:	00760003 	rsbseq	r0, r6, r3
    1134:	01020000 	mrseq	r0, (UNDEF: 2)
    1138:	000d0efb 	strdeq	r0, [sp], -fp
    113c:	01010101 	tsteq	r1, r1, lsl #2
    1140:	01000000 	mrseq	r0, (UNDEF: 0)
    1144:	2e010000 	cdpcs	0, 0, cr0, cr1, cr0, {0}
    1148:	6174732f 	cmnvs	r4, pc, lsr #6
    114c:	732d6666 			; <UNDEFINED> instruction: 0x732d6666
    1150:	2f006372 	svccs	0x00006372
    1154:	72657355 	rsbvc	r7, r5, #1409286145	; 0x54000001
    1158:	616a2f73 	smcvs	41715	; 0xa2f3
    115c:	77646572 			; <UNDEFINED> instruction: 0x77646572
    1160:	73736965 	cmnvc	r3, #1654784	; 0x194000
    1164:	67726562 	ldrbvs	r6, [r2, -r2, ror #10]!
    1168:	756f432f 	strbvc	r4, [pc, #-815]!	; e41 <__code_start__-0x71bf>
    116c:	73657372 	cmnvc	r5, #-939524095	; 0xc8000001
    1170:	3173632f 	cmncc	r3, pc, lsr #6
    1174:	2f653034 	svccs	0x00653034
    1178:	34327363 	ldrtcc	r7, [r2], #-867	; 0xfffffc9d
    117c:	2d786c30 	ldclcs	12, cr6, [r8, #-192]!	; 0xffffff40
    1180:	70733232 	rsbsvc	r3, r3, r2, lsr r2
    1184:	6c2f2f72 	stcvs	15, cr2, [pc], #-456	; fc4 <__code_start__-0x703c>
    1188:	69706269 	ldmdbvs	r0!, {r0, r3, r5, r6, r9, sp, lr}^
    118c:	636e692f 	cmnvs	lr, #770048	; 0xbc000
    1190:	6564756c 	strbvs	r7, [r4, #-1388]!	; 0xfffffa94
    1194:	65720000 	ldrbvs	r0, [r2, #-0]!
    1198:	746f6f62 	strbtvc	r6, [pc], #-3938	; 11a0 <__code_start__-0x6e60>
    119c:	0100632e 	tsteq	r0, lr, lsr #6
    11a0:	70720000 	rsbsvc	r0, r2, r0
    11a4:	00682e69 	rsbeq	r2, r8, r9, ror #28
    11a8:	00000002 	andeq	r0, r0, r2
    11ac:	05001905 	streq	r1, [r0, #-2309]	; 0xfffff6fb
    11b0:	008ddc02 	addeq	sp, sp, r2, lsl #24
    11b4:	010d0300 	mrseq	r0, SP_mon
    11b8:	13130505 	tstne	r3, #20971520	; 0x1400000
    11bc:	06130531 			; <UNDEFINED> instruction: 0x06130531
    11c0:	2f010501 	svccs	0x00010501
    11c4:	85061b05 	strhi	r1, [r6, #-2821]	; 0xfffff4fb
    11c8:	14130505 	ldrne	r0, [r3], #-1285	; 0xfffffafb
    11cc:	052f0905 	streq	r0, [pc, #-2309]!	; 8cf <__code_start__-0x7731>
    11d0:	05010616 	streq	r0, [r1, #-1558]	; 0xfffff9ea
    11d4:	05052e0e 	streq	r2, [r5, #-3598]	; 0xfffff1f2
    11d8:	01052f06 	tsteq	r5, r6, lsl #30
    11dc:	17052f06 	strne	r2, [r5, -r6, lsl #30]
    11e0:	05053006 	streq	r3, [r5, #-6]
    11e4:	0608052f 	streq	r0, [r8], -pc, lsr #10
    11e8:	2e070501 	cfsh32cs	mvfx0, mvfx7, #1
    11ec:	50060505 	andpl	r0, r6, r5, lsl #10
    11f0:	134d2f30 	movtne	r2, #57136	; 0xdf30
    11f4:	67151313 			; <UNDEFINED> instruction: 0x67151313
    11f8:	01040200 	mrseq	r0, R12_usr
    11fc:	000d0567 	andeq	r0, sp, r7, ror #10
    1200:	01010402 	tsteq	r1, r2, lsl #8
    1204:	02000a05 	andeq	r0, r0, #20480	; 0x5000
    1208:	05010104 	streq	r0, [r1, #-260]	; 0xfffffefc
    120c:	2e6d0309 	cdpcs	3, 6, cr0, cr13, cr9, {0}
    1210:	01000c02 	tsteq	r0, r2, lsl #24
    1214:	0000ec01 	andeq	lr, r0, r1, lsl #24
    1218:	75000300 	strvc	r0, [r0, #-768]	; 0xfffffd00
    121c:	02000000 	andeq	r0, r0, #0, 0
    1220:	0d0efb01 	vstreq	d15, [lr, #-4]
    1224:	01010100 	mrseq	r0, (UNDEF: 17)
    1228:	00000001 	andeq	r0, r0, r1
    122c:	01000001 	tsteq	r0, r1
    1230:	74732f2e 	ldrbtvc	r2, [r3], #-3886	; 0xfffff0d2
    1234:	2d666661 	stclcs	6, cr6, [r6, #-388]!	; 0xfffffe7c
    1238:	00637273 	rsbeq	r7, r3, r3, ror r2
    123c:	6573552f 	ldrbvs	r5, [r3, #-1327]!	; 0xfffffad1
    1240:	6a2f7372 	bvs	bde010 <__bss_end__+0xbd46f0>
    1244:	64657261 	strbtvs	r7, [r5], #-609	; 0xfffffd9f
    1248:	73696577 	cmnvc	r9, #499122176	; 0x1dc00000
    124c:	72656273 	rsbvc	r6, r5, #805306375	; 0x30000007
    1250:	6f432f67 	svcvs	0x00432f67
    1254:	65737275 	ldrbvs	r7, [r3, #-629]!	; 0xfffffd8b
    1258:	73632f73 	cmnvc	r3, #460	; 0x1cc
    125c:	65303431 	ldrvs	r3, [r0, #-1073]!	; 0xfffffbcf
    1260:	3273632f 	rsbscc	r6, r3, #-1140850688	; 0xbc000000
    1264:	786c3034 	stmdavc	ip!, {r2, r4, r5, ip, sp}^
    1268:	7332322d 	teqvc	r2, #-805306366	; 0xd0000002
    126c:	2f2f7270 	svccs	0x002f7270
    1270:	7062696c 	rsbvc	r6, r2, ip, ror #18
    1274:	6e692f69 	cdpvs	15, 6, cr2, cr9, cr9, {3}
    1278:	64756c63 	ldrbtvs	r6, [r5], #-3171	; 0xfffff39d
    127c:	74000065 	strvc	r0, [r0], #-101	; 0xffffff9b
    1280:	72656d69 	rsbvc	r6, r5, #6720	; 0x1a40
    1284:	0100632e 	tsteq	r0, lr, lsr #6
    1288:	70720000 	rsbsvc	r0, r2, r0
    128c:	00682e69 	rsbeq	r2, r8, r9, ror #28
    1290:	00000002 	andeq	r0, r0, r2
    1294:	05002305 	streq	r2, [r0, #-773]	; 0xfffffcfb
    1298:	008e5c02 	addeq	r5, lr, r2, lsl #24
    129c:	05051500 	streq	r1, [r5, #-1280]	; 0xfffffb00
    12a0:	060c052f 	streq	r0, [ip], -pc, lsr #10
    12a4:	4b010501 	blmi	426b0 <__bss_end__+0x38d90>
    12a8:	4d061f05 	stcmi	15, cr1, [r6, #-20]	; 0xffffffec
    12ac:	2f310505 	svccs	0x00310505
    12b0:	01061205 	tsteq	r6, r5, lsl #4
    12b4:	4b060505 	blmi	1826d0 <__bss_end__+0x178db0>
    12b8:	0601052f 	streq	r0, [r1], -pc, lsr #10
    12bc:	061c0513 			; <UNDEFINED> instruction: 0x061c0513
    12c0:	0501064c 	streq	r0, [r1, #-1612]	; 0xfffff9b4
    12c4:	054b0605 	strbeq	r0, [fp, #-1541]	; 0xfffff9fb
    12c8:	2e010613 	mcrcs	6, 0, r0, cr1, cr3, {0}
    12cc:	2f060505 	svccs	0x00060505
    12d0:	05130905 	ldreq	r0, [r3, #-2309]	; 0xfffff6fb
    12d4:	05010617 	streq	r0, [r1, #-1559]	; 0xfffff9e9
    12d8:	052f0609 	streq	r0, [pc, #-1545]!	; cd7 <__code_start__-0x7329>
    12dc:	05010611 	streq	r0, [r1, #-1553]	; 0xfffff9ef
    12e0:	1c052e0c 	stcne	14, cr2, [r5], {12}
    12e4:	01066b06 	tsteq	r6, r6, lsl #22
    12e8:	2f060505 	svccs	0x00060505
    12ec:	01054a06 	tsteq	r5, r6, lsl #20
    12f0:	061e054b 	ldreq	r0, [lr], -fp, asr #10
    12f4:	0501062f 	streq	r0, [r1, #-1583]	; 0xfffff9d1
    12f8:	062f0605 	strteq	r0, [pc], -r5, lsl #12
    12fc:	4b01054a 	blmi	4282c <__bss_end__+0x38f0c>
    1300:	01000202 	tsteq	r0, r2, lsl #4
    1304:	00020501 	andeq	r0, r2, r1, lsl #10
    1308:	c9000300 	stmdbgt	r0, {r8, r9}
    130c:	02000000 	andeq	r0, r0, #0, 0
    1310:	0d0efb01 	vstreq	d15, [lr, #-4]
    1314:	01010100 	mrseq	r0, (UNDEF: 17)
    1318:	00000001 	andeq	r0, r0, r1
    131c:	01000001 	tsteq	r0, r1
    1320:	6d6f682f 	stclvs	8, cr6, [pc, #-188]!	; 126c <__code_start__-0x6d94>
    1324:	6e652f65 	cdpvs	15, 6, cr2, cr5, cr5, {3}
    1328:	72656c67 	rsbvc	r6, r5, #26368	; 0x6700
    132c:	616c632f 	cmnvs	ip, pc, lsr #6
    1330:	632f7373 			; <UNDEFINED> instruction: 0x632f7373
    1334:	30343273 	eorscc	r3, r4, r3, ror r2
    1338:	322d786c 	eorcc	r7, sp, #108, 16	; 0x6c0000
    133c:	72707332 	rsbsvc	r7, r0, #-939524096	; 0xc8000000
    1340:	696c2f2f 	stmdbvs	ip!, {r0, r1, r2, r3, r5, r8, r9, sl, fp, sp}^
    1344:	2f697062 	svccs	0x00697062
    1348:	6c636e69 	stclvs	14, cr6, [r3], #-420	; 0xfffffe5c
    134c:	00656475 	rsbeq	r6, r5, r5, ror r4
    1350:	7273752f 	rsbsvc	r7, r3, #197132288	; 0xbc00000
    1354:	6168732f 	cmnvs	r8, pc, lsr #6
    1358:	672f6572 			; <UNDEFINED> instruction: 0x672f6572
    135c:	612d6363 			; <UNDEFINED> instruction: 0x612d6363
    1360:	6e2d6d72 	mcrvs	13, 1, r6, cr13, cr2, {3}
    1364:	2d656e6f 	stclcs	14, cr6, [r5, #-444]!	; 0xfffffe44
    1368:	69626165 	stmdbvs	r2!, {r0, r2, r5, r6, r8, sp, lr}^
    136c:	2e30312d 	rsfcssp	f3, f0, #5.0
    1370:	30322d33 	eorscc	r2, r2, r3, lsr sp
    1374:	312e3132 			; <UNDEFINED> instruction: 0x312e3132
    1378:	696c2f30 	stmdbvs	ip!, {r4, r5, r8, r9, sl, fp, sp}^
    137c:	63672f62 	cmnvs	r7, #392	; 0x188
    1380:	72612f63 	rsbvc	r2, r1, #396	; 0x18c
    1384:	6f6e2d6d 	svcvs	0x006e2d6d
    1388:	652d656e 	strvs	r6, [sp, #-1390]!	; 0xfffffa92
    138c:	2f696261 	svccs	0x00696261
    1390:	332e3031 			; <UNDEFINED> instruction: 0x332e3031
    1394:	692f312e 	stmdbvs	pc!, {r1, r2, r3, r5, r8, ip, sp}	; <UNPREDICTABLE>
    1398:	756c636e 	strbvc	r6, [ip, #-878]!	; 0xfffffc92
    139c:	00006564 	andeq	r6, r0, r4, ror #10
    13a0:	74726175 	ldrbtvc	r6, [r2], #-373	; 0xfffffe8b
    13a4:	0000632e 	andeq	r6, r0, lr, lsr #6
    13a8:	61750000 	cmnvs	r5, r0
    13ac:	682e7472 	stmdavs	lr!, {r1, r4, r5, r6, sl, ip, sp, lr}
    13b0:	00000100 	andeq	r0, r0, r0, lsl #2
    13b4:	2e697072 	mcrcs	0, 3, r7, cr9, cr2, {3}
    13b8:	00010068 	andeq	r0, r1, r8, rrx
    13bc:	69706700 	ldmdbvs	r0!, {r8, r9, sl, sp, lr}^
    13c0:	00682e6f 	rsbeq	r2, r8, pc, ror #28
    13c4:	73000001 	movwvc	r0, #1
    13c8:	6e696474 	mcrvs	4, 3, r6, cr9, cr4, {3}
    13cc:	63672d74 	cmnvs	r7, #116, 26	; 0x1d00
    13d0:	00682e63 	rsbeq	r2, r8, r3, ror #28
    13d4:	00000002 	andeq	r0, r0, r2
    13d8:	05003905 	streq	r3, [r0, #-2309]	; 0xfffff6fb
    13dc:	008ee002 	addeq	lr, lr, r2
    13e0:	01300300 	teqeq	r0, r0, lsl #6
    13e4:	05050106 	streq	r0, [r5, #-262]	; 0xfffffefa
    13e8:	11056706 	tstne	r5, r6, lsl #14
    13ec:	05050106 	streq	r0, [r5, #-262]	; 0xfffffefa
    13f0:	6701052e 	strvs	r0, [r1, -lr, lsr #10]
    13f4:	29063805 	stmdbcs	r6, {r0, r2, fp, ip, sp}
    13f8:	05050106 	streq	r0, [r5, #-262]	; 0xfffffefa
    13fc:	11056706 	tstne	r5, r6, lsl #14
    1400:	05050106 	streq	r0, [r5, #-262]	; 0xfffffefa
    1404:	6701052e 	strvs	r0, [r1, -lr, lsr #10]
    1408:	03061605 	movweq	r1, #26117	; 0x6605
    140c:	05052e15 	streq	r2, [r5, #-3605]	; 0xfffff1eb
    1410:	35686735 	strbcc	r6, [r8, #-1845]!	; 0xfffff8cb
    1414:	2e0c0368 	cdpcs	3, 0, cr0, cr12, cr8, {3}
    1418:	69696b85 	stmdbvs	r9!, {r0, r2, r7, r8, r9, fp, sp, lr}^
    141c:	13660c03 	cmnne	r6, #768	; 0x300
    1420:	0105676b 	tsteq	r5, fp, ror #14
    1424:	19052f06 	stmdbne	r5, {r1, r2, r8, r9, sl, fp, sp}
    1428:	05250806 	streq	r0, [r5, #-2054]!	; 0xfffff7fa
    142c:	0d053405 	cfstrseq	mvf3, [r5, #-20]	; 0xffffffec
    1430:	01050106 	tsteq	r5, r6, lsl #2
    1434:	0619054c 	ldreq	r0, [r9], -ip, asr #10
    1438:	36050567 	strcc	r0, [r5], -r7, ror #10
    143c:	01060d05 	tsteq	r6, r5, lsl #26
    1440:	054a2805 	strbeq	r2, [sl, #-2053]	; 0xfffff7fb
    1444:	15053001 	strne	r3, [r5, #-1]
    1448:	05058706 	streq	r8, [r5, #-1798]	; 0xfffff8fa
    144c:	09052f2f 	stmdbeq	r5, {r0, r1, r2, r3, r5, r8, r9, sl, fp, sp}
    1450:	01040200 	mrseq	r0, R12_usr
    1454:	000a0513 	andeq	r0, sl, r3, lsl r5
    1458:	11010402 	tstne	r1, r2, lsl #8
    145c:	02000c05 	andeq	r0, r0, #1280	; 0x500
    1460:	01060104 	tsteq	r6, r4, lsl #2
    1464:	02000a05 	andeq	r0, r0, #20480	; 0x5000
    1468:	052e0104 	streq	r0, [lr, #-260]!	; 0xfffffefc
    146c:	054c0605 	strbeq	r0, [ip, #-1541]	; 0xfffff9fb
    1470:	0501060e 	streq	r0, [r1, #-1550]	; 0xfffff9f2
    1474:	05054a09 	streq	r4, [r5, #-2569]	; 0xfffff5f7
    1478:	052f2f06 	streq	r2, [pc, #-3846]!	; 57a <__code_start__-0x7a86>
    147c:	05130601 	ldreq	r0, [r3, #-1537]	; 0xfffff9ff
    1480:	0667061c 			; <UNDEFINED> instruction: 0x0667061c
    1484:	06050501 	streq	r0, [r5], -r1, lsl #10
    1488:	09052f4b 	stmdbeq	r5, {r0, r1, r3, r6, r8, r9, sl, fp, sp}
    148c:	01040200 	mrseq	r0, R12_usr
    1490:	000a0513 	andeq	r0, sl, r3, lsl r5
    1494:	11010402 	tstne	r1, r2, lsl #8
    1498:	02000c05 	andeq	r0, r0, #1280	; 0x500
    149c:	01060104 	tsteq	r6, r4, lsl #2
    14a0:	02000a05 	andeq	r0, r0, #20480	; 0x5000
    14a4:	052e0104 	streq	r0, [lr, #-260]!	; 0xfffffefc
    14a8:	674c0605 	strbvs	r0, [ip, -r5, lsl #12]
    14ac:	2f060105 	svccs	0x00060105
    14b0:	4c061905 			; <UNDEFINED> instruction: 0x4c061905
    14b4:	052e1b05 	streq	r1, [lr, #-2821]!	; 0xfffff4fb
    14b8:	31052e2a 	tstcc	r5, sl, lsr #28
    14bc:	42050106 	andmi	r0, r5, #-2147483647	; 0x80000001
    14c0:	061c052e 	ldreq	r0, [ip], -lr, lsr #10
    14c4:	2f050531 	svccs	0x00050531
    14c8:	052e0903 	streq	r0, [lr, #-2307]!	; 0xfffff6fd
    14cc:	0501060e 	streq	r0, [r1, #-1550]	; 0xfffff9f2
    14d0:	01054a21 	tsteq	r5, r1, lsr #20
    14d4:	052e0a03 	streq	r0, [lr, #-2563]!	; 0xfffff5fd
    14d8:	0568061a 	strbeq	r0, [r8, #-1562]!	; 0xfffff9e6
    14dc:	04020009 	streq	r0, [r2], #-9
    14e0:	0a053001 	beq	14d4ec <__bss_end__+0x143bcc>
    14e4:	01040200 	mrseq	r0, R12_usr
    14e8:	000c0511 	andeq	r0, ip, r1, lsl r5
    14ec:	06010402 	streq	r0, [r1], -r2, lsl #8
    14f0:	000a0501 	andeq	r0, sl, r1, lsl #10
    14f4:	2e010402 	cdpcs	4, 0, cr0, cr1, cr2, {0}
    14f8:	03061905 	movweq	r1, #26885	; 0x6905
    14fc:	05667ee8 	strbeq	r7, [r6, #-3816]!	; 0xfffff118
    1500:	2f2f2f05 	svccs	0x002f2f05
    1504:	06010567 	streq	r0, [r1], -r7, ror #10
    1508:	0004022f 	andeq	r0, r4, pc, lsr #4
    150c:	00fc0101 	rscseq	r0, ip, r1, lsl #2
    1510:	00030000 	andeq	r0, r3, r0
    1514:	00000071 	andeq	r0, r0, r1, ror r0
    1518:	0efb0102 	cdpeq	1, 15, cr0, cr11, cr2, {0}
    151c:	0101000d 	tsteq	r1, sp
    1520:	00000101 	andeq	r0, r0, r1, lsl #2
    1524:	00000100 	andeq	r0, r0, r0, lsl #2
    1528:	6c2f2e01 	stcvs	14, cr2, [pc], #-4	; 152c <__code_start__-0x6ad4>
    152c:	00636269 	rsbeq	r6, r3, r9, ror #4
    1530:	6573552f 	ldrbvs	r5, [r3, #-1327]!	; 0xfffffad1
    1534:	6a2f7372 	bvs	bde304 <__bss_end__+0xbd49e4>
    1538:	64657261 	strbtvs	r7, [r5], #-609	; 0xfffffd9f
    153c:	73696577 	cmnvc	r9, #499122176	; 0x1dc00000
    1540:	72656273 	rsbvc	r6, r5, #805306375	; 0x30000007
    1544:	6f432f67 	svcvs	0x00432f67
    1548:	65737275 	ldrbvs	r7, [r3, #-629]!	; 0xfffffd8b
    154c:	73632f73 	cmnvc	r3, #460	; 0x1cc
    1550:	65303431 	ldrvs	r3, [r0, #-1073]!	; 0xfffffbcf
    1554:	3273632f 	rsbscc	r6, r3, #-1140850688	; 0xbc000000
    1558:	786c3034 	stmdavc	ip!, {r2, r4, r5, ip, sp}^
    155c:	7332322d 	teqvc	r2, #-805306366	; 0xd0000002
    1560:	2f2f7270 	svccs	0x002f7270
    1564:	7062696c 	rsbvc	r6, r2, ip, ror #18
    1568:	6e692f69 	cdpvs	15, 6, cr2, cr9, cr9, {3}
    156c:	64756c63 	ldrbtvs	r6, [r5], #-3171	; 0xfffff39d
    1570:	73000065 	movwvc	r0, #101	; 0x65
    1574:	61637274 	smcvs	14116	; 0x3724
    1578:	00632e74 	rsbeq	r2, r3, r4, ror lr
    157c:	72000001 	andvc	r0, r0, #1, 0
    1580:	682e6970 	stmdavs	lr!, {r4, r5, r6, r8, fp, sp, lr}
    1584:	00000200 	andeq	r0, r0, r0, lsl #4
    1588:	002c0500 	eoreq	r0, ip, r0, lsl #10
    158c:	90d00205 	sbcsls	r0, r0, r5, lsl #4
    1590:	05150000 	ldreq	r0, [r5, #-0]
    1594:	05131305 	ldreq	r1, [r3, #-773]	; 0xfffffcfb
    1598:	0511060b 	ldreq	r0, [r1, #-1547]	; 0xfffff9f5
    159c:	04020005 	streq	r0, [r2], #-5
    15a0:	00300601 	eorseq	r0, r0, r1, lsl #12
    15a4:	15010402 	strne	r0, [r1, #-1026]	; 0xfffffbfe
    15a8:	02000905 	andeq	r0, r0, #81920	; 0x14000
    15ac:	05130104 	ldreq	r0, [r3, #-260]	; 0xfffffefc
    15b0:	04020010 	streq	r0, [r2], #-16
    15b4:	052e0601 	streq	r0, [lr, #-1537]!	; 0xfffff9ff
    15b8:	0402000b 	streq	r0, [r2], #-11
    15bc:	02002e01 	andeq	r2, r0, #1, 28
    15c0:	2f060104 	svccs	0x00060104
    15c4:	02000505 	andeq	r0, r0, #20971520	; 0x1400000
    15c8:	01060104 	tsteq	r6, r4, lsl #2
    15cc:	08054e06 	stmdaeq	r5, {r1, r2, r9, sl, fp, lr}
    15d0:	05050106 	streq	r0, [r5, #-262]	; 0xfffffefa
    15d4:	01040200 	mrseq	r0, R12_usr
    15d8:	09052f06 	stmdbeq	r5, {r1, r2, r8, r9, sl, fp, sp}
    15dc:	01040200 	mrseq	r0, R12_usr
    15e0:	000b0513 	andeq	r0, fp, r3, lsl r5
    15e4:	06010402 	streq	r0, [r1], -r2, lsl #8
    15e8:	00090501 	andeq	r0, r9, r1, lsl #10
    15ec:	06010402 	streq	r0, [r1], -r2, lsl #8
    15f0:	000f054b 	andeq	r0, pc, fp, asr #10
    15f4:	06010402 	streq	r0, [r1], -r2, lsl #8
    15f8:	000d0501 	andeq	r0, sp, r1, lsl #10
    15fc:	06010402 	streq	r0, [r1], -r2, lsl #8
    1600:	0005052f 	andeq	r0, r5, pc, lsr #10
    1604:	06010402 	streq	r0, [r1], -r2, lsl #8
    1608:	00060201 	andeq	r0, r6, r1, lsl #4
    160c:	00b50101 	adcseq	r0, r5, r1, lsl #2
    1610:	00030000 	andeq	r0, r3, r0
    1614:	00000071 	andeq	r0, r0, r1, ror r0
    1618:	0efb0102 	cdpeq	1, 15, cr0, cr11, cr2, {0}
    161c:	0101000d 	tsteq	r1, sp
    1620:	00000101 	andeq	r0, r0, r1, lsl #2
    1624:	00000100 	andeq	r0, r0, r0, lsl #2
    1628:	6c2f2e01 	stcvs	14, cr2, [pc], #-4	; 162c <__code_start__-0x69d4>
    162c:	00636269 	rsbeq	r6, r3, r9, ror #4
    1630:	6573552f 	ldrbvs	r5, [r3, #-1327]!	; 0xfffffad1
    1634:	6a2f7372 	bvs	bde404 <__bss_end__+0xbd4ae4>
    1638:	64657261 	strbtvs	r7, [r5], #-609	; 0xfffffd9f
    163c:	73696577 	cmnvc	r9, #499122176	; 0x1dc00000
    1640:	72656273 	rsbvc	r6, r5, #805306375	; 0x30000007
    1644:	6f432f67 	svcvs	0x00432f67
    1648:	65737275 	ldrbvs	r7, [r3, #-629]!	; 0xfffffd8b
    164c:	73632f73 	cmnvc	r3, #460	; 0x1cc
    1650:	65303431 	ldrvs	r3, [r0, #-1073]!	; 0xfffffbcf
    1654:	3273632f 	rsbscc	r6, r3, #-1140850688	; 0xbc000000
    1658:	786c3034 	stmdavc	ip!, {r2, r4, r5, ip, sp}^
    165c:	7332322d 	teqvc	r2, #-805306366	; 0xd0000002
    1660:	2f2f7270 	svccs	0x002f7270
    1664:	7062696c 	rsbvc	r6, r2, ip, ror #18
    1668:	6e692f69 	cdpvs	15, 6, cr2, cr9, cr9, {3}
    166c:	64756c63 	ldrbtvs	r6, [r5], #-3171	; 0xfffff39d
    1670:	73000065 	movwvc	r0, #101	; 0x65
    1674:	6d637274 	sfmvs	f7, 2, [r3, #-464]!	; 0xfffffe30
    1678:	00632e70 	rsbeq	r2, r3, r0, ror lr
    167c:	72000001 	andvc	r0, r0, #1, 0
    1680:	682e6970 	stmdavs	lr!, {r4, r5, r6, r8, fp, sp, lr}
    1684:	00000200 	andeq	r0, r0, r0, lsl #4
    1688:	002a0500 	eoreq	r0, sl, r0, lsl #10
    168c:	91040205 	tstls	r4, r5, lsl #4
    1690:	05140000 	ldreq	r0, [r4, #-0]
    1694:	0f051309 	svceq	0x00051309
    1698:	06100501 	ldreq	r0, [r0], -r1, lsl #10
    169c:	2e0f0501 	cfsh32cs	mvfx0, mvfx15, #1
    16a0:	02001c05 	andeq	r1, r0, #1280	; 0x500
    16a4:	054a0104 	strbeq	r0, [sl, #-260]	; 0xfffffefc
    16a8:	04020013 	streq	r0, [r2], #-19	; 0xffffffed
    16ac:	11052e01 	tstne	r5, r1, lsl #28
    16b0:	16052f06 	strne	r2, [r5], -r6, lsl #30
    16b4:	052e2e06 	streq	r2, [lr, #-3590]!	; 0xfffff1fa
    16b8:	052f0609 	streq	r0, [pc, #-1545]!	; 10b7 <__code_start__-0x6f49>
    16bc:	05010615 	streq	r0, [r1, #-1557]	; 0xfffff9eb
    16c0:	04022f01 	streq	r2, [r2], #-3841	; 0xfffff0ff
    16c4:	b3010100 	movwlt	r0, #4352	; 0x1100
    16c8:	03000000 	movweq	r0, #0
    16cc:	00007100 	andeq	r7, r0, r0, lsl #2
    16d0:	fb010200 	blx	41eda <__bss_end__+0x385ba>
    16d4:	01000d0e 	tsteq	r0, lr, lsl #26
    16d8:	00010101 	andeq	r0, r1, r1, lsl #2
    16dc:	00010000 	andeq	r0, r1, r0
    16e0:	2f2e0100 	svccs	0x002e0100
    16e4:	6362696c 	cmnvs	r2, #108, 18	; 0x1b0000
    16e8:	73552f00 	cmpvc	r5, #0, 30
    16ec:	2f737265 	svccs	0x00737265
    16f0:	6572616a 	ldrbvs	r6, [r2, #-362]!	; 0xfffffe96
    16f4:	69657764 	stmdbvs	r5!, {r2, r5, r6, r8, r9, sl, ip, sp, lr}^
    16f8:	65627373 	strbvs	r7, [r2, #-883]!	; 0xfffffc8d
    16fc:	432f6772 			; <UNDEFINED> instruction: 0x432f6772
    1700:	7372756f 	cmnvc	r2, #465567744	; 0x1bc00000
    1704:	632f7365 			; <UNDEFINED> instruction: 0x632f7365
    1708:	30343173 	eorscc	r3, r4, r3, ror r1
    170c:	73632f65 	cmnvc	r3, #404	; 0x194
    1710:	6c303432 	cfldrsvs	mvf3, [r0], #-200	; 0xffffff38
    1714:	32322d78 	eorscc	r2, r2, #120, 26	; 0x1e00
    1718:	2f727073 	svccs	0x00727073
    171c:	62696c2f 	rsbvs	r6, r9, #12032	; 0x2f00
    1720:	692f6970 	stmdbvs	pc!, {r4, r5, r6, r8, fp, sp, lr}	; <UNPREDICTABLE>
    1724:	756c636e 	strbvc	r6, [ip, #-878]!	; 0xfffffc92
    1728:	00006564 	andeq	r6, r0, r4, ror #10
    172c:	63727473 	cmnvs	r2, #1929379840	; 0x73000000
    1730:	632e7970 			; <UNDEFINED> instruction: 0x632e7970
    1734:	00000100 	andeq	r0, r0, r0, lsl #2
    1738:	2e697072 	mcrcs	0, 3, r7, cr9, cr2, {3}
    173c:	00020068 	andeq	r0, r2, r8, rrx
    1740:	2a050000 	bcs	141748 <__bss_end__+0x137e28>
    1744:	30020500 	andcc	r0, r2, r0, lsl #10
    1748:	14000091 	strne	r0, [r0], #-145	; 0xffffff6f
    174c:	13130505 	tstne	r3, #20971520	; 0x1400000
    1750:	11061405 	tstne	r6, r5, lsl #8
    1754:	02002205 	andeq	r2, r0, #1342177280	; 0x50000000
    1758:	2f060104 	svccs	0x00060104
    175c:	02000b05 	andeq	r0, r0, #5120	; 0x1400
    1760:	05010104 	streq	r0, [r1, #-260]	; 0xfffffefc
    1764:	04020015 	streq	r0, [r2], #-21	; 0xffffffeb
    1768:	05010601 	streq	r0, [r1, #-1537]	; 0xfffff9ff
    176c:	04020013 	streq	r0, [r2], #-19	; 0xffffffed
    1770:	0b054a01 	bleq	153f7c <__bss_end__+0x14a65c>
    1774:	01040200 	mrseq	r0, R12_usr
    1778:	0006024a 	andeq	r0, r6, sl, asr #4
    177c:	01160101 	tsteq	r6, r1, lsl #2
    1780:	00030000 	andeq	r0, r3, r0
    1784:	000000da 	ldrdeq	r0, [r0], -sl
    1788:	0efb0102 	cdpeq	1, 15, cr0, cr11, cr2, {0}
    178c:	0101000d 	tsteq	r1, sp
    1790:	00000101 	andeq	r0, r0, r1, lsl #2
    1794:	00000100 	andeq	r0, r0, r0, lsl #2
    1798:	6c2f2e01 	stcvs	14, cr2, [pc], #-4	; 179c <__code_start__-0x6864>
    179c:	00636269 	rsbeq	r6, r3, r9, ror #4
    17a0:	6573552f 	ldrbvs	r5, [r3, #-1327]!	; 0xfffffad1
    17a4:	6a2f7372 	bvs	bde574 <__bss_end__+0xbd4c54>
    17a8:	64657261 	strbtvs	r7, [r5], #-609	; 0xfffffd9f
    17ac:	73696577 	cmnvc	r9, #499122176	; 0x1dc00000
    17b0:	72656273 	rsbvc	r6, r5, #805306375	; 0x30000007
    17b4:	6f432f67 	svcvs	0x00432f67
    17b8:	65737275 	ldrbvs	r7, [r3, #-629]!	; 0xfffffd8b
    17bc:	73632f73 	cmnvc	r3, #460	; 0x1cc
    17c0:	65303431 	ldrvs	r3, [r0, #-1073]!	; 0xfffffbcf
    17c4:	3273632f 	rsbscc	r6, r3, #-1140850688	; 0xbc000000
    17c8:	786c3034 	stmdavc	ip!, {r2, r4, r5, ip, sp}^
    17cc:	7332322d 	teqvc	r2, #-805306366	; 0xd0000002
    17d0:	2f2f7270 	svccs	0x002f7270
    17d4:	7062696c 	rsbvc	r6, r2, ip, ror #18
    17d8:	6e692f69 	cdpvs	15, 6, cr2, cr9, cr9, {3}
    17dc:	64756c63 	ldrbtvs	r6, [r5], #-3171	; 0xfffff39d
    17e0:	6f2f0065 	svcvs	0x002f0065
    17e4:	682f7470 	stmdavs	pc!, {r4, r5, r6, sl, ip, sp, lr}	; <UNPREDICTABLE>
    17e8:	62656d6f 	rsbvs	r6, r5, #7104	; 0x1bc0
    17ec:	2f776572 	svccs	0x00776572
    17f0:	6c6c6543 	cfstr64vs	mvdx6, [ip], #-268	; 0xfffffef4
    17f4:	612f7261 			; <UNDEFINED> instruction: 0x612f7261
    17f8:	6e2d6d72 	mcrvs	13, 1, r6, cr13, cr2, {3}
    17fc:	2d656e6f 	stclcs	14, cr6, [r5, #-444]!	; 0xfffffe44
    1800:	69626165 	stmdbvs	r2!, {r0, r2, r5, r6, r8, sp, lr}^
    1804:	7365742d 	cmnvc	r5, #754974720	; 0x2d000000
    1808:	2d392f74 	ldccs	15, cr2, [r9, #-464]!	; 0xfffffe30
    180c:	39313032 	ldmdbcc	r1!, {r1, r4, r5, ip, sp}
    1810:	632d3471 			; <UNDEFINED> instruction: 0x632d3471
    1814:	37303173 			; <UNDEFINED> instruction: 0x37303173
    1818:	696c2f65 	stmdbvs	ip!, {r0, r2, r5, r6, r8, r9, sl, fp, sp}^
    181c:	63672f62 	cmnvs	r7, #392	; 0x188
    1820:	72612f63 	rsbvc	r2, r1, #396	; 0x18c
    1824:	6f6e2d6d 	svcvs	0x006e2d6d
    1828:	652d656e 	strvs	r6, [sp, #-1390]!	; 0xfffffa92
    182c:	2f696261 	svccs	0x00696261
    1830:	2e322e39 	mrccs	14, 1, r2, cr2, cr9, {1}
    1834:	6e692f31 	mcrvs	15, 3, r2, cr9, cr1, {1}
    1838:	64756c63 	ldrbtvs	r6, [r5], #-3171	; 0xfffff39d
    183c:	73000065 	movwvc	r0, #101	; 0x65
    1840:	636e7274 	cmnvs	lr, #116, 4	; 0x40000007
    1844:	632e706d 			; <UNDEFINED> instruction: 0x632e706d
    1848:	00000100 	andeq	r0, r0, r0, lsl #2
    184c:	2e697072 	mcrcs	0, 3, r7, cr9, cr2, {3}
    1850:	00020068 	andeq	r0, r2, r8, rrx
    1854:	64747300 	ldrbtvs	r7, [r4], #-768	; 0xfffffd00
    1858:	2e666564 	cdpcs	5, 6, cr6, cr6, cr4, {3}
    185c:	00030068 	andeq	r0, r3, r8, rrx
    1860:	39050000 	stmdbcc	r5, {}	; <UNPREDICTABLE>
    1864:	50020500 	andpl	r0, r2, r0, lsl #10
    1868:	15000091 	strne	r0, [r0, #-145]	; 0xffffff6f
    186c:	13130505 	tstne	r3, #20971520	; 0x1400000
    1870:	06010a05 	streq	r0, [r1], -r5, lsl #20
    1874:	09054a01 	stmdbeq	r5, {r0, r9, fp, lr}
    1878:	0c052f06 	stceq	15, cr2, [r5], {6}
    187c:	13050106 	movwne	r0, #20742	; 0x5106
    1880:	2e0b052e 	cfsh32cs	mvfx0, mvfx11, #30
    1884:	4b060d05 	blmi	184ca0 <__bss_end__+0x17b380>
    1888:	01061b05 	tsteq	r6, r5, lsl #22
    188c:	300c052e 	andcc	r0, ip, lr, lsr #10
    1890:	022f0105 	eoreq	r0, pc, #1073741825	; 0x40000001
    1894:	01010002 	tsteq	r1, r2
    1898:	000000a2 	andeq	r0, r0, r2, lsr #1
    189c:	00860003 	addeq	r0, r6, r3
    18a0:	01020000 	mrseq	r0, (UNDEF: 2)
    18a4:	000d0efb 	strdeq	r0, [sp], -fp
    18a8:	01010101 	tsteq	r1, r1, lsl #2
    18ac:	01000000 	mrseq	r0, (UNDEF: 0)
    18b0:	2e010000 	cdpcs	0, 0, cr0, cr1, cr0, {0}
    18b4:	6174732f 	cmnvs	r4, pc, lsr #6
    18b8:	732d6666 			; <UNDEFINED> instruction: 0x732d6666
    18bc:	2f006372 	svccs	0x00006372
    18c0:	72657355 	rsbvc	r7, r5, #1409286145	; 0x54000001
    18c4:	616a2f73 	smcvs	41715	; 0xa2f3
    18c8:	77646572 			; <UNDEFINED> instruction: 0x77646572
    18cc:	73736965 	cmnvc	r3, #1654784	; 0x194000
    18d0:	67726562 	ldrbvs	r6, [r2, -r2, ror #10]!
    18d4:	756f432f 	strbvc	r4, [pc, #-815]!	; 15ad <__code_start__-0x6a53>
    18d8:	73657372 	cmnvc	r5, #-939524095	; 0xc8000001
    18dc:	3173632f 	cmncc	r3, pc, lsr #6
    18e0:	2f653034 	svccs	0x00653034
    18e4:	34327363 	ldrtcc	r7, [r2], #-867	; 0xfffffc9d
    18e8:	2d786c30 	ldclcs	12, cr6, [r8, #-192]!	; 0xffffff40
    18ec:	70733232 	rsbsvc	r3, r3, r2, lsr r2
    18f0:	6c2f2f72 	stcvs	15, cr2, [pc], #-456	; 1730 <__code_start__-0x68d0>
    18f4:	69706269 	ldmdbvs	r0!, {r0, r3, r5, r6, r9, sp, lr}^
    18f8:	636e692f 	cmnvs	lr, #770048	; 0xbc000
    18fc:	6564756c 	strbvs	r7, [r4, #-1388]!	; 0xfffffa94
    1900:	65640000 	strbvs	r0, [r4, #-0]!
    1904:	6c756166 	ldfvse	f6, [r5], #-408	; 0xfffffe68
    1908:	65722d74 	ldrbvs	r2, [r2, #-3444]!	; 0xfffff28c
    190c:	746f6f62 	strbtvc	r6, [pc], #-3938	; 1914 <__code_start__-0x66ec>
    1910:	6c61632d 	stclvs	3, cr6, [r1], #-180	; 0xffffff4c
    1914:	74756f6c 	ldrbtvc	r6, [r5], #-3948	; 0xfffff094
    1918:	0100632e 	tsteq	r0, lr, lsr #6
    191c:	70720000 	rsbsvc	r0, r2, r0
    1920:	00682e69 	rsbeq	r2, r8, r9, ror #28
    1924:	00000002 	andeq	r0, r0, r2
    1928:	05001b05 	streq	r1, [r0, #-2821]	; 0xfffff4fb
    192c:	00917c02 	addseq	r7, r1, r2, lsl #24
    1930:	1c051400 	cfstrsne	mvf1, [r5], {-0}
    1934:	06010501 	streq	r0, [r1], -r1, lsl #10
    1938:	00020201 	andeq	r0, r2, r1, lsl #4
    193c:	01bb0101 			; <UNDEFINED> instruction: 0x01bb0101
    1940:	00030000 	andeq	r0, r3, r0
    1944:	000000bf 	strheq	r0, [r0], -pc	; <UNPREDICTABLE>
    1948:	0efb0102 	cdpeq	1, 15, cr0, cr11, cr2, {0}
    194c:	0101000d 	tsteq	r1, sp
    1950:	00000101 	andeq	r0, r0, r1, lsl #2
    1954:	00000100 	andeq	r0, r0, r0, lsl #2
    1958:	6f682f01 	svcvs	0x00682f01
    195c:	652f656d 	strvs	r6, [pc, #-1389]!	; 13f7 <__code_start__-0x6c09>
    1960:	656c676e 	strbvs	r6, [ip, #-1902]!	; 0xfffff892
    1964:	6c632f72 	stclvs	15, cr2, [r3], #-456	; 0xfffffe38
    1968:	2f737361 	svccs	0x00737361
    196c:	34327363 	ldrtcc	r7, [r2], #-867	; 0xfffffc9d
    1970:	2d786c30 	ldclcs	12, cr6, [r8, #-192]!	; 0xffffff40
    1974:	70733232 	rsbsvc	r3, r3, r2, lsr r2
    1978:	6c2f2f72 	stcvs	15, cr2, [pc], #-456	; 17b8 <__code_start__-0x6848>
    197c:	69706269 	ldmdbvs	r0!, {r0, r3, r5, r6, r9, sp, lr}^
    1980:	636e692f 	cmnvs	lr, #770048	; 0xbc000
    1984:	6564756c 	strbvs	r7, [r4, #-1388]!	; 0xfffffa94
    1988:	73752f00 	cmnvc	r5, #0, 30
    198c:	68732f72 	ldmdavs	r3!, {r1, r4, r5, r6, r8, r9, sl, fp, sp}^
    1990:	2f657261 	svccs	0x00657261
    1994:	2d636367 	stclcs	3, cr6, [r3, #-412]!	; 0xfffffe64
    1998:	2d6d7261 	sfmcs	f7, 2, [sp, #-388]!	; 0xfffffe7c
    199c:	656e6f6e 	strbvs	r6, [lr, #-3950]!	; 0xfffff092
    19a0:	6261652d 	rsbvs	r6, r1, #188743680	; 0xb400000
    19a4:	30312d69 	eorscc	r2, r1, r9, ror #26
    19a8:	322d332e 	eorcc	r3, sp, #-1207959552	; 0xb8000000
    19ac:	2e313230 	mrccs	2, 1, r3, cr1, cr0, {1}
    19b0:	6c2f3031 	stcvs	0, cr3, [pc], #-196	; 18f4 <__code_start__-0x670c>
    19b4:	672f6269 	strvs	r6, [pc, -r9, ror #4]!
    19b8:	612f6363 			; <UNDEFINED> instruction: 0x612f6363
    19bc:	6e2d6d72 	mcrvs	13, 1, r6, cr13, cr2, {3}
    19c0:	2d656e6f 	stclcs	14, cr6, [r5, #-444]!	; 0xfffffe44
    19c4:	69626165 	stmdbvs	r2!, {r0, r2, r5, r6, r8, sp, lr}^
    19c8:	2e30312f 	rsfcssp	f3, f0, #10.0
    19cc:	2f312e33 	svccs	0x00312e33
    19d0:	6c636e69 	stclvs	14, cr6, [r3], #-420	; 0xfffffe5c
    19d4:	00656475 	rsbeq	r6, r5, r5, ror r4
    19d8:	69706700 	ldmdbvs	r0!, {r8, r9, sl, sp, lr}^
    19dc:	00632e6f 	rsbeq	r2, r3, pc, ror #28
    19e0:	72000000 	andvc	r0, r0, #0, 0
    19e4:	682e6970 	stmdavs	lr!, {r4, r5, r6, r8, fp, sp, lr}
    19e8:	00000100 	andeq	r0, r0, r0, lsl #2
    19ec:	69647473 	stmdbvs	r4!, {r0, r1, r4, r5, r6, sl, ip, sp, lr}^
    19f0:	672d746e 	strvs	r7, [sp, -lr, ror #8]!
    19f4:	682e6363 	stmdavs	lr!, {r0, r1, r5, r6, r8, r9, sp, lr}
    19f8:	00000200 	andeq	r0, r0, r0, lsl #4
    19fc:	6f697067 	svcvs	0x00697067
    1a00:	0100682e 	tsteq	r0, lr, lsr #16
    1a04:	05000000 	streq	r0, [r0, #-0]
    1a08:	02050038 	andeq	r0, r5, #56, 0	; 0x38
    1a0c:	00009198 	muleq	r0, r8, r1
    1a10:	05012703 	streq	r2, [r1, #-1795]	; 0xfffff8fd
    1a14:	07051305 	streq	r1, [r5, -r5, lsl #6]
    1a18:	38050106 	stmdacc	r5, {r1, r2, r8}
    1a1c:	06050549 	streq	r0, [r5], -r9, asr #10
    1a20:	0607054d 	streq	r0, [r7], -sp, asr #10
    1a24:	06050501 	streq	r0, [r5], -r1, lsl #10
    1a28:	0618054c 	ldreq	r0, [r8], -ip, asr #10
    1a2c:	ba0e0501 	blt	382e38 <__bss_end__+0x379518>
    1a30:	2f060505 	svccs	0x00060505
    1a34:	01061c05 	tsteq	r6, r5, lsl #24
    1a38:	2e0e052e 	cfsh32cs	mvfx0, mvfx14, #30
    1a3c:	30060505 	andcc	r0, r6, r5, lsl #10
    1a40:	01061205 	tsteq	r6, r5, lsl #4
    1a44:	4b060505 	blmi	182e60 <__bss_end__+0x179540>
    1a48:	01060705 	tsteq	r6, r5, lsl #14
    1a4c:	4b060505 	blmi	182e68 <__bss_end__+0x179548>
    1a50:	052e0613 	streq	r0, [lr, #-1555]!	; 0xfffff9ed
    1a54:	24054b01 	strcs	r4, [r5], #-2817	; 0xfffff4ff
    1a58:	01064c06 	tsteq	r6, r6, lsl #24
    1a5c:	2f060505 	svccs	0x00060505
    1a60:	4b060105 	blmi	181e7c <__bss_end__+0x17855c>
    1a64:	31062005 	tstcc	r6, r5
    1a68:	05130505 	ldreq	r0, [r3, #-1285]	; 0xfffffafb
    1a6c:	05010607 	streq	r0, [r1, #-1543]	; 0xfffff9f9
    1a70:	05054920 	streq	r4, [r5, #-2336]	; 0xfffff6e0
    1a74:	66063106 	strvs	r3, [r6], -r6, lsl #2
    1a78:	052f0105 	streq	r0, [pc, #-261]!	; 197b <__code_start__-0x6685>
    1a7c:	054d0621 	strbeq	r0, [sp, #-1569]	; 0xfffff9df
    1a80:	07051305 	streq	r1, [r5, -r5, lsl #6]
    1a84:	21050106 	tstcs	r5, r6, lsl #2
    1a88:	06050549 	streq	r0, [r5], -r9, asr #10
    1a8c:	05660631 	strbeq	r0, [r6, #-1585]!	; 0xfffff9cf
    1a90:	23052f01 	movwcs	r2, #24321	; 0x5f01
    1a94:	01064d06 	tsteq	r6, r6, lsl #26
    1a98:	2f060505 	svccs	0x00060505
    1a9c:	4b060105 	blmi	181eb8 <__bss_end__+0x178598>
    1aa0:	31062b05 	tstcc	r6, r5, lsl #22
    1aa4:	05050106 	streq	r0, [r5, #-262]	; 0xfffffefa
    1aa8:	07052f06 	streq	r2, [r5, -r6, lsl #30]
    1aac:	09050106 	stmdbeq	r5, {r1, r2, r8}
    1ab0:	2e064b06 	vmlacs.f64	d4, d6, d6
    1ab4:	01053006 	tsteq	r5, r6
    1ab8:	1d052f06 	stcne	15, cr2, [r5, #-24]	; 0xffffffe8
    1abc:	05053006 	streq	r3, [r5, #-6]
    1ac0:	06070513 			; <UNDEFINED> instruction: 0x06070513
    1ac4:	491d0501 	ldmdbmi	sp, {r0, r8, sl}
    1ac8:	31060505 	tstcc	r6, r5, lsl #10
    1acc:	060e0513 			; <UNDEFINED> instruction: 0x060e0513
    1ad0:	06050501 	streq	r0, [r5], -r1, lsl #10
    1ad4:	0617052f 	ldreq	r0, [r7], -pc, lsr #10
    1ad8:	23054a01 	movwcs	r4, #23041	; 0x5a01
    1adc:	0502042e 	streq	r0, [r2, #-1070]	; 0xfffffbd2
    1ae0:	dc030630 	stcle	6, cr0, [r3], {48}	; 0x30
    1ae4:	01042e00 	tsteq	r4, r0, lsl #28
    1ae8:	03060c05 	movweq	r0, #27653	; 0x6c05
    1aec:	05017fa4 	streq	r7, [r1, #-4004]	; 0xfffff05c
    1af0:	10052f01 	andne	r2, r5, r1, lsl #30
    1af4:	3201052a 	andcc	r0, r1, #176160768	; 0xa800000
    1af8:	01000402 	tsteq	r0, r2, lsl #8
    1afc:	Address 0x0000000000001afc is out of bounds.


Disassembly of section .debug_str:

00000000 <.debug_str>:
   0:	6d746f6e 	ldclvs	15, cr6, [r4, #-440]!	; 0xfffffe48
   4:	006e6961 	rsbeq	r6, lr, r1, ror #18
   8:	69736e75 	ldmdbvs	r3!, {r0, r2, r4, r5, r6, r9, sl, fp, sp, lr}^
   c:	64656e67 	strbtvs	r6, [r5], #-3687	; 0xfffff199
  10:	61686320 	cmnvs	r8, r0, lsr #6
  14:	6c630072 	stclvs	0, cr0, [r3], #-456	; 0xfffffe38
  18:	5f6e6165 	svcpl	0x006e6165
  1c:	6f626572 	svcvs	0x00626572
  20:	7300746f 	movwvc	r7, #1135	; 0x46f
  24:	74726f68 	ldrbtvc	r6, [r2], #-3944	; 0xfffff098
  28:	736e7520 	cmnvc	lr, #32, 10	; 0x8000000
  2c:	656e6769 	strbvs	r6, [lr, #-1897]!	; 0xfffff897
  30:	6e692064 	cdpvs	0, 6, cr2, cr9, cr4, {3}
  34:	726b0074 	rsbvc	r0, fp, #116, 0	; 0x74
  38:	6572665f 	ldrbvs	r6, [r2, #-1631]!	; 0xfffff9a1
  3c:	74700065 	ldrbtvc	r0, [r0], #-101	; 0xffffff9b
  40:	5f007372 	svcpl	0x00007372
  44:	4e55465f 	mrcmi	6, 2, r4, cr5, cr15, {2}
  48:	4f495443 	svcmi	0x00495443
  4c:	005f5f4e 	subseq	r5, pc, lr, asr #30
  50:	7365746e 	cmnvc	r5, #1845493760	; 0x6e000000
  54:	2f007374 	svccs	0x00007374
  58:	72657355 	rsbvc	r7, r5, #1409286145	; 0x54000001
  5c:	616a2f73 	smcvs	41715	; 0xa2f3
  60:	77646572 			; <UNDEFINED> instruction: 0x77646572
  64:	73736965 	cmnvc	r3, #1654784	; 0x194000
  68:	67726562 	ldrbvs	r6, [r2, -r2, ror #10]!
  6c:	756f432f 	strbvc	r4, [pc, #-815]!	; fffffd45 <__bss_end__+0xffff6425>
  70:	73657372 	cmnvc	r5, #-939524095	; 0xc8000001
  74:	3173632f 	cmncc	r3, pc, lsr #6
  78:	2f653034 	svccs	0x00653034
  7c:	34327363 	ldrtcc	r7, [r2], #-867	; 0xfffffc9d
  80:	2d786c30 	ldclcs	12, cr6, [r8, #-192]!	; 0xffffff40
  84:	70733232 	rsbsvc	r3, r3, r2, lsr r2
  88:	616c2f72 	smcvs	49906	; 0xc2f2
  8c:	352f7362 	strcc	r7, [pc, #-866]!	; fffffd32 <__bss_end__+0xffff6412>
  90:	6c616d2d 	stclvs	13, cr6, [r1], #-180	; 0xffffff4c
  94:	2b636f6c 	blcs	18dbe4c <__bss_end__+0x18d252c>
  98:	312f6367 			; <UNDEFINED> instruction: 0x312f6367
  9c:	6c616d2d 	stclvs	13, cr6, [r1], #-180	; 0xffffff4c
  a0:	00636f6c 	rsbeq	r6, r3, ip, ror #30
  a4:	676e6f6c 	strbvs	r6, [lr, -ip, ror #30]!
  a8:	6e6f6c20 	cdpvs	12, 6, cr6, cr15, cr0, {1}
  ac:	6e752067 	cdpvs	0, 7, cr2, cr5, cr7, {3}
  b0:	6e676973 			; <UNDEFINED> instruction: 0x6e676973
  b4:	69206465 	stmdbvs	r0!, {r0, r2, r5, r6, sl, sp, lr}
  b8:	7500746e 	strvc	r7, [r0, #-1134]	; 0xfffffb92
  bc:	38746e69 	ldmdacc	r4!, {r0, r3, r5, r6, r9, sl, fp, sp, lr}^
  c0:	3200745f 	andcc	r7, r0, #1593835520	; 0x5f000000
  c4:	7365742d 	cmnvc	r5, #754974720	; 0x2d000000
  c8:	616d2d74 	smcvs	53972	; 0xd2d4
  cc:	636f6c6c 	cmnvs	pc, #108, 24	; 0x6c00
  d0:	7400632e 	strvc	r6, [r0], #-814	; 0xfffffcd2
  d4:	5f747365 	svcpl	0x00747365
  d8:	6f6c6c61 	svcvs	0x006c6c61
  dc:	72665f63 	rsbvc	r5, r6, #396	; 0x18c
  e0:	6c006565 	cfstr32vs	mvfx6, [r0], {101}	; 0x65
  e4:	20676e6f 	rsbcs	r6, r7, pc, ror #28
  e8:	676e6f6c 	strbvs	r6, [lr, -ip, ror #30]!
  ec:	746e6920 	strbtvc	r6, [lr], #-2336	; 0xfffff6e0
  f0:	69707200 	ldmdbvs	r0!, {r9, ip, sp, lr}^
  f4:	7475705f 	ldrbtvc	r7, [r5], #-95	; 0xffffffa1
  f8:	72616863 	rsbvc	r6, r1, #6488064	; 0x630000
  fc:	6f687300 	svcvs	0x00687300
 100:	69207472 	stmdbvs	r0!, {r1, r4, r5, r6, sl, ip, sp, lr}
 104:	6b00746e 	blvs	1d2c4 <__bss_end__+0x139a4>
 108:	616d5f72 	smcvs	54770	; 0xd5f2
 10c:	636f6c6c 	cmnvs	pc, #108, 24	; 0x6c00
 110:	554e4700 	strbpl	r4, [lr, #-1792]	; 0xfffff900
 114:	39394320 	ldmdbcc	r9!, {r5, r8, r9, lr}
 118:	322e3920 	eorcc	r3, lr, #32, 18	; 0x80000
 11c:	3220312e 	eorcc	r3, r0, #-2147483637	; 0x8000000b
 120:	31393130 	teqcc	r9, r0, lsr r1
 124:	20353230 	eorscs	r3, r5, r0, lsr r2
 128:	6c657228 	sfmvs	f7, 2, [r5], #-160	; 0xffffff60
 12c:	65736165 	ldrbvs	r6, [r3, #-357]!	; 0xfffffe9b
 130:	415b2029 	cmpmi	fp, r9, lsr #32
 134:	612f4d52 			; <UNDEFINED> instruction: 0x612f4d52
 138:	392d6d72 	pushcc	{r1, r4, r5, r6, r8, sl, fp, sp, lr}
 13c:	6172622d 	cmnvs	r2, sp, lsr #4
 140:	2068636e 	rsbcs	r6, r8, lr, ror #6
 144:	69766572 	ldmdbvs	r6!, {r1, r4, r5, r6, r8, sl, sp, lr}^
 148:	6e6f6973 			; <UNDEFINED> instruction: 0x6e6f6973
 14c:	37373220 	ldrcc	r3, [r7, -r0, lsr #4]!
 150:	5d393935 			; <UNDEFINED> instruction: 0x5d393935
 154:	636d2d20 	cmnvs	sp, #32, 26	; 0x800
 158:	613d7570 	teqvs	sp, r0, ror r5
 15c:	31316d72 	teqcc	r1, r2, ror sp
 160:	7a6a3637 	bvc	1a8da44 <__bss_end__+0x1a84124>
 164:	20732d66 	rsbscs	r2, r3, r6, ror #26
 168:	75746d2d 	ldrbvc	r6, [r4, #-3373]!	; 0xfffff2d3
 16c:	613d656e 	teqvs	sp, lr, ror #10
 170:	31316d72 	teqcc	r1, r2, ror sp
 174:	7a6a3637 	bvc	1a8da58 <__bss_end__+0x1a84138>
 178:	20732d66 	rsbscs	r2, r3, r6, ror #26
 17c:	6c666d2d 	stclvs	13, cr6, [r6], #-180	; 0xffffff4c
 180:	2d74616f 	ldfcse	f6, [r4, #-444]!	; 0xfffffe44
 184:	3d696261 	sfmcc	f6, 2, [r9, #-388]!	; 0xfffffe7c
 188:	74666f73 	strbtvc	r6, [r6], #-3955	; 0xfffff08d
 18c:	616d2d20 	cmnvs	sp, r0, lsr #26
 190:	2d206d72 	stccs	13, cr6, [r0, #-456]!	; 0xfffffe38
 194:	6372616d 	cmnvs	r2, #1073741851	; 0x4000001b
 198:	72613d68 	rsbvc	r3, r1, #104, 26	; 0x1a00
 19c:	6b36766d 	blvs	d9db58 <__bss_end__+0xd94238>
 1a0:	672d207a 			; <UNDEFINED> instruction: 0x672d207a
 1a4:	20626467 	rsbcs	r6, r2, r7, ror #8
 1a8:	20674f2d 	rsbcs	r4, r7, sp, lsr #30
 1ac:	6474732d 	ldrbtvs	r7, [r4], #-813	; 0xfffffcd3
 1b0:	756e673d 	strbvc	r6, [lr, #-1853]!	; 0xfffff8c3
 1b4:	2d203939 			; <UNDEFINED> instruction: 0x2d203939
 1b8:	65726666 	ldrbvs	r6, [r2, #-1638]!	; 0xfffff99a
 1bc:	61747365 	cmnvs	r4, r5, ror #6
 1c0:	6e69646e 	cdpvs	4, 6, cr6, cr9, cr14, {3}
 1c4:	70720067 	rsbsvc	r0, r2, r7, rrx
 1c8:	65725f69 	ldrbvs	r5, [r2, #-3945]!	; 0xfffff097
 1cc:	5f746573 	svcpl	0x00746573
 1d0:	63747570 	cmnvs	r4, #112, 10	; 0x1c000000
 1d4:	5f796d00 	svcpl	0x00796d00
 1d8:	65726f6d 	ldrbvs	r6, [r2, #-3949]!	; 0xfffff093
 1dc:	65726f63 	ldrbvs	r6, [r2, #-3939]!	; 0xfffff09d
 1e0:	61656800 	cmnvs	r5, r0, lsl #16
 1e4:	00726564 	rsbseq	r6, r2, r4, ror #10
 1e8:	76657270 			; <UNDEFINED> instruction: 0x76657270
 1ec:	6e690070 	mcrvs	0, 3, r0, cr9, cr0, {3}
 1f0:	6d657263 	sfmvs	f7, 2, [r5, #-396]!	; 0xfffffe74
 1f4:	00746e65 	rsbseq	r6, r4, r5, ror #28
 1f8:	65657266 	strbvs	r7, [r5, #-614]!	; 0xfffffd9a
 1fc:	65680070 	strbvs	r0, [r8, #-112]!	; 0xffffff90
 200:	735f7061 	cmpvc	pc, #97, 0	; 0x61
 204:	74726174 	ldrbtvc	r6, [r2], #-372	; 0xfffffe8c
 208:	6e756e00 	cdpvs	14, 7, cr6, cr5, cr0, {0}
 20c:	00737469 	rsbseq	r7, r3, r9, ror #8
 210:	6d2d726b 	sfmvs	f7, 4, [sp, #-428]!	; 0xfffffe54
 214:	6f6c6c61 	svcvs	0x006c6c61
 218:	00632e63 	rsbeq	r2, r3, r3, ror #28
 21c:	75747570 	ldrbvc	r7, [r4, #-1392]!	; 0xfffffa90
 220:	5f796d00 	svcpl	0x00796d00
 224:	6b726273 	blvs	1c98bf8 <__bss_end__+0x1c8f2d8>
 228:	61656800 	cmnvs	r5, r0, lsl #16
 22c:	6e655f70 	mcrvs	15, 3, r5, cr5, cr0, {3}
 230:	61620064 	cmnvs	r2, r4, rrx
 234:	68006573 	stmdavs	r0, {r0, r1, r4, r5, r6, r8, sl, sp, lr}
 238:	5f706165 	svcpl	0x00706165
 23c:	00727470 	rsbseq	r7, r2, r0, ror r4
 240:	74733275 	ldrbtvc	r3, [r3], #-629	; 0xfffffd8b
 244:	69730072 	ldmdbvs	r3!, {r1, r4, r5, r6}^
 248:	6e00657a 	cfrshl64vs	mvdx0, mvdx10, r6
 24c:	65747962 	ldrbvs	r7, [r4, #-2402]!	; 0xfffff69e
 250:	69700073 	ldmdbvs	r0!, {r0, r1, r4, r5, r6}^
 254:	7262732d 	rsbvc	r7, r2, #-1275068416	; 0xb4000000
 258:	00632e6b 	rsbeq	r2, r3, fp, ror #28
 25c:	20554e47 	subscs	r4, r5, r7, asr #28
 260:	20393943 	eorscs	r3, r9, r3, asr #18
 264:	2e322e39 	mrccs	14, 1, r2, cr2, cr9, {1}
 268:	30322031 	eorscc	r2, r2, r1, lsr r0
 26c:	30313931 	eorscc	r3, r1, r1, lsr r9
 270:	28203532 	stmdacs	r0!, {r1, r4, r5, r8, sl, ip, sp}
 274:	656c6572 	strbvs	r6, [ip, #-1394]!	; 0xfffffa8e
 278:	29657361 	stmdbcs	r5!, {r0, r5, r6, r8, r9, ip, sp, lr}^
 27c:	52415b20 	subpl	r5, r1, #32, 22	; 0x8000
 280:	72612f4d 	rsbvc	r2, r1, #308	; 0x134
 284:	2d392d6d 	ldccs	13, cr2, [r9, #-436]!	; 0xfffffe4c
 288:	6e617262 	cdpvs	2, 6, cr7, cr1, cr2, {3}
 28c:	72206863 	eorvc	r6, r0, #6488064	; 0x630000
 290:	73697665 	cmnvc	r9, #105906176	; 0x6500000
 294:	206e6f69 	rsbcs	r6, lr, r9, ror #30
 298:	35373732 	ldrcc	r3, [r7, #-1842]!	; 0xfffff8ce
 29c:	205d3939 	subscs	r3, sp, r9, lsr r9
 2a0:	70636d2d 	rsbvc	r6, r3, sp, lsr #26
 2a4:	72613d75 	rsbvc	r3, r1, #7488	; 0x1d40
 2a8:	3731316d 	ldrcc	r3, [r1, -sp, ror #2]!
 2ac:	667a6a36 			; <UNDEFINED> instruction: 0x667a6a36
 2b0:	2d20732d 	stccs	3, cr7, [r0, #-180]!	; 0xffffff4c
 2b4:	6e75746d 	cdpvs	4, 7, cr7, cr5, cr13, {3}
 2b8:	72613d65 	rsbvc	r3, r1, #6464	; 0x1940
 2bc:	3731316d 	ldrcc	r3, [r1, -sp, ror #2]!
 2c0:	667a6a36 			; <UNDEFINED> instruction: 0x667a6a36
 2c4:	2d20732d 	stccs	3, cr7, [r0, #-180]!	; 0xffffff4c
 2c8:	6f6c666d 	svcvs	0x006c666d
 2cc:	612d7461 			; <UNDEFINED> instruction: 0x612d7461
 2d0:	733d6962 	teqvc	sp, #1605632	; 0x188000
 2d4:	2074666f 	rsbscs	r6, r4, pc, ror #12
 2d8:	72616d2d 	rsbvc	r6, r1, #2880	; 0xb40
 2dc:	6d2d206d 	stcvs	0, cr2, [sp, #-436]!	; 0xfffffe4c
 2e0:	68637261 	stmdavs	r3!, {r0, r5, r6, r9, ip, sp, lr}^
 2e4:	6d72613d 	ldfvse	f6, [r2, #-244]!	; 0xffffff0c
 2e8:	7a6b3676 	bvc	1acdcc8 <__bss_end__+0x1ac43a8>
 2ec:	67672d20 	strbvs	r2, [r7, -r0, lsr #26]!
 2f0:	2d206264 	sfmcs	f6, 4, [r0, #-400]!	; 0xfffffe70
 2f4:	62646767 	rsbvs	r6, r4, #27000832	; 0x19c0000
 2f8:	674f2d20 	strbvs	r2, [pc, -r0, lsr #26]
 2fc:	674f2d20 	strbvs	r2, [pc, -r0, lsr #26]
 300:	74732d20 	ldrbtvc	r2, [r3], #-3360	; 0xfffff2e0
 304:	6e673d64 	cdpvs	13, 6, cr3, cr7, cr4, {3}
 308:	20393975 	eorscs	r3, r9, r5, ror r9
 30c:	6474732d 	ldrbtvs	r7, [r4], #-813	; 0xfffffcd3
 310:	756e673d 	strbvc	r6, [lr, #-1853]!	; 0xfffff8c3
 314:	2d203939 			; <UNDEFINED> instruction: 0x2d203939
 318:	65726666 	ldrbvs	r6, [r2, #-1638]!	; 0xfffff99a
 31c:	61747365 	cmnvs	r4, r5, ror #6
 320:	6e69646e 	cdpvs	4, 6, cr6, cr9, cr14, {3}
 324:	72610067 	rsbvc	r0, r1, #103, 0	; 0x67
 328:	2f007367 	svccs	0x00007367
 32c:	72657355 	rsbvc	r7, r5, #1409286145	; 0x54000001
 330:	616a2f73 	smcvs	41715	; 0xa2f3
 334:	77646572 			; <UNDEFINED> instruction: 0x77646572
 338:	73736965 	cmnvc	r3, #1654784	; 0x194000
 33c:	67726562 	ldrbvs	r6, [r2, -r2, ror #10]!
 340:	756f432f 	strbvc	r4, [pc, #-815]!	; 19 <__code_start__-0x7fe7>
 344:	73657372 	cmnvc	r5, #-939524095	; 0xc8000001
 348:	3173632f 	cmncc	r3, pc, lsr #6
 34c:	2f653034 	svccs	0x00653034
 350:	34327363 	ldrtcc	r7, [r2], #-867	; 0xfffffc9d
 354:	2d786c30 	ldclcs	12, cr6, [r8, #-192]!	; 0xffffff40
 358:	70733232 	rsbsvc	r3, r3, r2, lsr r2
 35c:	696c2f72 	stmdbvs	ip!, {r1, r4, r5, r6, r8, r9, sl, fp, sp}^
 360:	00697062 	rsbeq	r7, r9, r2, rrx
 364:	705f6176 	subsvc	r6, pc, r6, ror r1	; <UNPREDICTABLE>
 368:	746e6972 	strbtvc	r6, [lr], #-2418	; 0xfffff68e
 36c:	5f5f006b 	svcpl	0x005f006b
 370:	63756e67 	cmnvs	r5, #1648	; 0x670
 374:	5f61765f 	svcpl	0x0061765f
 378:	7473696c 	ldrbtvc	r6, [r3], #-2412	; 0xfffff694
 37c:	615f5f00 	cmpvs	pc, r0, lsl #30
 380:	2f2e0070 	svccs	0x002e0070
 384:	6362696c 	cmnvs	r2, #108, 18	; 0x1b0000
 388:	6972702f 	ldmdbvs	r2!, {r0, r1, r2, r3, r5, ip, sp, lr}^
 38c:	2e6b746e 	cdpcs	4, 6, cr7, cr11, cr14, {3}
 390:	5f5f0063 	svcpl	0x005f0063
 394:	6c5f6176 	ldfvse	f6, [pc], {118}	; 0x76
 398:	00747369 	rsbseq	r7, r4, r9, ror #6
 39c:	65746e69 	ldrbvs	r6, [r4, #-3689]!	; 0xfffff197
 3a0:	6c616e72 	stclvs	14, cr6, [r1], #-456	; 0xfffffe38
 3a4:	7475705f 	ldrbtvc	r7, [r5], #-95	; 0xffffffa1
 3a8:	72616863 	rsbvc	r6, r1, #6488064	; 0x630000
 3ac:	69707200 	ldmdbvs	r0!, {r9, ip, sp, lr}^
 3b0:	7465735f 	strbtvc	r7, [r5], #-863	; 0xfffffca1
 3b4:	7475705f 	ldrbtvc	r7, [r5], #-95	; 0xffffffa1
 3b8:	2f2e0063 	svccs	0x002e0063
 3bc:	6362696c 	cmnvs	r2, #108, 18	; 0x1b0000
 3c0:	7475702f 	ldrbtvc	r7, [r5], #-47	; 0xffffffd1
 3c4:	72616863 	rsbvc	r6, r1, #6488064	; 0x630000
 3c8:	7500632e 	strvc	r6, [r0, #-814]	; 0xfffffcd2
 3cc:	5f747261 	svcpl	0x00747261
 3d0:	63747570 	cmnvs	r4, #112, 10	; 0x1c000000
 3d4:	746e6900 	strbtvc	r6, [lr], #-2304	; 0xfffff700
 3d8:	616e7265 	cmnvs	lr, r5, ror #4
 3dc:	75705f6c 	ldrbvc	r5, [r0, #-3948]!	; 0xfffff094
 3e0:	2e006b74 	vmovcs.16	d0[1], r6
 3e4:	62696c2f 	rsbvs	r6, r9, #12032	; 0x2f00
 3e8:	75702f63 	ldrbvc	r2, [r0, #-3939]!	; 0xfffff09d
 3ec:	632e6b74 			; <UNDEFINED> instruction: 0x632e6b74
 3f0:	64736900 	ldrbtvs	r6, [r3], #-2304	; 0xfffff700
 3f4:	74696769 	strbtvc	r6, [r9], #-1897	; 0xfffff897
 3f8:	6e697500 	cdpvs	5, 6, cr7, cr9, cr0, {0}
 3fc:	5f343674 	svcpl	0x00343674
 400:	2f2e0074 	svccs	0x002e0074
 404:	6362696c 	cmnvs	r2, #108, 18	; 0x1b0000
 408:	2d61762f 	stclcs	6, cr7, [r1, #-188]!	; 0xffffff44
 40c:	6e697270 	mcrvs	2, 3, r7, cr9, cr0, {3}
 410:	632e6b74 			; <UNDEFINED> instruction: 0x632e6b74
 414:	635f5f00 	cmpvs	pc, #0, 30
 418:	5f65646f 	svcpl	0x0065646f
 41c:	72617473 	rsbvc	r7, r1, #1929379840	; 0x73000000
 420:	005f5f74 	subseq	r5, pc, r4, ror pc	; <UNPREDICTABLE>
 424:	73625f5f 	cmnvc	r2, #380	; 0x17c
 428:	74735f73 	ldrbtvc	r5, [r3], #-3955	; 0xfffff08d
 42c:	5f747261 	svcpl	0x00747261
 430:	6977005f 	ldmdbvs	r7!, {r0, r1, r2, r3, r4, r6}^
 434:	00687464 	rsbeq	r7, r8, r4, ror #8
 438:	61645f5f 	cmnvs	r4, pc, asr pc
 43c:	655f6174 	ldrbvs	r6, [pc, #-372]	; 2d0 <__code_start__-0x7d30>
 440:	5f5f646e 	svcpl	0x005f646e
 444:	74757000 	ldrbtvc	r7, [r5], #-0
 448:	70665f63 	rsbvc	r5, r6, r3, ror #30
 44c:	625f5f00 	subsvs	r5, pc, #0, 30
 450:	655f7373 	ldrbvs	r7, [pc, #-883]	; e5 <__code_start__-0x7f1b>
 454:	5f5f646e 	svcpl	0x005f646e
 458:	685f5f00 	ldmdavs	pc, {r8, r9, sl, fp, ip, lr}^	; <UNPREDICTABLE>
 45c:	5f706165 	svcpl	0x00706165
 460:	72617473 	rsbvc	r7, r1, #1929379840	; 0x73000000
 464:	005f5f74 	subseq	r5, pc, r4, ror pc	; <UNPREDICTABLE>
 468:	746e6975 	strbtvc	r6, [lr], #-2421	; 0xfffff68b
 46c:	745f3233 	ldrbvc	r3, [pc], #-563	; 474 <__code_start__-0x7b8c>
 470:	69707200 	ldmdbvs	r0!, {r9, ip, sp, lr}^
 474:	7465735f 	strbtvc	r7, [r5], #-863	; 0xfffffca1
 478:	74756f5f 	ldrbtvc	r6, [r5], #-3935	; 0xfffff0a1
 47c:	00747570 	rsbseq	r7, r4, r0, ror r5
 480:	5f746d66 	svcpl	0x00746d66
 484:	72617473 	rsbvc	r7, r1, #1929379840	; 0x73000000
 488:	74730074 	ldrbtvc	r0, [r3], #-116	; 0xffffff8c
 48c:	79706372 	ldmdbvc	r0!, {r1, r4, r5, r6, r8, r9, sp, lr}^
 490:	67656e00 	strbvs	r6, [r5, -r0, lsl #28]!
 494:	5f00705f 	svcpl	0x0000705f
 498:	646f635f 	strbtvs	r6, [pc], #-863	; 4a0 <__code_start__-0x7b60>
 49c:	6e655f65 	cdpvs	15, 6, cr5, cr5, cr5, {3}
 4a0:	005f5f64 	subseq	r5, pc, r4, ror #30
 4a4:	74696d65 	strbtvc	r6, [r9], #-3429	; 0xfffff29b
 4a8:	74757000 	ldrbtvc	r7, [r5], #-0
 4ac:	70665f73 	rsbvc	r5, r6, r3, ror pc
 4b0:	76657200 	strbtvc	r7, [r5], -r0, lsl #4
 4b4:	65737265 	ldrbvs	r7, [r3, #-613]!	; 0xfffffd9b
 4b8:	72747300 	rsbsvc	r7, r4, #0, 6
 4bc:	00746163 	rsbseq	r6, r4, r3, ror #2
 4c0:	63727473 	cmnvs	r2, #1929379840	; 0x73000000
 4c4:	5f00706d 	svcpl	0x0000706d
 4c8:	7461645f 	strbtvc	r6, [r1], #-1119	; 0xfffffba1
 4cc:	74735f61 	ldrbtvc	r5, [r3], #-3937	; 0xfffff09f
 4d0:	5f747261 	svcpl	0x00747261
 4d4:	5f5f005f 	svcpl	0x005f005f
 4d8:	676f7270 			; <UNDEFINED> instruction: 0x676f7270
 4dc:	646e655f 	strbtvs	r6, [lr], #-1375	; 0xfffffaa1
 4e0:	6e005f5f 	mcrvs	15, 0, r5, cr0, cr15, {2}
 4e4:	00316d75 	eorseq	r6, r1, r5, ror sp
 4e8:	6e727473 	mrcvs	4, 3, r7, cr2, cr3, {3}
 4ec:	00706d63 	rsbseq	r6, r0, r3, ror #26
 4f0:	6e676973 			; <UNDEFINED> instruction: 0x6e676973
 4f4:	705f6465 	subsvc	r6, pc, r5, ror #8
 4f8:	69707200 	ldmdbvs	r0!, {r9, ip, sp, lr}^
 4fc:	6265725f 	rsbvs	r7, r5, #-268435451	; 0xf0000005
 500:	00746f6f 	rsbseq	r6, r4, pc, ror #30
 504:	616c6564 	cmnvs	ip, r4, ror #10
 508:	736d5f79 	cmnvc	sp, #484	; 0x1e4
 50c:	732f2e00 			; <UNDEFINED> instruction: 0x732f2e00
 510:	66666174 			; <UNDEFINED> instruction: 0x66666174
 514:	6372732d 	cmnvs	r2, #-1275068416	; 0xb4000000
 518:	656c632f 	strbvs	r6, [ip, #-815]!	; 0xfffffcd1
 51c:	722d6e61 	eorvc	r6, sp, #1552	; 0x610
 520:	6f6f6265 	svcvs	0x006f6265
 524:	00632e74 	rsbeq	r2, r3, r4, ror lr
 528:	74726175 	ldrbtvc	r6, [r2], #-373	; 0xfffffe8b
 52c:	756c665f 	strbvc	r6, [ip, #-1631]!	; 0xfffff9a1
 530:	745f6873 	ldrbvc	r6, [pc], #-2163	; 538 <__code_start__-0x7ac8>
 534:	635f0078 	cmpvs	pc, #120, 0	; 0x78
 538:	72617473 	rsbvc	r7, r1, #1929379840	; 0x73000000
 53c:	73620074 	cmnvc	r2, #116, 0	; 0x74
 540:	6e655f73 	mcrvs	15, 3, r5, cr5, cr3, {3}
 544:	61750064 	cmnvs	r5, r4, rrx
 548:	695f7472 	ldmdbvs	pc, {r1, r4, r5, r6, sl, ip, sp, lr}^	; <UNPREDICTABLE>
 54c:	0074696e 	rsbseq	r6, r4, lr, ror #18
 550:	74737563 	ldrbtvc	r7, [r3], #-1379	; 0xfffffa9d
 554:	6c5f6d6f 	mrrcvs	13, 6, r6, pc, cr15	; <UNPREDICTABLE>
 558:	6564616f 	strbvs	r6, [r4, #-367]!	; 0xfffffe91
 55c:	2f2e0072 	svccs	0x002e0072
 560:	66617473 			; <UNDEFINED> instruction: 0x66617473
 564:	72732d66 	rsbsvc	r2, r3, #6528	; 0x1980
 568:	73632f63 	cmnvc	r3, #396	; 0x18c
 56c:	74726174 	ldrbtvc	r6, [r2], #-372	; 0xfffffe8c
 570:	2e00632e 	cdpcs	3, 0, cr6, cr0, cr14, {1}
 574:	6174732f 	cmnvs	r4, pc, lsr #6
 578:	732d6666 			; <UNDEFINED> instruction: 0x732d6666
 57c:	632f6372 			; <UNDEFINED> instruction: 0x632f6372
 580:	6f747375 	svcvs	0x00747375
 584:	6f6c2d6d 	svcvs	0x006c2d6d
 588:	72656461 	rsbvc	r6, r5, #1627389952	; 0x61000000
 58c:	7200632e 	andvc	r6, r0, #-1207959552	; 0xb8000000
 590:	6f6f6265 	svcvs	0x006f6265
 594:	61635f74 	smcvs	13812	; 0x35f4
 598:	756f6c6c 	strbvc	r6, [pc, #-3180]!	; fffff934 <__bss_end__+0xffff6014>
 59c:	4d500074 	ldclmi	0, cr0, [r0, #-464]	; 0xfffffe30
 5a0:	4f44575f 	svcmi	0x0044575f
 5a4:	55500047 	ldrbpl	r0, [r0, #-71]	; 0xffffffb9
 5a8:	00323354 	eorseq	r3, r2, r4, asr r3
 5ac:	5f746573 	svcpl	0x00746573
 5b0:	72657375 	rsbvc	r7, r5, #-738197503	; 0xd4000001
 5b4:	76656c5f 			; <UNDEFINED> instruction: 0x76656c5f
 5b8:	2e006c65 	cdpcs	12, 0, cr6, cr0, cr5, {3}
 5bc:	6174732f 	cmnvs	r4, pc, lsr #6
 5c0:	732d6666 			; <UNDEFINED> instruction: 0x732d6666
 5c4:	722f6372 	eorvc	r6, pc, #-939524095	; 0xc8000001
 5c8:	6f6f6265 	svcvs	0x006f6265
 5cc:	00632e74 	rsbeq	r2, r3, r4, ror lr
 5d0:	505f4d50 	subspl	r4, pc, r0, asr sp	; <UNPREDICTABLE>
 5d4:	57535341 	ldrbpl	r5, [r3, -r1, asr #6]
 5d8:	0044524f 	subeq	r5, r4, pc, asr #4
 5dc:	755f7461 	ldrbvc	r7, [pc, #-1121]	; 183 <__code_start__-0x7e7d>
 5e0:	5f726573 	svcpl	0x00726573
 5e4:	6576656c 	ldrbvs	r6, [r6, #-1388]!	; 0xfffffa94
 5e8:	4d50006c 	ldclmi	0, cr0, [r0, #-432]	; 0xfffffe50
 5ec:	5453525f 	ldrbpl	r5, [r3], #-607	; 0xfffffda1
 5f0:	52575f43 	subspl	r5, r7, #268	; 0x10c
 5f4:	5f474643 	svcpl	0x00474643
 5f8:	4c4c5546 	cfstr64mi	mvdx5, [ip], {70}	; 0x46
 5fc:	5345525f 	movtpl	r5, #21087	; 0x525f
 600:	50005445 	andpl	r5, r0, r5, asr #8
 604:	53525f4d 	cmppl	r2, #308	; 0x134
 608:	63004354 	movwvs	r4, #852	; 0x354
 60c:	00727370 	rsbseq	r7, r2, r0, ror r3
 610:	5f766564 	svcpl	0x00766564
 614:	72726162 	rsbsvc	r6, r2, #-2147483624	; 0x80000018
 618:	00726569 	rsbseq	r6, r2, r9, ror #10
 61c:	616c6564 	cmnvs	ip, r4, ror #10
 620:	65735f79 	ldrbvs	r5, [r3, #-3961]!	; 0xfffff087
 624:	2f2e0063 	svccs	0x002e0063
 628:	66617473 			; <UNDEFINED> instruction: 0x66617473
 62c:	72732d66 	rsbsvc	r2, r3, #6528	; 0x1980
 630:	69742f63 	ldmdbvs	r4!, {r0, r1, r5, r6, r8, r9, sl, fp, sp}^
 634:	2e72656d 	cdpcs	5, 7, cr6, cr2, cr13, {3}
 638:	45470063 	strbmi	r0, [r7, #-99]	; 0xffffff9d
 63c:	00323354 	eorseq	r3, r2, r4, asr r3
 640:	656d6974 	strbvs	r6, [sp, #-2420]!	; 0xfffff68c
 644:	65675f72 	strbvs	r5, [r7, #-3954]!	; 0xfffff08e
 648:	73755f74 	cmnvc	r5, #116, 30	; 0x1d0
 64c:	64006365 	strvs	r6, [r0], #-869	; 0xfffffc9b
 650:	79616c65 	stmdbvc	r1!, {r0, r2, r5, r6, sl, fp, sp, lr}^
 654:	0073755f 	rsbseq	r7, r3, pc, asr r5
 658:	656d6974 	strbvs	r6, [sp, #-2420]!	; 0xfffff68c
 65c:	65675f72 	strbvs	r5, [r7, #-3954]!	; 0xfffff08e
 660:	73755f74 	cmnvc	r5, #116, 30	; 0x1d0
 664:	725f6365 	subsvc	r6, pc, #-1811939327	; 0x94000001
 668:	70007761 	andvc	r7, r0, r1, ror #14
 66c:	32337475 	eorscc	r7, r3, #1962934272	; 0x75000000
 670:	75616200 	strbvc	r6, [r1, #-512]!	; 0xfffffe00
 674:	61765f64 	cmnvs	r6, r4, ror #30
 678:	7473006c 	ldrbtvc	r0, [r3], #-108	; 0xffffff94
 67c:	75007461 	strvc	r7, [r0, #-1121]	; 0xfffffb9f
 680:	5f747261 	svcpl	0x00747261
 684:	5f6e6163 	svcpl	0x006e6163
 688:	63746567 	cmnvs	r4, #432013312	; 0x19c00000
 68c:	49504700 	ldmdbmi	r0, {r8, r9, sl, lr}^
 690:	55465f4f 	strbpl	r5, [r6, #-3919]	; 0xfffff0b1
 694:	4f5f434e 	svcmi	0x005f434e
 698:	55505455 	ldrbpl	r5, [r0, #-1109]	; 0xfffffbab
 69c:	75610054 	strbvc	r0, [r1, #-84]!	; 0xffffffac
 6a0:	65705f78 	ldrbvs	r5, [r0, #-3960]!	; 0xfffff088
 6a4:	68706972 	ldmdavs	r0!, {r1, r4, r5, r6, r8, fp, sp, lr}^
 6a8:	61750073 	cmnvs	r5, r3, ror r0
 6ac:	632e7472 			; <UNDEFINED> instruction: 0x632e7472
 6b0:	72617500 	rsbvc	r7, r1, #0, 10
 6b4:	61635f74 	smcvs	13812	; 0x35f4
 6b8:	75705f6e 	ldrbvc	r5, [r0, #-3950]!	; 0xfffff092
 6bc:	61006374 	tstvs	r0, r4, ror r3
 6c0:	00726464 	rsbseq	r6, r2, r4, ror #8
 6c4:	74726175 	ldrbtvc	r6, [r2], #-373	; 0xfffffe8b
 6c8:	5f78745f 	svcpl	0x0078745f
 6cc:	655f7369 	ldrbvs	r7, [pc, #-873]	; 36b <__code_start__-0x7c95>
 6d0:	7974706d 	ldmdbvc	r4!, {r0, r2, r3, r5, r6, ip, sp, lr}^
 6d4:	49504700 	ldmdbmi	r0, {r8, r9, sl, lr}^
 6d8:	55465f4f 	strbpl	r5, [r6, #-3919]	; 0xfffff0b1
 6dc:	415f434e 	cmpmi	pc, lr, asr #6
 6e0:	0030544c 	eorseq	r5, r0, ip, asr #8
 6e4:	4f495047 	svcmi	0x00495047
 6e8:	4e55465f 	mrcmi	6, 2, r4, cr5, cr15, {2}
 6ec:	4c415f43 	mcrrmi	15, 4, r5, r1, cr3
 6f0:	47003154 	smlsdmi	r0, r4, r1, r3
 6f4:	5f4f4950 	svcpl	0x004f4950
 6f8:	434e5546 	movtmi	r5, #58694	; 0xe546
 6fc:	544c415f 	strbpl	r4, [ip], #-351	; 0xfffffea1
 700:	50470032 	subpl	r0, r7, r2, lsr r0
 704:	465f4f49 	ldrbmi	r4, [pc], -r9, asr #30
 708:	5f434e55 	svcpl	0x00434e55
 70c:	33544c41 	cmpcc	r4, #16640	; 0x4100
 710:	49504700 	ldmdbmi	r0, {r8, r9, sl, lr}^
 714:	55465f4f 	strbpl	r5, [r6, #-3919]	; 0xfffff0b1
 718:	415f434e 	cmpmi	pc, lr, asr #6
 71c:	0035544c 	eorseq	r5, r5, ip, asr #8
 720:	6d6f682f 	stclvs	8, cr6, [pc, #-188]!	; 66c <__code_start__-0x7994>
 724:	6e652f65 	cdpvs	15, 6, cr2, cr5, cr5, {3}
 728:	72656c67 	rsbvc	r6, r5, #26368	; 0x6700
 72c:	616c632f 	cmnvs	ip, pc, lsr #6
 730:	632f7373 			; <UNDEFINED> instruction: 0x632f7373
 734:	30343273 	eorscc	r3, r4, r3, ror r2
 738:	322d786c 	eorcc	r7, sp, #108, 16	; 0x6c0000
 73c:	72707332 	rsbsvc	r7, r0, #-939524096	; 0xc8000000
 740:	62696c2f 	rsbvs	r6, r9, #12032	; 0x2f00
 744:	732f6970 			; <UNDEFINED> instruction: 0x732f6970
 748:	66666174 			; <UNDEFINED> instruction: 0x66666174
 74c:	6972702d 	ldmdbvs	r2!, {r0, r2, r3, r5, ip, sp, lr}^
 750:	65746176 	ldrbvs	r6, [r4, #-374]!	; 0xfffffe8a
 754:	75616200 	strbvc	r6, [r1, #-512]!	; 0xfffffe00
 758:	75610064 	strbvc	r0, [r1, #-100]!	; 0xffffff9c
 75c:	6e655f78 	mcrvs	15, 3, r5, cr5, cr8, {3}
 760:	656c6261 	strbvs	r6, [ip, #-609]!	; 0xfffffd9f
 764:	61750073 	cmnvs	r5, r3, ror r0
 768:	675f7472 			; <UNDEFINED> instruction: 0x675f7472
 76c:	00637465 	rsbeq	r7, r3, r5, ror #8
 770:	20554e47 	subscs	r4, r5, r7, asr #28
 774:	20393943 	eorscs	r3, r9, r3, asr #18
 778:	332e3031 			; <UNDEFINED> instruction: 0x332e3031
 77c:	3220312e 	eorcc	r3, r0, #-2147483637	; 0x8000000b
 780:	30313230 	eorscc	r3, r1, r0, lsr r2
 784:	20343238 	eorscs	r3, r4, r8, lsr r2
 788:	6c657228 	sfmvs	f7, 2, [r5], #-160	; 0xffffff60
 78c:	65736165 	ldrbvs	r6, [r3, #-357]!	; 0xfffffe9b
 790:	6d2d2029 	stcvs	0, cr2, [sp, #-164]!	; 0xffffff5c
 794:	3d757063 	ldclcc	0, cr7, [r5, #-396]!	; 0xfffffe74
 798:	316d7261 	cmncc	sp, r1, ror #4
 79c:	6a363731 	bvs	d8e468 <__bss_end__+0xd84b48>
 7a0:	732d667a 			; <UNDEFINED> instruction: 0x732d667a
 7a4:	746d2d20 	strbtvc	r2, [sp], #-3360	; 0xfffff2e0
 7a8:	3d656e75 	stclcc	14, cr6, [r5, #-468]!	; 0xfffffe2c
 7ac:	316d7261 	cmncc	sp, r1, ror #4
 7b0:	6a363731 	bvs	d8e47c <__bss_end__+0xd84b5c>
 7b4:	732d667a 			; <UNDEFINED> instruction: 0x732d667a
 7b8:	666d2d20 	strbtvs	r2, [sp], -r0, lsr #26
 7bc:	74616f6c 	strbtvc	r6, [r1], #-3948	; 0xfffff094
 7c0:	6962612d 	stmdbvs	r2!, {r0, r2, r3, r5, r8, sp, lr}^
 7c4:	666f733d 			; <UNDEFINED> instruction: 0x666f733d
 7c8:	6d2d2074 	stcvs	0, cr2, [sp, #-464]!	; 0xfffffe30
 7cc:	206d7261 	rsbcs	r7, sp, r1, ror #4
 7d0:	72616d2d 	rsbvc	r6, r1, #2880	; 0xb40
 7d4:	613d6863 	teqvs	sp, r3, ror #16
 7d8:	36766d72 			; <UNDEFINED> instruction: 0x36766d72
 7dc:	2d207a6b 	vstmdbcs	r0!, {s14-s120}
 7e0:	62646767 	rsbvs	r6, r4, #27000832	; 0x19c0000
 7e4:	674f2d20 	strbvs	r2, [pc, -r0, lsr #26]
 7e8:	74732d20 	ldrbtvc	r2, [r3], #-3360	; 0xfffff2e0
 7ec:	6e673d64 	cdpvs	13, 6, cr3, cr7, cr4, {3}
 7f0:	20393975 	eorscs	r3, r9, r5, ror r9
 7f4:	7266662d 	rsbvc	r6, r6, #47185920	; 0x2d00000
 7f8:	74736565 	ldrbtvc	r6, [r3], #-1381	; 0xfffffa9b
 7fc:	69646e61 	stmdbvs	r4!, {r0, r5, r6, r9, sl, fp, sp, lr}^
 800:	6300676e 	movwvs	r6, #1902	; 0x76e
 804:	006c746e 	rsbeq	r7, ip, lr, ror #8
 808:	74726175 	ldrbtvc	r6, [r2], #-373	; 0xfffffe8b
 80c:	7369645f 	cmnvc	r9, #1593835520	; 0x5f000000
 810:	656c6261 	strbvs	r6, [ip, #-609]!	; 0xfffffd9f
 814:	72617500 	rsbvc	r7, r1, #0, 10
 818:	61685f74 	smcvs	34292	; 0x85f4
 81c:	61645f73 	smcvs	17907	; 0x45f3
 820:	47006174 	smlsdxmi	r0, r4, r1, r6
 824:	5f4f4950 	svcpl	0x004f4950
 828:	434e5546 	movtmi	r5, #58694	; 0xe546
 82c:	544c415f 	strbpl	r4, [ip], #-351	; 0xfffffea1
 830:	726f0034 	rsbvc	r0, pc, #52, 0	; 0x34
 834:	336e695f 	cmncc	lr, #1556480	; 0x17c000
 838:	63730032 	cmnvs	r3, #50, 0	; 0x32
 83c:	63746172 	cmnvs	r4, #-2147483620	; 0x8000001c
 840:	61750068 	cmnvs	r5, r8, rrx
 844:	61007472 	tstvs	r0, r2, ror r4
 848:	695f646e 	ldmdbvs	pc, {r1, r2, r3, r5, r6, sl, sp, lr}^	; <UNPREDICTABLE>
 84c:	0032336e 	eorseq	r3, r2, lr, ror #6
 850:	4f495047 	svcmi	0x00495047
 854:	4e55465f 	mrcmi	6, 2, r4, cr5, cr15, {2}
 858:	4e495f43 	cdpmi	15, 4, cr5, cr9, cr3, {2}
 85c:	00545550 	subseq	r5, r4, r0, asr r5
 860:	6f697067 	svcvs	0x00697067
 864:	7465735f 	strbtvc	r7, [r5], #-863	; 0xfffffca1
 868:	6e75665f 	mrcvs	6, 3, r6, cr5, cr15, {2}
 86c:	6f697463 	svcvs	0x00697463
 870:	6567006e 	strbvs	r0, [r7, #-110]!	; 0xffffff92
 874:	00323374 	eorseq	r3, r2, r4, ror r3
 878:	74736564 	ldrbtvc	r6, [r3], #-1380	; 0xfffffa9c
 87c:	6c2f2e00 	stcvs	14, cr2, [pc], #-0	; 884 <__code_start__-0x777c>
 880:	2f636269 	svccs	0x00636269
 884:	63727473 	cmnvs	r2, #1929379840	; 0x73000000
 888:	632e7461 			; <UNDEFINED> instruction: 0x632e7461
 88c:	6c2f2e00 	stcvs	14, cr2, [pc], #-0	; 894 <__code_start__-0x776c>
 890:	2f636269 	svccs	0x00636269
 894:	63727473 	cmnvs	r2, #1929379840	; 0x73000000
 898:	632e706d 			; <UNDEFINED> instruction: 0x632e706d
 89c:	6c2f2e00 	stcvs	14, cr2, [pc], #-0	; 8a4 <__code_start__-0x775c>
 8a0:	2f636269 	svccs	0x00636269
 8a4:	63727473 	cmnvs	r2, #1929379840	; 0x73000000
 8a8:	632e7970 			; <UNDEFINED> instruction: 0x632e7970
 8ac:	7a697300 	bvc	1a5d4b4 <__bss_end__+0x1a53b94>
 8b0:	00745f65 	rsbseq	r5, r4, r5, ror #30
 8b4:	696c2f2e 	stmdbvs	ip!, {r1, r2, r3, r5, r8, r9, sl, fp, sp}^
 8b8:	732f6362 			; <UNDEFINED> instruction: 0x732f6362
 8bc:	636e7274 	cmnvs	lr, #116, 4	; 0x40000007
 8c0:	632e706d 			; <UNDEFINED> instruction: 0x632e706d
 8c4:	732f2e00 			; <UNDEFINED> instruction: 0x732f2e00
 8c8:	66666174 			; <UNDEFINED> instruction: 0x66666174
 8cc:	6372732d 	cmnvs	r2, #-1275068416	; 0xb4000000
 8d0:	6665642f 	strbtvs	r6, [r5], -pc, lsr #8
 8d4:	746c7561 	strbtvc	r7, [ip], #-1377	; 0xfffffa9f
 8d8:	6265722d 	rsbvs	r7, r5, #-805306366	; 0xd0000002
 8dc:	2d746f6f 	ldclcs	15, cr6, [r4, #-444]!	; 0xfffffe44
 8e0:	6c6c6163 	stfvse	f6, [ip], #-396	; 0xfffffe74
 8e4:	2e74756f 	cdpcs	5, 7, cr7, cr4, cr15, {3}
 8e8:	70670063 	rsbvc	r0, r7, r3, rrx
 8ec:	635f6f69 	cmpvs	pc, #420	; 0x1a4
 8f0:	0030726c 	eorseq	r7, r0, ip, ror #4
 8f4:	6f697067 	svcvs	0x00697067
 8f8:	7465735f 	strbtvc	r7, [r5], #-863	; 0xfffffca1
 8fc:	70670030 	rsbvc	r0, r7, r0, lsr r0
 900:	775f6f69 	ldrbvc	r6, [pc, -r9, ror #30]
 904:	65746972 	ldrbvs	r6, [r4, #-2418]!	; 0xfffff68e
 908:	56454400 	strbpl	r4, [r5], -r0, lsl #8
 90c:	4c41565f 	mcrrmi	6, 5, r5, r1, cr15
 910:	67003233 	smladxvs	r0, r3, r2, r3
 914:	5f6f6970 	svcpl	0x006f6970
 918:	64616572 	strbtvs	r6, [r1], #-1394	; 0xfffffa8e
 91c:	69706700 	ldmdbvs	r0!, {r8, r9, sl, sp, lr}^
 920:	65735f6f 	ldrbvs	r5, [r3, #-3951]!	; 0xfffff091
 924:	6e695f74 	mcrvs	15, 3, r5, cr9, cr4, {3}
 928:	00747570 	rsbseq	r7, r4, r0, ror r5
 92c:	6f697067 	svcvs	0x00697067
 930:	7465735f 	strbtvc	r7, [r5], #-863	; 0xfffffca1
 934:	66666f5f 	uqsaxvs	r6, r6, pc	; <UNPREDICTABLE>
 938:	69706700 	ldmdbvs	r0!, {r8, r9, sl, sp, lr}^
 93c:	65735f6f 	ldrbvs	r5, [r3, #-3951]!	; 0xfffff091
 940:	756f5f74 	strbvc	r5, [pc, #-3956]!	; fffff9d4 <__bss_end__+0xffff60b4>
 944:	74757074 	ldrbtvc	r7, [r5], #-116	; 0xffffff8c
 948:	6e756600 	cdpvs	6, 7, cr6, cr5, cr0, {0}
 94c:	70670063 	rsbvc	r0, r7, r3, rrx
 950:	665f6f69 	ldrbvs	r6, [pc], -r9, ror #30
 954:	5f636e75 	svcpl	0x00636e75
 958:	70670074 	rsbvc	r0, r7, r4, ror r0
 95c:	6c5f6f69 	mrrcvs	15, 6, r6, pc, cr9	; <UNPREDICTABLE>
 960:	00307665 	eorseq	r7, r0, r5, ror #12
 964:	6b6e6162 	blvs	1b98ef4 <__bss_end__+0x1b8f5d4>
 968:	69706700 	ldmdbvs	r0!, {r8, r9, sl, sp, lr}^
 96c:	00632e6f 	rsbeq	r2, r3, pc, ror #28
 970:	6f697067 	svcvs	0x00697067
 974:	7465735f 	strbtvc	r7, [r5], #-863	; 0xfffffca1
 978:	006e6f5f 	rsbeq	r6, lr, pc, asr pc

Disassembly of section .debug_frame:

00000000 <.debug_frame>:
   0:	0000000c 	andeq	r0, r0, ip
   4:	ffffffff 			; <UNDEFINED> instruction: 0xffffffff
   8:	7c020001 	stcvc	0, cr0, [r2], {1}
   c:	000d0c0e 	andeq	r0, sp, lr, lsl #24
  10:	00000020 	andeq	r0, r0, r0, lsr #32
  14:	00000000 	andeq	r0, r0, r0
  18:	00008038 	andeq	r8, r0, r8, lsr r0
  1c:	00000114 	andeq	r0, r0, r4, lsl r1
  20:	84140e42 	ldrhi	r0, [r4], #-3650	; 0xfffff1be
  24:	86048505 	strhi	r8, [r4], -r5, lsl #10
  28:	8e028703 	cdphi	7, 0, cr8, cr2, cr3, {0}
  2c:	280e4201 	stmdacs	lr, {r0, r9, lr}
  30:	140e7a02 	strne	r7, [lr], #-2562	; 0xfffff5fe
  34:	0000001c 	andeq	r0, r0, ip, lsl r0
  38:	00000000 	andeq	r0, r0, r0
  3c:	0000814c 	andeq	r8, r0, ip, asr #2
  40:	0000008c 	andeq	r0, r0, ip, lsl #1
  44:	840c0e42 	strhi	r0, [ip], #-3650	; 0xfffff1be
  48:	8e028503 	cfsh32hi	mvfx8, mvfx2, #3
  4c:	180e4201 	stmdane	lr, {r0, r9, lr}
  50:	000c0e74 	andeq	r0, ip, r4, ror lr
  54:	0000000c 	andeq	r0, r0, ip
  58:	ffffffff 			; <UNDEFINED> instruction: 0xffffffff
  5c:	7c020001 	stcvc	0, cr0, [r2], {1}
  60:	000d0c0e 	andeq	r0, sp, lr, lsl #24
  64:	00000014 	andeq	r0, r0, r4, lsl r0
  68:	00000054 	andeq	r0, r0, r4, asr r0
  6c:	000081d8 	ldrdeq	r8, [r0], -r8	; <UNPREDICTABLE>
  70:	0000009c 	muleq	r0, ip, r0
  74:	8e040e76 	mcrhi	14, 0, r0, cr4, cr6, {3}
  78:	00000001 	andeq	r0, r0, r1
  7c:	00000018 	andeq	r0, r0, r8, lsl r0
  80:	00000054 	andeq	r0, r0, r4, asr r0
  84:	00008274 	andeq	r8, r0, r4, ror r2
  88:	00000018 	andeq	r0, r0, r8, lsl r0
  8c:	8e040e42 	cdphi	14, 0, cr0, cr4, cr2, {2}
  90:	280e4201 	stmdacs	lr, {r0, r9, lr}
  94:	00040e46 	andeq	r0, r4, r6, asr #28
  98:	00000018 	andeq	r0, r0, r8, lsl r0
  9c:	00000054 	andeq	r0, r0, r4, asr r0
  a0:	0000828c 	andeq	r8, r0, ip, lsl #5
  a4:	00000060 	andeq	r0, r0, r0, rrx
  a8:	84100e42 	ldrhi	r0, [r0], #-3650	; 0xfffff1be
  ac:	86038504 	strhi	r8, [r3], -r4, lsl #10
  b0:	00018e02 	andeq	r8, r1, r2, lsl #28
  b4:	00000018 	andeq	r0, r0, r8, lsl r0
  b8:	00000054 	andeq	r0, r0, r4, asr r0
  bc:	000082ec 	andeq	r8, r0, ip, ror #5
  c0:	00000110 	andeq	r0, r0, r0, lsl r1
  c4:	84100e42 	ldrhi	r0, [r0], #-3650	; 0xfffff1be
  c8:	86038504 	strhi	r8, [r3], -r4, lsl #10
  cc:	00018e02 	andeq	r8, r1, r2, lsl #28
  d0:	00000014 	andeq	r0, r0, r4, lsl r0
  d4:	00000054 	andeq	r0, r0, r4, asr r0
  d8:	000083fc 	strdeq	r8, [r0], -ip
  dc:	0000003c 	andeq	r0, r0, ip, lsr r0
  e0:	84080e42 	strhi	r0, [r8], #-3650	; 0xfffff1be
  e4:	00018e02 	andeq	r8, r1, r2, lsl #28
  e8:	00000018 	andeq	r0, r0, r8, lsl r0
  ec:	00000054 	andeq	r0, r0, r4, asr r0
  f0:	00008438 	andeq	r8, r0, r8, lsr r4
  f4:	00000130 	andeq	r0, r0, r0, lsr r1
  f8:	84100e42 	ldrhi	r0, [r0], #-3650	; 0xfffff1be
  fc:	86038504 	strhi	r8, [r3], -r4, lsl #10
 100:	00018e02 	andeq	r8, r1, r2, lsl #28
 104:	0000000c 	andeq	r0, r0, ip
 108:	ffffffff 			; <UNDEFINED> instruction: 0xffffffff
 10c:	7c020001 	stcvc	0, cr0, [r2], {1}
 110:	000d0c0e 	andeq	r0, sp, lr, lsl #24
 114:	00000034 	andeq	r0, r0, r4, lsr r0
 118:	00000104 	andeq	r0, r0, r4, lsl #2
 11c:	00008568 	andeq	r8, r0, r8, ror #10
 120:	00000058 	andeq	r0, r0, r8, asr r0
 124:	80100e42 	andshi	r0, r0, r2, asr #28
 128:	82038104 	andhi	r8, r3, #1
 12c:	42018302 	andmi	r8, r1, #134217728	; 0x8000000
 130:	07841c0e 	streq	r1, [r4, lr, lsl #24]
 134:	058e0685 	streq	r0, [lr, #1669]	; 0x685
 138:	5c280e42 	stcpl	14, cr0, [r8], #-264	; 0xfffffef8
 13c:	ce421c0e 	cdpgt	12, 4, cr1, cr2, cr14, {0}
 140:	100ec4c5 	andne	ip, lr, r5, asr #9
 144:	c1c2c342 	bicgt	ip, r2, r2, asr #6
 148:	00000ec0 	andeq	r0, r0, r0, asr #29
 14c:	0000000c 	andeq	r0, r0, ip
 150:	ffffffff 			; <UNDEFINED> instruction: 0xffffffff
 154:	7c020001 	stcvc	0, cr0, [r2], {1}
 158:	000d0c0e 	andeq	r0, sp, lr, lsl #24
 15c:	00000014 	andeq	r0, r0, r4, lsl r0
 160:	0000014c 	andeq	r0, r0, ip, asr #2
 164:	000085c0 	andeq	r8, r0, r0, asr #11
 168:	00000014 	andeq	r0, r0, r4, lsl r0
 16c:	84080e42 	strhi	r0, [r8], #-3650	; 0xfffff1be
 170:	00018e02 	andeq	r8, r1, r2, lsl #28
 174:	0000000c 	andeq	r0, r0, ip
 178:	0000014c 	andeq	r0, r0, ip, asr #2
 17c:	000085d4 	ldrdeq	r8, [r0], -r4
 180:	00000018 	andeq	r0, r0, r8, lsl r0
 184:	0000000c 	andeq	r0, r0, ip
 188:	0000014c 	andeq	r0, r0, ip, asr #2
 18c:	000085ec 	andeq	r8, r0, ip, ror #11
 190:	00000010 	andeq	r0, r0, r0, lsl r0
 194:	0000000c 	andeq	r0, r0, ip
 198:	ffffffff 			; <UNDEFINED> instruction: 0xffffffff
 19c:	7c020001 	stcvc	0, cr0, [r2], {1}
 1a0:	000d0c0e 	andeq	r0, sp, lr, lsl #24
 1a4:	00000014 	andeq	r0, r0, r4, lsl r0
 1a8:	00000194 	muleq	r0, r4, r1
 1ac:	000085fc 	strdeq	r8, [r0], -ip
 1b0:	00000034 	andeq	r0, r0, r4, lsr r0
 1b4:	84080e42 	strhi	r0, [r8], #-3650	; 0xfffff1be
 1b8:	00018e02 	andeq	r8, r1, r2, lsl #28
 1bc:	0000000c 	andeq	r0, r0, ip
 1c0:	ffffffff 			; <UNDEFINED> instruction: 0xffffffff
 1c4:	7c020001 	stcvc	0, cr0, [r2], {1}
 1c8:	000d0c0e 	andeq	r0, sp, lr, lsl #24
 1cc:	0000000c 	andeq	r0, r0, ip
 1d0:	000001bc 			; <UNDEFINED> instruction: 0x000001bc
 1d4:	00008630 	andeq	r8, r0, r0, lsr r6
 1d8:	00000014 	andeq	r0, r0, r4, lsl r0
 1dc:	0000000c 	andeq	r0, r0, ip
 1e0:	000001bc 			; <UNDEFINED> instruction: 0x000001bc
 1e4:	00008644 	andeq	r8, r0, r4, asr #12
 1e8:	00000024 	andeq	r0, r0, r4, lsr #32
 1ec:	0000000c 	andeq	r0, r0, ip
 1f0:	000001bc 			; <UNDEFINED> instruction: 0x000001bc
 1f4:	00008668 	andeq	r8, r0, r8, ror #12
 1f8:	00000038 	andeq	r0, r0, r8, lsr r0
 1fc:	00000024 	andeq	r0, r0, r4, lsr #32
 200:	000001bc 			; <UNDEFINED> instruction: 0x000001bc
 204:	000086a0 	andeq	r8, r0, r0, lsr #13
 208:	000001b4 			; <UNDEFINED> instruction: 0x000001b4
 20c:	84140e42 	ldrhi	r0, [r4], #-3650	; 0xfffff1be
 210:	86048505 	strhi	r8, [r4], -r5, lsl #10
 214:	8e028703 	cdphi	7, 0, cr8, cr2, cr3, {0}
 218:	600e4201 	andvs	r4, lr, r1, lsl #4
 21c:	0e0a9a02 	vmlaeq.f32	s18, s20, s4
 220:	000b4214 	andeq	r4, fp, r4, lsl r2
 224:	00000014 	andeq	r0, r0, r4, lsl r0
 228:	000001bc 			; <UNDEFINED> instruction: 0x000001bc
 22c:	00008854 	andeq	r8, r0, r4, asr r8
 230:	00000064 	andeq	r0, r0, r4, rrx
 234:	8e040e54 	mcrhi	14, 0, r0, cr4, cr4, {2}
 238:	100e4201 	andne	r4, lr, r1, lsl #4
 23c:	0000002c 	andeq	r0, r0, ip, lsr #32
 240:	000001bc 			; <UNDEFINED> instruction: 0x000001bc
 244:	000088b8 			; <UNDEFINED> instruction: 0x000088b8
 248:	000004b8 			; <UNDEFINED> instruction: 0x000004b8
 24c:	84240e42 	strthi	r0, [r4], #-3650	; 0xfffff1be
 250:	86088509 	strhi	r8, [r8], -r9, lsl #10
 254:	88068707 	stmdahi	r6, {r0, r1, r2, r8, r9, sl, pc}
 258:	8a048905 	bhi	122674 <__bss_end__+0x118d54>
 25c:	8e028b03 	vmlahi.f64	d8, d2, d3
 260:	b80e4201 	stmdalt	lr, {r0, r9, lr}
 264:	02380302 	eorseq	r0, r8, #134217728	; 0x8000000
 268:	0000240e 	andeq	r2, r0, lr, lsl #8
 26c:	0000000c 	andeq	r0, r0, ip
 270:	ffffffff 			; <UNDEFINED> instruction: 0xffffffff
 274:	7c020001 	stcvc	0, cr0, [r2], {1}
 278:	000d0c0e 	andeq	r0, sp, lr, lsl #24
 27c:	00000014 	andeq	r0, r0, r4, lsl r0
 280:	0000026c 	andeq	r0, r0, ip, ror #4
 284:	00008d70 	andeq	r8, r0, r0, ror sp
 288:	0000002c 	andeq	r0, r0, ip, lsr #32
 28c:	84080e42 	strhi	r0, [r8], #-3650	; 0xfffff1be
 290:	00018e02 	andeq	r8, r1, r2, lsl #28
 294:	0000000c 	andeq	r0, r0, ip
 298:	ffffffff 			; <UNDEFINED> instruction: 0xffffffff
 29c:	7c020001 	stcvc	0, cr0, [r2], {1}
 2a0:	000d0c0e 	andeq	r0, sp, lr, lsl #24
 2a4:	00000014 	andeq	r0, r0, r4, lsl r0
 2a8:	00000294 	muleq	r0, r4, r2
 2ac:	00008d9c 	muleq	r0, ip, sp
 2b0:	0000003c 	andeq	r0, r0, ip, lsr r0
 2b4:	84080e42 	strhi	r0, [r8], #-3650	; 0xfffff1be
 2b8:	00018e02 	andeq	r8, r1, r2, lsl #28
 2bc:	0000000c 	andeq	r0, r0, ip
 2c0:	ffffffff 			; <UNDEFINED> instruction: 0xffffffff
 2c4:	7c020001 	stcvc	0, cr0, [r2], {1}
 2c8:	000d0c0e 	andeq	r0, sp, lr, lsl #24
 2cc:	0000000c 	andeq	r0, r0, ip
 2d0:	000002bc 			; <UNDEFINED> instruction: 0x000002bc
 2d4:	00008dd8 	ldrdeq	r8, [r0], -r8	; <UNPREDICTABLE>
 2d8:	00000004 	andeq	r0, r0, r4
 2dc:	0000000c 	andeq	r0, r0, ip
 2e0:	ffffffff 			; <UNDEFINED> instruction: 0xffffffff
 2e4:	7c020001 	stcvc	0, cr0, [r2], {1}
 2e8:	000d0c0e 	andeq	r0, sp, lr, lsl #24
 2ec:	0000000c 	andeq	r0, r0, ip
 2f0:	000002dc 	ldrdeq	r0, [r0], -ip
 2f4:	00008ddc 	ldrdeq	r8, [r0], -ip
 2f8:	00000018 	andeq	r0, r0, r8, lsl r0
 2fc:	0000000c 	andeq	r0, r0, ip
 300:	000002dc 	ldrdeq	r0, [r0], -ip
 304:	00008df4 	strdeq	r8, [r0], -r4
 308:	00000014 	andeq	r0, r0, r4, lsl r0
 30c:	00000014 	andeq	r0, r0, r4, lsl r0
 310:	000002dc 	ldrdeq	r0, [r0], -ip
 314:	00008e08 	andeq	r8, r0, r8, lsl #28
 318:	00000054 	andeq	r0, r0, r4, asr r0
 31c:	84080e42 	strhi	r0, [r8], #-3650	; 0xfffff1be
 320:	00018e02 	andeq	r8, r1, r2, lsl #28
 324:	0000000c 	andeq	r0, r0, ip
 328:	ffffffff 			; <UNDEFINED> instruction: 0xffffffff
 32c:	7c020001 	stcvc	0, cr0, [r2], {1}
 330:	000d0c0e 	andeq	r0, sp, lr, lsl #24
 334:	00000014 	andeq	r0, r0, r4, lsl r0
 338:	00000324 	andeq	r0, r0, r4, lsr #6
 33c:	00008e5c 	andeq	r8, r0, ip, asr lr
 340:	00000014 	andeq	r0, r0, r4, lsl r0
 344:	84080e42 	strhi	r0, [r8], #-3650	; 0xfffff1be
 348:	00018e02 	andeq	r8, r1, r2, lsl #28
 34c:	00000014 	andeq	r0, r0, r4, lsl r0
 350:	00000324 	andeq	r0, r0, r4, lsr #6
 354:	00008e70 	andeq	r8, r0, r0, ror lr
 358:	0000001c 	andeq	r0, r0, ip, lsl r0
 35c:	84080e42 	strhi	r0, [r8], #-3650	; 0xfffff1be
 360:	00018e02 	andeq	r8, r1, r2, lsl #28
 364:	00000018 	andeq	r0, r0, r8, lsl r0
 368:	00000324 	andeq	r0, r0, r4, lsr #6
 36c:	00008e8c 	andeq	r8, r0, ip, lsl #29
 370:	00000024 	andeq	r0, r0, r4, lsr #32
 374:	84100e42 	ldrhi	r0, [r0], #-3650	; 0xfffff1be
 378:	86038504 	strhi	r8, [r3], -r4, lsl #10
 37c:	00018e02 	andeq	r8, r1, r2, lsl #28
 380:	00000014 	andeq	r0, r0, r4, lsl r0
 384:	00000324 	andeq	r0, r0, r4, lsr #6
 388:	00008eb0 			; <UNDEFINED> instruction: 0x00008eb0
 38c:	00000018 	andeq	r0, r0, r8, lsl r0
 390:	84080e42 	strhi	r0, [r8], #-3650	; 0xfffff1be
 394:	00018e02 	andeq	r8, r1, r2, lsl #28
 398:	00000014 	andeq	r0, r0, r4, lsl r0
 39c:	00000324 	andeq	r0, r0, r4, lsr #6
 3a0:	00008ec8 	andeq	r8, r0, r8, asr #29
 3a4:	00000018 	andeq	r0, r0, r8, lsl r0
 3a8:	84080e42 	strhi	r0, [r8], #-3650	; 0xfffff1be
 3ac:	00018e02 	andeq	r8, r1, r2, lsl #28
 3b0:	0000000c 	andeq	r0, r0, ip
 3b4:	ffffffff 			; <UNDEFINED> instruction: 0xffffffff
 3b8:	7c020001 	stcvc	0, cr0, [r2], {1}
 3bc:	000d0c0e 	andeq	r0, sp, lr, lsl #24
 3c0:	00000018 	andeq	r0, r0, r8, lsl r0
 3c4:	000003b0 			; <UNDEFINED> instruction: 0x000003b0
 3c8:	00008ee0 	andeq	r8, r0, r0, ror #29
 3cc:	00000020 	andeq	r0, r0, r0, lsr #32
 3d0:	84100e42 	ldrhi	r0, [r0], #-3650	; 0xfffff1be
 3d4:	86038504 	strhi	r8, [r3], -r4, lsl #10
 3d8:	00018e02 	andeq	r8, r1, r2, lsl #28
 3dc:	00000018 	andeq	r0, r0, r8, lsl r0
 3e0:	000003b0 			; <UNDEFINED> instruction: 0x000003b0
 3e4:	00008f00 	andeq	r8, r0, r0, lsl #30
 3e8:	00000020 	andeq	r0, r0, r0, lsr #32
 3ec:	84100e42 	ldrhi	r0, [r0], #-3650	; 0xfffff1be
 3f0:	86038504 	strhi	r8, [r3], -r4, lsl #10
 3f4:	00018e02 	andeq	r8, r1, r2, lsl #28
 3f8:	00000014 	andeq	r0, r0, r4, lsl r0
 3fc:	000003b0 			; <UNDEFINED> instruction: 0x000003b0
 400:	00008f20 	andeq	r8, r0, r0, lsr #30
 404:	000000b0 	strheq	r0, [r0], -r0	; <UNPREDICTABLE>
 408:	84080e42 	strhi	r0, [r8], #-3650	; 0xfffff1be
 40c:	00018e02 	andeq	r8, r1, r2, lsl #28
 410:	00000014 	andeq	r0, r0, r4, lsl r0
 414:	000003b0 			; <UNDEFINED> instruction: 0x000003b0
 418:	00008fd0 	ldrdeq	r8, [r0], -r0
 41c:	00000018 	andeq	r0, r0, r8, lsl r0
 420:	84080e42 	strhi	r0, [r8], #-3650	; 0xfffff1be
 424:	00018e02 	andeq	r8, r1, r2, lsl #28
 428:	00000014 	andeq	r0, r0, r4, lsl r0
 42c:	000003b0 			; <UNDEFINED> instruction: 0x000003b0
 430:	00008fe8 	andeq	r8, r0, r8, ror #31
 434:	00000020 	andeq	r0, r0, r0, lsr #32
 438:	84080e42 	strhi	r0, [r8], #-3650	; 0xfffff1be
 43c:	00018e02 	andeq	r8, r1, r2, lsl #28
 440:	00000014 	andeq	r0, r0, r4, lsl r0
 444:	000003b0 			; <UNDEFINED> instruction: 0x000003b0
 448:	00009008 	andeq	r9, r0, r8
 44c:	00000030 	andeq	r0, r0, r0, lsr r0
 450:	84080e42 	strhi	r0, [r8], #-3650	; 0xfffff1be
 454:	00018e02 	andeq	r8, r1, r2, lsl #28
 458:	00000014 	andeq	r0, r0, r4, lsl r0
 45c:	000003b0 			; <UNDEFINED> instruction: 0x000003b0
 460:	00009038 	andeq	r9, r0, r8, lsr r0
 464:	00000030 	andeq	r0, r0, r0, lsr r0
 468:	84080e42 	strhi	r0, [r8], #-3650	; 0xfffff1be
 46c:	00018e02 	andeq	r8, r1, r2, lsl #28
 470:	00000014 	andeq	r0, r0, r4, lsl r0
 474:	000003b0 			; <UNDEFINED> instruction: 0x000003b0
 478:	00009068 	andeq	r9, r0, r8, rrx
 47c:	00000010 	andeq	r0, r0, r0, lsl r0
 480:	84080e42 	strhi	r0, [r8], #-3650	; 0xfffff1be
 484:	00018e02 	andeq	r8, r1, r2, lsl #28
 488:	00000014 	andeq	r0, r0, r4, lsl r0
 48c:	000003b0 			; <UNDEFINED> instruction: 0x000003b0
 490:	00009078 	andeq	r9, r0, r8, ror r0
 494:	00000020 	andeq	r0, r0, r0, lsr #32
 498:	84080e42 	strhi	r0, [r8], #-3650	; 0xfffff1be
 49c:	00018e02 	andeq	r8, r1, r2, lsl #28
 4a0:	00000014 	andeq	r0, r0, r4, lsl r0
 4a4:	000003b0 			; <UNDEFINED> instruction: 0x000003b0
 4a8:	00009098 	muleq	r0, r8, r0
 4ac:	00000014 	andeq	r0, r0, r4, lsl r0
 4b0:	84080e42 	strhi	r0, [r8], #-3650	; 0xfffff1be
 4b4:	00018e02 	andeq	r8, r1, r2, lsl #28
 4b8:	00000014 	andeq	r0, r0, r4, lsl r0
 4bc:	000003b0 			; <UNDEFINED> instruction: 0x000003b0
 4c0:	000090ac 	andeq	r9, r0, ip, lsr #1
 4c4:	00000024 	andeq	r0, r0, r4, lsr #32
 4c8:	84080e42 	strhi	r0, [r8], #-3650	; 0xfffff1be
 4cc:	00018e02 	andeq	r8, r1, r2, lsl #28
 4d0:	0000000c 	andeq	r0, r0, ip
 4d4:	ffffffff 			; <UNDEFINED> instruction: 0xffffffff
 4d8:	7c020001 	stcvc	0, cr0, [r2], {1}
 4dc:	000d0c0e 	andeq	r0, sp, lr, lsl #24
 4e0:	0000000c 	andeq	r0, r0, ip
 4e4:	000004d0 	ldrdeq	r0, [r0], -r0	; <UNPREDICTABLE>
 4e8:	000090d0 	ldrdeq	r9, [r0], -r0
 4ec:	00000034 	andeq	r0, r0, r4, lsr r0
 4f0:	0000000c 	andeq	r0, r0, ip
 4f4:	ffffffff 			; <UNDEFINED> instruction: 0xffffffff
 4f8:	7c020001 	stcvc	0, cr0, [r2], {1}
 4fc:	000d0c0e 	andeq	r0, sp, lr, lsl #24
 500:	0000000c 	andeq	r0, r0, ip
 504:	000004f0 	strdeq	r0, [r0], -r0	; <UNPREDICTABLE>
 508:	00009104 	andeq	r9, r0, r4, lsl #2
 50c:	0000002c 	andeq	r0, r0, ip, lsr #32
 510:	0000000c 	andeq	r0, r0, ip
 514:	ffffffff 			; <UNDEFINED> instruction: 0xffffffff
 518:	7c020001 	stcvc	0, cr0, [r2], {1}
 51c:	000d0c0e 	andeq	r0, sp, lr, lsl #24
 520:	0000000c 	andeq	r0, r0, ip
 524:	00000510 	andeq	r0, r0, r0, lsl r5
 528:	00009130 	andeq	r9, r0, r0, lsr r1
 52c:	00000020 	andeq	r0, r0, r0, lsr #32
 530:	0000000c 	andeq	r0, r0, ip
 534:	ffffffff 			; <UNDEFINED> instruction: 0xffffffff
 538:	7c020001 	stcvc	0, cr0, [r2], {1}
 53c:	000d0c0e 	andeq	r0, sp, lr, lsl #24
 540:	0000000c 	andeq	r0, r0, ip
 544:	00000530 	andeq	r0, r0, r0, lsr r5
 548:	00009150 	andeq	r9, r0, r0, asr r1
 54c:	0000002c 	andeq	r0, r0, ip, lsr #32
 550:	0000000c 	andeq	r0, r0, ip
 554:	ffffffff 			; <UNDEFINED> instruction: 0xffffffff
 558:	7c020001 	stcvc	0, cr0, [r2], {1}
 55c:	000d0c0e 	andeq	r0, sp, lr, lsl #24
 560:	0000000c 	andeq	r0, r0, ip
 564:	00000550 	andeq	r0, r0, r0, asr r5
 568:	0000917c 	andeq	r9, r0, ip, ror r1
 56c:	00000004 	andeq	r0, r0, r4
 570:	0000000c 	andeq	r0, r0, ip
 574:	ffffffff 			; <UNDEFINED> instruction: 0xffffffff
 578:	7c020001 	stcvc	0, cr0, [r2], {1}
 57c:	000d0c0e 	andeq	r0, sp, lr, lsl #24
 580:	00000018 	andeq	r0, r0, r8, lsl r0
 584:	00000570 	andeq	r0, r0, r0, ror r5
 588:	00009198 	muleq	r0, r8, r1
 58c:	00000064 	andeq	r0, r0, r4, rrx
 590:	84100e46 	ldrhi	r0, [r0], #-3654	; 0xfffff1ba
 594:	86038504 	strhi	r8, [r3], -r4, lsl #10
 598:	00018e02 	andeq	r8, r1, r2, lsl #28
 59c:	00000014 	andeq	r0, r0, r4, lsl r0
 5a0:	00000570 	andeq	r0, r0, r0, ror r5
 5a4:	000091fc 	strdeq	r9, [r0], -ip
 5a8:	00000010 	andeq	r0, r0, r0, lsl r0
 5ac:	84080e42 	strhi	r0, [r8], #-3650	; 0xfffff1be
 5b0:	00018e02 	andeq	r8, r1, r2, lsl #28
 5b4:	00000014 	andeq	r0, r0, r4, lsl r0
 5b8:	00000570 	andeq	r0, r0, r0, ror r5
 5bc:	0000920c 	andeq	r9, r0, ip, lsl #4
 5c0:	00000024 	andeq	r0, r0, r4, lsr #32
 5c4:	84080e46 	strhi	r0, [r8], #-3654	; 0xfffff1ba
 5c8:	00018e02 	andeq	r8, r1, r2, lsl #28
 5cc:	00000014 	andeq	r0, r0, r4, lsl r0
 5d0:	00000570 	andeq	r0, r0, r0, ror r5
 5d4:	00009230 	andeq	r9, r0, r0, lsr r2
 5d8:	00000024 	andeq	r0, r0, r4, lsr #32
 5dc:	84080e46 	strhi	r0, [r8], #-3654	; 0xfffff1ba
 5e0:	00018e02 	andeq	r8, r1, r2, lsl #28
 5e4:	00000014 	andeq	r0, r0, r4, lsl r0
 5e8:	00000570 	andeq	r0, r0, r0, ror r5
 5ec:	00009254 	andeq	r9, r0, r4, asr r2
 5f0:	00000010 	andeq	r0, r0, r0, lsl r0
 5f4:	84080e42 	strhi	r0, [r8], #-3650	; 0xfffff1be
 5f8:	00018e02 	andeq	r8, r1, r2, lsl #28
 5fc:	00000014 	andeq	r0, r0, r4, lsl r0
 600:	00000570 	andeq	r0, r0, r0, ror r5
 604:	00009264 	andeq	r9, r0, r4, ror #4
 608:	0000001c 	andeq	r0, r0, ip, lsl r0
 60c:	84080e42 	strhi	r0, [r8], #-3650	; 0xfffff1be
 610:	00018e02 	andeq	r8, r1, r2, lsl #28
 614:	00000018 	andeq	r0, r0, r8, lsl r0
 618:	00000570 	andeq	r0, r0, r0, ror r5
 61c:	00009280 	andeq	r9, r0, r0, lsl #5
 620:	00000034 	andeq	r0, r0, r4, lsr r0
 624:	84080e46 	strhi	r0, [r8], #-3654	; 0xfffff1ba
 628:	4e018e02 	cdpmi	14, 0, cr8, cr1, cr2, {0}
 62c:	cec4000e 	cdpgt	0, 12, cr0, cr4, cr14, {0}
