
int-compile.elf:     file format elf32-littlearm


Disassembly of section .text:

00008000 <__code_start__>:
    8000:	e3a00013 	mov	r0, #19, 0
    8004:	e3800080 	orr	r0, r0, #128, 0	; 0x80
    8008:	e129f000 	msr	CPSR_fc, r0
    800c:	e3a01000 	mov	r1, #0, 0
    8010:	ee071f95 	mcr	15, 0, r1, cr7, cr5, {4}
    8014:	e3a0d302 	mov	sp, #134217728	; 0x8000000
    8018:	e3a0b000 	mov	fp, #0, 0
    801c:	eb0002f4 	bl	8bf4 <_cstart>
    8020:	eb00030e 	bl	8c60 <rpi_reboot>

00008024 <PUT32>:
    8024:	e5801000 	str	r1, [r0]
    8028:	e12fff1e 	bx	lr

0000802c <GET32>:
    802c:	e5900000 	ldr	r0, [r0]
    8030:	e12fff1e 	bx	lr

00008034 <BRANCHTO>:
    8034:	e12fff10 	bx	r0

00008038 <int_0>:
    8038:	e59f200c 	ldr	r2, [pc, #12]	; 804c <int_0+0x14>
    803c:	e5923000 	ldr	r3, [r2]
    8040:	e2833001 	add	r3, r3, #1, 0
    8044:	e5823000 	str	r3, [r2]
    8048:	e12fff1e 	bx	lr
    804c:	000093a8 	andeq	r9, r0, r8, lsr #7

00008050 <int_1>:
    8050:	e59f200c 	ldr	r2, [pc, #12]	; 8064 <int_1+0x14>
    8054:	e5923000 	ldr	r3, [r2]
    8058:	e2833001 	add	r3, r3, #1, 0
    805c:	e5823000 	str	r3, [r2]
    8060:	e12fff1e 	bx	lr
    8064:	000093a8 	andeq	r9, r0, r8, lsr #7

00008068 <int_2>:
    8068:	e59f200c 	ldr	r2, [pc, #12]	; 807c <int_2+0x14>
    806c:	e5923000 	ldr	r3, [r2]
    8070:	e2833001 	add	r3, r3, #1, 0
    8074:	e5823000 	str	r3, [r2]
    8078:	e12fff1e 	bx	lr
    807c:	000093a8 	andeq	r9, r0, r8, lsr #7

00008080 <int_3>:
    8080:	e59f200c 	ldr	r2, [pc, #12]	; 8094 <int_3+0x14>
    8084:	e5923000 	ldr	r3, [r2]
    8088:	e2833001 	add	r3, r3, #1, 0
    808c:	e5823000 	str	r3, [r2]
    8090:	e12fff1e 	bx	lr
    8094:	000093a8 	andeq	r9, r0, r8, lsr #7

00008098 <int_4>:
    8098:	e59f200c 	ldr	r2, [pc, #12]	; 80ac <int_4+0x14>
    809c:	e5923000 	ldr	r3, [r2]
    80a0:	e2833001 	add	r3, r3, #1, 0
    80a4:	e5823000 	str	r3, [r2]
    80a8:	e12fff1e 	bx	lr
    80ac:	000093a8 	andeq	r9, r0, r8, lsr #7

000080b0 <int_5>:
    80b0:	e59f200c 	ldr	r2, [pc, #12]	; 80c4 <int_5+0x14>
    80b4:	e5923000 	ldr	r3, [r2]
    80b8:	e2833001 	add	r3, r3, #1, 0
    80bc:	e5823000 	str	r3, [r2]
    80c0:	e12fff1e 	bx	lr
    80c4:	000093a8 	andeq	r9, r0, r8, lsr #7

000080c8 <int_6>:
    80c8:	e59f200c 	ldr	r2, [pc, #12]	; 80dc <int_6+0x14>
    80cc:	e5923000 	ldr	r3, [r2]
    80d0:	e2833001 	add	r3, r3, #1, 0
    80d4:	e5823000 	str	r3, [r2]
    80d8:	e12fff1e 	bx	lr
    80dc:	000093a8 	andeq	r9, r0, r8, lsr #7

000080e0 <int_7>:
    80e0:	e59f200c 	ldr	r2, [pc, #12]	; 80f4 <int_7+0x14>
    80e4:	e5923000 	ldr	r3, [r2]
    80e8:	e2833001 	add	r3, r3, #1, 0
    80ec:	e5823000 	str	r3, [r2]
    80f0:	e12fff1e 	bx	lr
    80f4:	000093a8 	andeq	r9, r0, r8, lsr #7

000080f8 <int_compile>:
    80f8:	e92d4030 	push	{r4, r5, lr}
    80fc:	e1a05000 	mov	r5, r0
    8100:	e59f3094 	ldr	r3, [pc, #148]	; 819c <int_compile+0xa4>
    8104:	e59f2094 	ldr	r2, [pc, #148]	; 81a0 <int_compile+0xa8>
    8108:	e5832004 	str	r2, [r3, #4]
    810c:	e3a0e000 	mov	lr, #0, 0
    8110:	e3a0c001 	mov	ip, #1, 0
    8114:	e2413001 	sub	r3, r1, #1, 0
    8118:	e153000e 	cmp	r3, lr
    811c:	9a00000d 	bls	8158 <int_compile+0x60>
    8120:	e59f2074 	ldr	r2, [pc, #116]	; 819c <int_compile+0xa4>
    8124:	e2823004 	add	r3, r2, #4, 0
    8128:	e083410c 	add	r4, r3, ip, lsl #2
    812c:	e795310e 	ldr	r3, [r5, lr, lsl #2]
    8130:	e0433004 	sub	r3, r3, r4
    8134:	e2433008 	sub	r3, r3, #8, 0
    8138:	e1a03143 	asr	r3, r3, #2
    813c:	e3c334ff 	bic	r3, r3, #-16777216	; 0xff000000
    8140:	e38334eb 	orr	r3, r3, #-352321536	; 0xeb000000
    8144:	e082210c 	add	r2, r2, ip, lsl #2
    8148:	e5823004 	str	r3, [r2, #4]
    814c:	e28ee001 	add	lr, lr, #1, 0
    8150:	e28cc001 	add	ip, ip, #1, 0
    8154:	eaffffee 	b	8114 <int_compile+0x1c>
    8158:	e28ce001 	add	lr, ip, #1, 0
    815c:	e59f2038 	ldr	r2, [pc, #56]	; 819c <int_compile+0xa4>
    8160:	e082c10c 	add	ip, r2, ip, lsl #2
    8164:	e59f3038 	ldr	r3, [pc, #56]	; 81a4 <int_compile+0xac>
    8168:	e58c3004 	str	r3, [ip, #4]
    816c:	e2820004 	add	r0, r2, #4, 0
    8170:	e080c10e 	add	ip, r0, lr, lsl #2
    8174:	e2411107 	sub	r1, r1, #-1073741823	; 0xc0000001
    8178:	e7953101 	ldr	r3, [r5, r1, lsl #2]
    817c:	e043300c 	sub	r3, r3, ip
    8180:	e2433008 	sub	r3, r3, #8, 0
    8184:	e1a03143 	asr	r3, r3, #2
    8188:	e3c334ff 	bic	r3, r3, #-16777216	; 0xff000000
    818c:	e38334ea 	orr	r3, r3, #-369098752	; 0xea000000
    8190:	e082210e 	add	r2, r2, lr, lsl #2
    8194:	e5823004 	str	r3, [r2, #4]
    8198:	e8bd8030 	pop	{r4, r5, pc}
    819c:	000093a8 	andeq	r9, r0, r8, lsr #7
    81a0:	e92d4000 	stmfd	sp!, {lr}
    81a4:	e8bd4000 	ldmfd	sp!, {lr}

000081a8 <generic_call_int>:
    81a8:	e92d4070 	push	{r4, r5, r6, lr}
    81ac:	e1a06000 	mov	r6, r0
    81b0:	e1a05001 	mov	r5, r1
    81b4:	e3a04000 	mov	r4, #0, 0
    81b8:	e1540005 	cmp	r4, r5
    81bc:	28bd8070 	popcs	{r4, r5, r6, pc}
    81c0:	e7963104 	ldr	r3, [r6, r4, lsl #2]
    81c4:	e12fff33 	blx	r3
    81c8:	e2844001 	add	r4, r4, #1, 0
    81cc:	eafffff9 	b	81b8 <generic_call_int+0x10>

000081d0 <specialized_call_int>:
    81d0:	e92d4010 	push	{r4, lr}
    81d4:	e59f3008 	ldr	r3, [pc, #8]	; 81e4 <specialized_call_int+0x14>
    81d8:	e5933104 	ldr	r3, [r3, #260]	; 0x104
    81dc:	e12fff33 	blx	r3
    81e0:	e8bd8010 	pop	{r4, pc}
    81e4:	000093a8 	andeq	r9, r0, r8, lsr #7

000081e8 <notmain>:
    81e8:	e92d4030 	push	{r4, r5, lr}
    81ec:	e24dd034 	sub	sp, sp, #52, 0	; 0x34
    81f0:	e28dc010 	add	ip, sp, #16, 0
    81f4:	e59fe198 	ldr	lr, [pc, #408]	; 8394 <notmain+0x1ac>
    81f8:	e8be000f 	ldm	lr!, {r0, r1, r2, r3}
    81fc:	e8ac000f 	stmia	ip!, {r0, r1, r2, r3}
    8200:	e89e000f 	ldm	lr, {r0, r1, r2, r3}
    8204:	e88c000f 	stm	ip, {r0, r1, r2, r3}
    8208:	e3a03001 	mov	r3, #1, 0
    820c:	ee0f3f1c 	mcr	15, 0, r3, cr15, cr12, {0}
    8210:	e59f4180 	ldr	r4, [pc, #384]	; 8398 <notmain+0x1b0>
    8214:	e3a03000 	mov	r3, #0, 0
    8218:	e5843000 	str	r3, [r4]
    821c:	ee1f5f3c 	mrc	15, 0, r5, cr15, cr12, {1}
    8220:	e3a01008 	mov	r1, #8, 0
    8224:	e28d0010 	add	r0, sp, #16, 0
    8228:	ebffffde 	bl	81a8 <generic_call_int>
    822c:	e3a01008 	mov	r1, #8, 0
    8230:	e28d0010 	add	r0, sp, #16, 0
    8234:	ebffffdb 	bl	81a8 <generic_call_int>
    8238:	e3a01008 	mov	r1, #8, 0
    823c:	e28d0010 	add	r0, sp, #16, 0
    8240:	ebffffd8 	bl	81a8 <generic_call_int>
    8244:	e3a01008 	mov	r1, #8, 0
    8248:	e28d0010 	add	r0, sp, #16, 0
    824c:	ebffffd5 	bl	81a8 <generic_call_int>
    8250:	e3a01008 	mov	r1, #8, 0
    8254:	e28d0010 	add	r0, sp, #16, 0
    8258:	ebffffd2 	bl	81a8 <generic_call_int>
    825c:	e3a01008 	mov	r1, #8, 0
    8260:	e28d0010 	add	r0, sp, #16, 0
    8264:	ebffffcf 	bl	81a8 <generic_call_int>
    8268:	e3a01008 	mov	r1, #8, 0
    826c:	e28d0010 	add	r0, sp, #16, 0
    8270:	ebffffcc 	bl	81a8 <generic_call_int>
    8274:	e3a01008 	mov	r1, #8, 0
    8278:	e28d0010 	add	r0, sp, #16, 0
    827c:	ebffffc9 	bl	81a8 <generic_call_int>
    8280:	e3a01008 	mov	r1, #8, 0
    8284:	e28d0010 	add	r0, sp, #16, 0
    8288:	ebffffc6 	bl	81a8 <generic_call_int>
    828c:	e3a01008 	mov	r1, #8, 0
    8290:	e28d0010 	add	r0, sp, #16, 0
    8294:	ebffffc3 	bl	81a8 <generic_call_int>
    8298:	ee1f2f3c 	mrc	15, 0, r2, cr15, cr12, {1}
    829c:	e59f30f8 	ldr	r3, [pc, #248]	; 839c <notmain+0x1b4>
    82a0:	e0422005 	sub	r2, r2, r5
    82a4:	e59f10f4 	ldr	r1, [pc, #244]	; 83a0 <notmain+0x1b8>
    82a8:	e59f00f4 	ldr	r0, [pc, #244]	; 83a4 <notmain+0x1bc>
    82ac:	eb000043 	bl	83c0 <printk>
    82b0:	e5943000 	ldr	r3, [r4]
    82b4:	e3530050 	cmp	r3, #80, 0	; 0x50
    82b8:	0a00000c 	beq	82f0 <notmain+0x108>
    82bc:	eb00005a 	bl	842c <rpi_reset_putc>
    82c0:	e5943000 	ldr	r3, [r4]
    82c4:	e3a02050 	mov	r2, #80, 0	; 0x50
    82c8:	e58d2008 	str	r2, [sp, #8]
    82cc:	e58d3004 	str	r3, [sp, #4]
    82d0:	e59f30d0 	ldr	r3, [pc, #208]	; 83a8 <notmain+0x1c0>
    82d4:	e58d3000 	str	r3, [sp]
    82d8:	e3a03069 	mov	r3, #105, 0	; 0x69
    82dc:	e59f20c8 	ldr	r2, [pc, #200]	; 83ac <notmain+0x1c4>
    82e0:	e59f10c8 	ldr	r1, [pc, #200]	; 83b0 <notmain+0x1c8>
    82e4:	e59f00c8 	ldr	r0, [pc, #200]	; 83b4 <notmain+0x1cc>
    82e8:	eb000034 	bl	83c0 <printk>
    82ec:	eb000235 	bl	8bc8 <clean_reboot>
    82f0:	e3a01008 	mov	r1, #8, 0
    82f4:	e28d0010 	add	r0, sp, #16, 0
    82f8:	ebffff7e 	bl	80f8 <int_compile>
    82fc:	e59f4094 	ldr	r4, [pc, #148]	; 8398 <notmain+0x1b0>
    8300:	e5840104 	str	r0, [r4, #260]	; 0x104
    8304:	e3a03000 	mov	r3, #0, 0
    8308:	e5843000 	str	r3, [r4]
    830c:	ee1f5f3c 	mrc	15, 0, r5, cr15, cr12, {1}
    8310:	ebffffae 	bl	81d0 <specialized_call_int>
    8314:	ebffffad 	bl	81d0 <specialized_call_int>
    8318:	ebffffac 	bl	81d0 <specialized_call_int>
    831c:	ebffffab 	bl	81d0 <specialized_call_int>
    8320:	ebffffaa 	bl	81d0 <specialized_call_int>
    8324:	ebffffa9 	bl	81d0 <specialized_call_int>
    8328:	ebffffa8 	bl	81d0 <specialized_call_int>
    832c:	ebffffa7 	bl	81d0 <specialized_call_int>
    8330:	ebffffa6 	bl	81d0 <specialized_call_int>
    8334:	ebffffa5 	bl	81d0 <specialized_call_int>
    8338:	ee1f2f3c 	mrc	15, 0, r2, cr15, cr12, {1}
    833c:	e59f3074 	ldr	r3, [pc, #116]	; 83b8 <notmain+0x1d0>
    8340:	e0422005 	sub	r2, r2, r5
    8344:	e59f1070 	ldr	r1, [pc, #112]	; 83bc <notmain+0x1d4>
    8348:	e59f0054 	ldr	r0, [pc, #84]	; 83a4 <notmain+0x1bc>
    834c:	eb00001b 	bl	83c0 <printk>
    8350:	e5943000 	ldr	r3, [r4]
    8354:	e3530050 	cmp	r3, #80, 0	; 0x50
    8358:	0a00000c 	beq	8390 <notmain+0x1a8>
    835c:	eb000032 	bl	842c <rpi_reset_putc>
    8360:	e5943000 	ldr	r3, [r4]
    8364:	e3a02050 	mov	r2, #80, 0	; 0x50
    8368:	e58d2008 	str	r2, [sp, #8]
    836c:	e58d3004 	str	r3, [sp, #4]
    8370:	e59f3030 	ldr	r3, [pc, #48]	; 83a8 <notmain+0x1c0>
    8374:	e58d3000 	str	r3, [sp]
    8378:	e3a03070 	mov	r3, #112, 0	; 0x70
    837c:	e59f2028 	ldr	r2, [pc, #40]	; 83ac <notmain+0x1c4>
    8380:	e59f1028 	ldr	r1, [pc, #40]	; 83b0 <notmain+0x1c8>
    8384:	e59f0028 	ldr	r0, [pc, #40]	; 83b4 <notmain+0x1cc>
    8388:	eb00000c 	bl	83c0 <printk>
    838c:	eb00020d 	bl	8bc8 <clean_reboot>
    8390:	eb00020c 	bl	8bc8 <clean_reboot>
    8394:	000091f0 	strdeq	r9, [r0], -r0
    8398:	000093a8 	andeq	r9, r0, r8, lsr #7
    839c:	00009110 	andeq	r9, r0, r0, lsl r1
    83a0:	0000912c 	andeq	r9, r0, ip, lsr #2
    83a4:	00009148 	andeq	r9, r0, r8, asr #2
    83a8:	000091ac 	andeq	r9, r0, ip, lsr #3
    83ac:	00009210 	andeq	r9, r0, r0, lsl r2
    83b0:	00009164 	andeq	r9, r0, r4, ror #2
    83b4:	00009174 	andeq	r9, r0, r4, ror r1
    83b8:	000091b8 			; <UNDEFINED> instruction: 0x000091b8
    83bc:	000091d0 	ldrdeq	r9, [r0], -r0

000083c0 <printk>:
    83c0:	e92d000f 	push	{r0, r1, r2, r3}
    83c4:	e92d4030 	push	{r4, r5, lr}
    83c8:	e24dd00c 	sub	sp, sp, #12, 0
    83cc:	e28d301c 	add	r3, sp, #28, 0
    83d0:	e58d3004 	str	r3, [sp, #4]
    83d4:	e59f5034 	ldr	r5, [pc, #52]	; 8410 <printk+0x50>
    83d8:	e59d2018 	ldr	r2, [sp, #24]
    83dc:	e3a01b01 	mov	r1, #1024	; 0x400
    83e0:	e1a00005 	mov	r0, r5
    83e4:	eb0000c9 	bl	8710 <va_printk>
    83e8:	e1a04000 	mov	r4, r0
    83ec:	e59f3020 	ldr	r3, [pc, #32]	; 8414 <printk+0x54>
    83f0:	e5933000 	ldr	r3, [r3]
    83f4:	e1a00005 	mov	r0, r5
    83f8:	e12fff33 	blx	r3
    83fc:	e1a00004 	mov	r0, r4
    8400:	e28dd00c 	add	sp, sp, #12, 0
    8404:	e8bd4030 	pop	{r4, r5, lr}
    8408:	e28dd010 	add	sp, sp, #16, 0
    840c:	e12fff1e 	bx	lr
    8410:	000094b0 			; <UNDEFINED> instruction: 0x000094b0
    8414:	000093a4 	andeq	r9, r0, r4, lsr #7

00008418 <internal_putchar>:
    8418:	e92d4010 	push	{r4, lr}
    841c:	e1a04000 	mov	r4, r0
    8420:	eb00029a 	bl	8e90 <uart_putc>
    8424:	e1a00004 	mov	r0, r4
    8428:	e8bd8010 	pop	{r4, pc}

0000842c <rpi_reset_putc>:
    842c:	e59f3008 	ldr	r3, [pc, #8]	; 843c <rpi_reset_putc+0x10>
    8430:	e59f2008 	ldr	r2, [pc, #8]	; 8440 <rpi_reset_putc+0x14>
    8434:	e5832000 	str	r2, [r3]
    8438:	e12fff1e 	bx	lr
    843c:	000093a0 	andeq	r9, r0, r0, lsr #7
    8440:	00008418 	andeq	r8, r0, r8, lsl r4

00008444 <rpi_set_putc>:
    8444:	e59f3004 	ldr	r3, [pc, #4]	; 8450 <rpi_set_putc+0xc>
    8448:	e5830000 	str	r0, [r3]
    844c:	e12fff1e 	bx	lr
    8450:	000093a0 	andeq	r9, r0, r0, lsr #7

00008454 <internal_putk>:
    8454:	e92d4010 	push	{r4, lr}
    8458:	e1a04000 	mov	r4, r0
    845c:	e5d40000 	ldrb	r0, [r4]
    8460:	e3500000 	cmp	r0, #0, 0
    8464:	0a000004 	beq	847c <internal_putk+0x28>
    8468:	e59f3014 	ldr	r3, [pc, #20]	; 8484 <internal_putk+0x30>
    846c:	e5933000 	ldr	r3, [r3]
    8470:	e12fff33 	blx	r3
    8474:	e2844001 	add	r4, r4, #1, 0
    8478:	eafffff7 	b	845c <internal_putk+0x8>
    847c:	e3a00001 	mov	r0, #1, 0
    8480:	e8bd8010 	pop	{r4, pc}
    8484:	000093a0 	andeq	r9, r0, r0, lsr #7

00008488 <isdigit>:
    8488:	e2400030 	sub	r0, r0, #48, 0	; 0x30
    848c:	e3500009 	cmp	r0, #9, 0
    8490:	83a00000 	movhi	r0, #0, 0
    8494:	93a00001 	movls	r0, #1, 0
    8498:	e12fff1e 	bx	lr

0000849c <pad>:
    849c:	e0401001 	sub	r1, r0, r1
    84a0:	e1510002 	cmp	r1, r2
    84a4:	b3a03020 	movlt	r3, #32, 0
    84a8:	b4c03001 	strblt	r3, [r0], #1
    84ac:	b2811001 	addlt	r1, r1, #1, 0
    84b0:	bafffffa 	blt	84a0 <pad+0x4>
    84b4:	e3a03000 	mov	r3, #0, 0
    84b8:	e5c03000 	strb	r3, [r0]
    84bc:	e12fff1e 	bx	lr

000084c0 <reverse>:
    84c0:	e042c003 	sub	ip, r2, r3
    84c4:	e28cc001 	add	ip, ip, #1, 0
    84c8:	e15c0001 	cmp	ip, r1
    84cc:	c04cc001 	subgt	ip, ip, r1
    84d0:	c083300c 	addgt	r3, r3, ip
    84d4:	e2421001 	sub	r1, r2, #1, 0
    84d8:	e1a02000 	mov	r2, r0
    84dc:	e1510003 	cmp	r1, r3
    84e0:	2451c001 	ldrbcs	ip, [r1], #-1
    84e4:	24c2c001 	strbcs	ip, [r2], #1
    84e8:	2afffffb 	bcs	84dc <reverse+0x1c>
    84ec:	e3a03000 	mov	r3, #0, 0
    84f0:	e5c23000 	strb	r3, [r2]
    84f4:	e12fff1e 	bx	lr

000084f8 <emit>:
    84f8:	e92d40f0 	push	{r4, r5, r6, r7, lr}
    84fc:	e24dd04c 	sub	sp, sp, #76, 0	; 0x4c
    8500:	e1a05001 	mov	r5, r1
    8504:	e1a04002 	mov	r4, r2
    8508:	e59d2060 	ldr	r2, [sp, #96]	; 0x60
    850c:	e1520004 	cmp	r2, r4
    8510:	c2442001 	subgt	r2, r4, #1, 0
    8514:	e1a0c003 	mov	ip, r3
    8518:	e2400002 	sub	r0, r0, #2, 0
    851c:	e350000e 	cmp	r0, #14, 0
    8520:	979ff100 	ldrls	pc, [pc, r0, lsl #2]
    8524:	ea000050 	b	866c <emit+0x174>
    8528:	00008644 	andeq	r8, r0, r4, asr #12
    852c:	0000866c 	andeq	r8, r0, ip, ror #12
    8530:	0000866c 	andeq	r8, r0, ip, ror #12
    8534:	0000866c 	andeq	r8, r0, ip, ror #12
    8538:	0000866c 	andeq	r8, r0, ip, ror #12
    853c:	0000866c 	andeq	r8, r0, ip, ror #12
    8540:	00008638 	andeq	r8, r0, r8, lsr r6
    8544:	0000866c 	andeq	r8, r0, ip, ror #12
    8548:	00008564 	andeq	r8, r0, r4, ror #10
    854c:	0000866c 	andeq	r8, r0, ip, ror #12
    8550:	0000866c 	andeq	r8, r0, ip, ror #12
    8554:	0000866c 	andeq	r8, r0, ip, ror #12
    8558:	0000866c 	andeq	r8, r0, ip, ror #12
    855c:	0000866c 	andeq	r8, r0, ip, ror #12
    8560:	000085dc 	ldrdeq	r8, [r0], -ip
    8564:	e59d1064 	ldr	r1, [sp, #100]	; 0x64
    8568:	e2511000 	subs	r1, r1, #0, 0
    856c:	13a01001 	movne	r1, #1, 0
    8570:	e0111fa3 	ands	r1, r1, r3, lsr #31
    8574:	0a000016 	beq	85d4 <emit+0xdc>
    8578:	e263c000 	rsb	ip, r3, #0, 0
    857c:	e3a06001 	mov	r6, #1, 0
    8580:	e28d0008 	add	r0, sp, #8, 0
    8584:	e59f3100 	ldr	r3, [pc, #256]	; 868c <emit+0x194>
    8588:	e0831c93 	umull	r1, r3, r3, ip
    858c:	e1a031a3 	lsr	r3, r3, #3
    8590:	e1a0e003 	mov	lr, r3
    8594:	e0833103 	add	r3, r3, r3, lsl #2
    8598:	e04c3083 	sub	r3, ip, r3, lsl #1
    859c:	e1a01000 	mov	r1, r0
    85a0:	e2800001 	add	r0, r0, #1, 0
    85a4:	e59f70e4 	ldr	r7, [pc, #228]	; 8690 <emit+0x198>
    85a8:	e7d73003 	ldrb	r3, [r7, r3]
    85ac:	e5c13000 	strb	r3, [r1]
    85b0:	e1a0300c 	mov	r3, ip
    85b4:	e1a0c00e 	mov	ip, lr
    85b8:	e3530009 	cmp	r3, #9, 0
    85bc:	8afffff0 	bhi	8584 <emit+0x8c>
    85c0:	e3560000 	cmp	r6, #0, 0
    85c4:	13a0302d 	movne	r3, #45, 0	; 0x2d
    85c8:	15c03000 	strbne	r3, [r0]
    85cc:	12810002 	addne	r0, r1, #2, 0
    85d0:	ea00000f 	b	8614 <emit+0x11c>
    85d4:	e3a06000 	mov	r6, #0, 0
    85d8:	eaffffe8 	b	8580 <emit+0x88>
    85dc:	e28d1008 	add	r1, sp, #8, 0
    85e0:	e20c000f 	and	r0, ip, #15, 0
    85e4:	e59fe0a8 	ldr	lr, [pc, #168]	; 8694 <emit+0x19c>
    85e8:	e7de0000 	ldrb	r0, [lr, r0]
    85ec:	e5c10000 	strb	r0, [r1]
    85f0:	e2811001 	add	r1, r1, #1, 0
    85f4:	e35c000f 	cmp	ip, #15, 0
    85f8:	e1a0c22c 	lsr	ip, ip, #4
    85fc:	8afffff7 	bhi	85e0 <emit+0xe8>
    8600:	e1a00001 	mov	r0, r1
    8604:	e3a03078 	mov	r3, #120, 0	; 0x78
    8608:	e4c03002 	strb	r3, [r0], #2
    860c:	e3a03030 	mov	r3, #48, 0	; 0x30
    8610:	e5c13001 	strb	r3, [r1, #1]
    8614:	e28d1008 	add	r1, sp, #8, 0
    8618:	ebffff9f 	bl	849c <pad>
    861c:	e1a02000 	mov	r2, r0
    8620:	e28d3008 	add	r3, sp, #8, 0
    8624:	e1a01004 	mov	r1, r4
    8628:	e1a00005 	mov	r0, r5
    862c:	ebffffa3 	bl	84c0 <reverse>
    8630:	e28dd04c 	add	sp, sp, #76, 0	; 0x4c
    8634:	e8bd80f0 	pop	{r4, r5, r6, r7, pc}
    8638:	e5cd3008 	strb	r3, [sp, #8]
    863c:	e28d0009 	add	r0, sp, #9, 0
    8640:	eafffff3 	b	8614 <emit+0x11c>
    8644:	e28d0008 	add	r0, sp, #8, 0
    8648:	e20c1001 	and	r1, ip, #1, 0
    864c:	e59fe044 	ldr	lr, [pc, #68]	; 8698 <emit+0x1a0>
    8650:	e7de1001 	ldrb	r1, [lr, r1]
    8654:	e5c01000 	strb	r1, [r0]
    8658:	e2800001 	add	r0, r0, #1, 0
    865c:	e35c0001 	cmp	ip, #1, 0
    8660:	e1a0c0ac 	lsr	ip, ip, #1
    8664:	8afffff7 	bhi	8648 <emit+0x150>
    8668:	eaffffe9 	b	8614 <emit+0x11c>
    866c:	e59f3028 	ldr	r3, [pc, #40]	; 869c <emit+0x1a4>
    8670:	e58d3000 	str	r3, [sp]
    8674:	e3a03079 	mov	r3, #121, 0	; 0x79
    8678:	e59f2020 	ldr	r2, [pc, #32]	; 86a0 <emit+0x1a8>
    867c:	e59f1020 	ldr	r1, [pc, #32]	; 86a4 <emit+0x1ac>
    8680:	e59f0020 	ldr	r0, [pc, #32]	; 86a8 <emit+0x1b0>
    8684:	ebffff4d 	bl	83c0 <printk>
    8688:	eb00014e 	bl	8bc8 <clean_reboot>
    868c:	cccccccd 	stclgt	12, cr12, [ip], {205}	; 0xcd
    8690:	00009244 	andeq	r9, r0, r4, asr #4
    8694:	00009250 	andeq	r9, r0, r0, asr r2
    8698:	00009264 	andeq	r9, r0, r4, ror #4
    869c:	00009240 	andeq	r9, r0, r0, asr #4
    86a0:	00009370 	andeq	r9, r0, r0, ror r3
    86a4:	00009218 	andeq	r9, r0, r8, lsl r2
    86a8:	0000922c 	andeq	r9, r0, ip, lsr #4

000086ac <rpi_set_output>:
    86ac:	e3500000 	cmp	r0, #0, 0
    86b0:	0a000006 	beq	86d0 <rpi_set_output+0x24>
    86b4:	e59f303c 	ldr	r3, [pc, #60]	; 86f8 <rpi_set_output+0x4c>
    86b8:	e5830000 	str	r0, [r3]
    86bc:	e3510000 	cmp	r1, #0, 0
    86c0:	012fff1e 	bxeq	lr
    86c4:	e59f3030 	ldr	r3, [pc, #48]	; 86fc <rpi_set_output+0x50>
    86c8:	e5831000 	str	r1, [r3]
    86cc:	e12fff1e 	bx	lr
    86d0:	e52de004 	push	{lr}		; (str lr, [sp, #-4]!)
    86d4:	e24dd00c 	sub	sp, sp, #12, 0
    86d8:	e59f3020 	ldr	r3, [pc, #32]	; 8700 <rpi_set_output+0x54>
    86dc:	e58d3000 	str	r3, [sp]
    86e0:	e3a03020 	mov	r3, #32, 0
    86e4:	e59f2018 	ldr	r2, [pc, #24]	; 8704 <rpi_set_output+0x58>
    86e8:	e59f1018 	ldr	r1, [pc, #24]	; 8708 <rpi_set_output+0x5c>
    86ec:	e59f0018 	ldr	r0, [pc, #24]	; 870c <rpi_set_output+0x60>
    86f0:	ebffff32 	bl	83c0 <printk>
    86f4:	eb000133 	bl	8bc8 <clean_reboot>
    86f8:	000093a0 	andeq	r9, r0, r0, lsr #7
    86fc:	000093a4 	andeq	r9, r0, r4, lsr #7
    8700:	00009268 	andeq	r9, r0, r8, ror #4
    8704:	00009378 	andeq	r9, r0, r8, ror r3
    8708:	00009218 	andeq	r9, r0, r8, lsl r2
    870c:	0000922c 	andeq	r9, r0, ip, lsr #4

00008710 <va_printk>:
    8710:	e92d4ff0 	push	{r4, r5, r6, r7, r8, r9, sl, fp, lr}
    8714:	e24ddf45 	sub	sp, sp, #276	; 0x114
    8718:	e1a09000 	mov	r9, r0
    871c:	e58d2008 	str	r2, [sp, #8]
    8720:	e58d300c 	str	r3, [sp, #12]
    8724:	e2411001 	sub	r1, r1, #1, 0
    8728:	e0808001 	add	r8, r0, r1
    872c:	e3a03000 	mov	r3, #0, 0
    8730:	e5c03000 	strb	r3, [r0]
    8734:	e1a04000 	mov	r4, r0
    8738:	e1a06002 	mov	r6, r2
    873c:	ea000001 	b	8748 <va_printk+0x38>
    8740:	e2866001 	add	r6, r6, #1, 0
    8744:	e4c43001 	strb	r3, [r4], #1
    8748:	e5d63000 	ldrb	r3, [r6]
    874c:	e3530000 	cmp	r3, #0, 0
    8750:	0a000108 	beq	8b78 <va_printk+0x468>
    8754:	e1540008 	cmp	r4, r8
    8758:	2a000106 	bcs	8b78 <va_printk+0x468>
    875c:	e3530025 	cmp	r3, #37, 0	; 0x25
    8760:	1afffff6 	bne	8740 <va_printk+0x30>
    8764:	e5d62001 	ldrb	r2, [r6, #1]
    8768:	e3520025 	cmp	r2, #37, 0	; 0x25
    876c:	04c43001 	strbeq	r3, [r4], #1
    8770:	02866002 	addeq	r6, r6, #2, 0
    8774:	0afffff3 	beq	8748 <va_printk+0x38>
    8778:	e2866001 	add	r6, r6, #1, 0
    877c:	e3a05000 	mov	r5, #0, 0
    8780:	e5d67000 	ldrb	r7, [r6]
    8784:	e1a0a007 	mov	sl, r7
    8788:	e1a00007 	mov	r0, r7
    878c:	ebffff3d 	bl	8488 <isdigit>
    8790:	e3500000 	cmp	r0, #0, 0
    8794:	0a000004 	beq	87ac <va_printk+0x9c>
    8798:	e0855105 	add	r5, r5, r5, lsl #2
    879c:	e0875085 	add	r5, r7, r5, lsl #1
    87a0:	e2455030 	sub	r5, r5, #48, 0	; 0x30
    87a4:	e2866001 	add	r6, r6, #1, 0
    87a8:	eafffff4 	b	8780 <va_printk+0x70>
    87ac:	e355001f 	cmp	r5, #31, 0
    87b0:	8a00001a 	bhi	8820 <va_printk+0x110>
    87b4:	e2477062 	sub	r7, r7, #98, 0	; 0x62
    87b8:	e3570016 	cmp	r7, #22, 0
    87bc:	979ff107 	ldrls	pc, [pc, r7, lsl #2]
    87c0:	ea0000d4 	b	8b18 <va_printk+0x408>
    87c4:	00008a9c 	muleq	r0, ip, sl
    87c8:	00008ae4 	andeq	r8, r0, r4, ror #21
    87cc:	000089fc 	strdeq	r8, [r0], -ip
    87d0:	00008b18 	andeq	r8, r0, r8, lsl fp
    87d4:	000089e4 	andeq	r8, r0, r4, ror #19
    87d8:	00008b18 	andeq	r8, r0, r8, lsl fp
    87dc:	00008b18 	andeq	r8, r0, r8, lsl fp
    87e0:	00008b18 	andeq	r8, r0, r8, lsl fp
    87e4:	00008b18 	andeq	r8, r0, r8, lsl fp
    87e8:	00008b18 	andeq	r8, r0, r8, lsl fp
    87ec:	00008840 	andeq	r8, r0, r0, asr #16
    87f0:	00008b18 	andeq	r8, r0, r8, lsl fp
    87f4:	00008b18 	andeq	r8, r0, r8, lsl fp
    87f8:	00008b18 	andeq	r8, r0, r8, lsl fp
    87fc:	00008a68 	andeq	r8, r0, r8, ror #20
    8800:	00008b18 	andeq	r8, r0, r8, lsl fp
    8804:	00008b18 	andeq	r8, r0, r8, lsl fp
    8808:	00008ad0 	ldrdeq	r8, [r0], -r0
    880c:	00008b18 	andeq	r8, r0, r8, lsl fp
    8810:	00008a34 	andeq	r8, r0, r4, lsr sl
    8814:	00008b18 	andeq	r8, r0, r8, lsl fp
    8818:	00008b18 	andeq	r8, r0, r8, lsl fp
    881c:	00008a68 	andeq	r8, r0, r8, ror #20
    8820:	e59f3364 	ldr	r3, [pc, #868]	; 8b8c <va_printk+0x47c>
    8824:	e58d3000 	str	r3, [sp]
    8828:	e3a03098 	mov	r3, #152, 0	; 0x98
    882c:	e59f235c 	ldr	r2, [pc, #860]	; 8b90 <va_printk+0x480>
    8830:	e59f135c 	ldr	r1, [pc, #860]	; 8b94 <va_printk+0x484>
    8834:	e59f035c 	ldr	r0, [pc, #860]	; 8b98 <va_printk+0x488>
    8838:	ebfffee0 	bl	83c0 <printk>
    883c:	eb0000e1 	bl	8bc8 <clean_reboot>
    8840:	e3a02003 	mov	r2, #3, 0
    8844:	e59f1350 	ldr	r1, [pc, #848]	; 8b9c <va_printk+0x48c>
    8848:	e1a00006 	mov	r0, r6
    884c:	eb0001d5 	bl	8fa8 <strncmp>
    8850:	e3500000 	cmp	r0, #0, 0
    8854:	0a000005 	beq	8870 <va_printk+0x160>
    8858:	e3a02003 	mov	r2, #3, 0
    885c:	e59f133c 	ldr	r1, [pc, #828]	; 8ba0 <va_printk+0x490>
    8860:	e1a00006 	mov	r0, r6
    8864:	eb0001cf 	bl	8fa8 <strncmp>
    8868:	e3500000 	cmp	r0, #0, 0
    886c:	1a000033 	bne	8940 <va_printk+0x230>
    8870:	e286b002 	add	fp, r6, #2, 0
    8874:	e59d300c 	ldr	r3, [sp, #12]
    8878:	e2833007 	add	r3, r3, #7, 0
    887c:	e3c33007 	bic	r3, r3, #7, 0
    8880:	e2832008 	add	r2, r3, #8, 0
    8884:	e58d200c 	str	r2, [sp, #12]
    8888:	e593a000 	ldr	sl, [r3]
    888c:	e5937004 	ldr	r7, [r3, #4]
    8890:	e1a01007 	mov	r1, r7
    8894:	e59f0308 	ldr	r0, [pc, #776]	; 8ba4 <va_printk+0x494>
    8898:	ebfffec8 	bl	83c0 <printk>
    889c:	e1a0100a 	mov	r1, sl
    88a0:	e59f0300 	ldr	r0, [pc, #768]	; 8ba8 <va_printk+0x498>
    88a4:	ebfffec5 	bl	83c0 <printk>
    88a8:	e3a02003 	mov	r2, #3, 0
    88ac:	e59f12e8 	ldr	r1, [pc, #744]	; 8b9c <va_printk+0x48c>
    88b0:	e1a00006 	mov	r0, r6
    88b4:	eb0001bb 	bl	8fa8 <strncmp>
    88b8:	e3500000 	cmp	r0, #0, 0
    88bc:	0a000027 	beq	8960 <va_printk+0x250>
    88c0:	e3a02003 	mov	r2, #3, 0
    88c4:	e59f12d4 	ldr	r1, [pc, #724]	; 8ba0 <va_printk+0x490>
    88c8:	e1a00006 	mov	r0, r6
    88cc:	eb0001b5 	bl	8fa8 <strncmp>
    88d0:	e3500000 	cmp	r0, #0, 0
    88d4:	1a00003b 	bne	89c8 <va_printk+0x2b8>
    88d8:	e3a06000 	mov	r6, #0, 0
    88dc:	e58d6004 	str	r6, [sp, #4]
    88e0:	e58d5000 	str	r5, [sp]
    88e4:	e1a03007 	mov	r3, r7
    88e8:	e3a02080 	mov	r2, #128, 0	; 0x80
    88ec:	e28d1010 	add	r1, sp, #16, 0
    88f0:	e3a0000a 	mov	r0, #10, 0
    88f4:	ebfffeff 	bl	84f8 <emit>
    88f8:	e1a07000 	mov	r7, r0
    88fc:	e58d6004 	str	r6, [sp, #4]
    8900:	e58d5000 	str	r5, [sp]
    8904:	e1a0300a 	mov	r3, sl
    8908:	e3a02080 	mov	r2, #128, 0	; 0x80
    890c:	e28d1090 	add	r1, sp, #144, 0	; 0x90
    8910:	e3a0000a 	mov	r0, #10, 0
    8914:	ebfffef7 	bl	84f8 <emit>
    8918:	e59f128c 	ldr	r1, [pc, #652]	; 8bac <va_printk+0x49c>
    891c:	e28d0010 	add	r0, sp, #16, 0
    8920:	eb00018d 	bl	8f5c <strcmp>
    8924:	e1500006 	cmp	r0, r6
    8928:	1a000021 	bne	89b4 <va_printk+0x2a4>
    892c:	e28d1090 	add	r1, sp, #144, 0	; 0x90
    8930:	e28d0010 	add	r0, sp, #16, 0
    8934:	eb000193 	bl	8f88 <strcpy>
    8938:	e1a0600b 	mov	r6, fp
    893c:	ea00003a 	b	8a2c <va_printk+0x31c>
    8940:	e59f3268 	ldr	r3, [pc, #616]	; 8bb0 <va_printk+0x4a0>
    8944:	e58d3000 	str	r3, [sp]
    8948:	e3a0309f 	mov	r3, #159, 0	; 0x9f
    894c:	e59f223c 	ldr	r2, [pc, #572]	; 8b90 <va_printk+0x480>
    8950:	e59f123c 	ldr	r1, [pc, #572]	; 8b94 <va_printk+0x484>
    8954:	e59f023c 	ldr	r0, [pc, #572]	; 8b98 <va_printk+0x488>
    8958:	ebfffe98 	bl	83c0 <printk>
    895c:	eb000099 	bl	8bc8 <clean_reboot>
    8960:	e3a06000 	mov	r6, #0, 0
    8964:	e58d6004 	str	r6, [sp, #4]
    8968:	e58d5000 	str	r5, [sp]
    896c:	e1a03007 	mov	r3, r7
    8970:	e3a02080 	mov	r2, #128, 0	; 0x80
    8974:	e28d1010 	add	r1, sp, #16, 0
    8978:	e3a00010 	mov	r0, #16, 0
    897c:	ebfffedd 	bl	84f8 <emit>
    8980:	e1a07000 	mov	r7, r0
    8984:	e58d6004 	str	r6, [sp, #4]
    8988:	e58d5000 	str	r5, [sp]
    898c:	e1a0300a 	mov	r3, sl
    8990:	e3a02080 	mov	r2, #128, 0	; 0x80
    8994:	e28d1090 	add	r1, sp, #144, 0	; 0x90
    8998:	e3a00010 	mov	r0, #16, 0
    899c:	ebfffed5 	bl	84f8 <emit>
    89a0:	e28d1092 	add	r1, sp, #146, 0	; 0x92
    89a4:	e28d0010 	add	r0, sp, #16, 0
    89a8:	eb00015e 	bl	8f28 <strcat>
    89ac:	e1a0600b 	mov	r6, fp
    89b0:	ea00001d 	b	8a2c <va_printk+0x31c>
    89b4:	e28d1090 	add	r1, sp, #144, 0	; 0x90
    89b8:	e28d0010 	add	r0, sp, #16, 0
    89bc:	eb000159 	bl	8f28 <strcat>
    89c0:	e1a0600b 	mov	r6, fp
    89c4:	ea000018 	b	8a2c <va_printk+0x31c>
    89c8:	e58d6000 	str	r6, [sp]
    89cc:	e3a030b6 	mov	r3, #182, 0	; 0xb6
    89d0:	e59f21b8 	ldr	r2, [pc, #440]	; 8b90 <va_printk+0x480>
    89d4:	e59f11b8 	ldr	r1, [pc, #440]	; 8b94 <va_printk+0x484>
    89d8:	e59f01d4 	ldr	r0, [pc, #468]	; 8bb4 <va_printk+0x4a4>
    89dc:	ebfffe77 	bl	83c0 <printk>
    89e0:	eb000078 	bl	8bc8 <clean_reboot>
    89e4:	e3a030be 	mov	r3, #190, 0	; 0xbe
    89e8:	e59f21a0 	ldr	r2, [pc, #416]	; 8b90 <va_printk+0x480>
    89ec:	e59f11a0 	ldr	r1, [pc, #416]	; 8b94 <va_printk+0x484>
    89f0:	e59f01c0 	ldr	r0, [pc, #448]	; 8bb8 <va_printk+0x4a8>
    89f4:	ebfffe71 	bl	83c0 <printk>
    89f8:	eb000072 	bl	8bc8 <clean_reboot>
    89fc:	e59d300c 	ldr	r3, [sp, #12]
    8a00:	e2832004 	add	r2, r3, #4, 0
    8a04:	e58d200c 	str	r2, [sp, #12]
    8a08:	e5933000 	ldr	r3, [r3]
    8a0c:	e3a02001 	mov	r2, #1, 0
    8a10:	e58d2004 	str	r2, [sp, #4]
    8a14:	e58d5000 	str	r5, [sp]
    8a18:	e3a02080 	mov	r2, #128, 0	; 0x80
    8a1c:	e28d1010 	add	r1, sp, #16, 0
    8a20:	e3a0000a 	mov	r0, #10, 0
    8a24:	ebfffeb3 	bl	84f8 <emit>
    8a28:	e1a07000 	mov	r7, r0
    8a2c:	e2866001 	add	r6, r6, #1, 0
    8a30:	ea00004a 	b	8b60 <va_printk+0x450>
    8a34:	e59d300c 	ldr	r3, [sp, #12]
    8a38:	e2832004 	add	r2, r3, #4, 0
    8a3c:	e58d200c 	str	r2, [sp, #12]
    8a40:	e5933000 	ldr	r3, [r3]
    8a44:	e3a02000 	mov	r2, #0, 0
    8a48:	e58d2004 	str	r2, [sp, #4]
    8a4c:	e58d5000 	str	r5, [sp]
    8a50:	e3a02080 	mov	r2, #128, 0	; 0x80
    8a54:	e28d1010 	add	r1, sp, #16, 0
    8a58:	e3a0000a 	mov	r0, #10, 0
    8a5c:	ebfffea5 	bl	84f8 <emit>
    8a60:	e1a07000 	mov	r7, r0
    8a64:	eafffff0 	b	8a2c <va_printk+0x31c>
    8a68:	e59d300c 	ldr	r3, [sp, #12]
    8a6c:	e2832004 	add	r2, r3, #4, 0
    8a70:	e58d200c 	str	r2, [sp, #12]
    8a74:	e5933000 	ldr	r3, [r3]
    8a78:	e3a02000 	mov	r2, #0, 0
    8a7c:	e58d2004 	str	r2, [sp, #4]
    8a80:	e58d5000 	str	r5, [sp]
    8a84:	e3a02080 	mov	r2, #128, 0	; 0x80
    8a88:	e28d1010 	add	r1, sp, #16, 0
    8a8c:	e3a00010 	mov	r0, #16, 0
    8a90:	ebfffe98 	bl	84f8 <emit>
    8a94:	e1a07000 	mov	r7, r0
    8a98:	eaffffe3 	b	8a2c <va_printk+0x31c>
    8a9c:	e59d300c 	ldr	r3, [sp, #12]
    8aa0:	e2832004 	add	r2, r3, #4, 0
    8aa4:	e58d200c 	str	r2, [sp, #12]
    8aa8:	e5933000 	ldr	r3, [r3]
    8aac:	e3a02000 	mov	r2, #0, 0
    8ab0:	e58d2004 	str	r2, [sp, #4]
    8ab4:	e58d5000 	str	r5, [sp]
    8ab8:	e3a02080 	mov	r2, #128, 0	; 0x80
    8abc:	e28d1010 	add	r1, sp, #16, 0
    8ac0:	e3a00002 	mov	r0, #2, 0
    8ac4:	ebfffe8b 	bl	84f8 <emit>
    8ac8:	e1a07000 	mov	r7, r0
    8acc:	eaffffd6 	b	8a2c <va_printk+0x31c>
    8ad0:	e59d300c 	ldr	r3, [sp, #12]
    8ad4:	e2832004 	add	r2, r3, #4, 0
    8ad8:	e58d200c 	str	r2, [sp, #12]
    8adc:	e5937000 	ldr	r7, [r3]
    8ae0:	eaffffd1 	b	8a2c <va_printk+0x31c>
    8ae4:	e59d300c 	ldr	r3, [sp, #12]
    8ae8:	e2832004 	add	r2, r3, #4, 0
    8aec:	e58d200c 	str	r2, [sp, #12]
    8af0:	e5933000 	ldr	r3, [r3]
    8af4:	e3a02000 	mov	r2, #0, 0
    8af8:	e58d2004 	str	r2, [sp, #4]
    8afc:	e58d5000 	str	r5, [sp]
    8b00:	e3a02080 	mov	r2, #128, 0	; 0x80
    8b04:	e28d1010 	add	r1, sp, #16, 0
    8b08:	e3a00008 	mov	r0, #8, 0
    8b0c:	ebfffe79 	bl	84f8 <emit>
    8b10:	e1a07000 	mov	r7, r0
    8b14:	eaffffc4 	b	8a2c <va_printk+0x31c>
    8b18:	e3a03000 	mov	r3, #0, 0
    8b1c:	e5c63001 	strb	r3, [r6, #1]
    8b20:	e1a0200a 	mov	r2, sl
    8b24:	e1a0100a 	mov	r1, sl
    8b28:	e59f008c 	ldr	r0, [pc, #140]	; 8bbc <va_printk+0x4ac>
    8b2c:	ebfffe23 	bl	83c0 <printk>
    8b30:	e59f3088 	ldr	r3, [pc, #136]	; 8bc0 <va_printk+0x4b0>
    8b34:	e5933000 	ldr	r3, [r3]
    8b38:	e59d0008 	ldr	r0, [sp, #8]
    8b3c:	e12fff33 	blx	r3
    8b40:	e3a030e2 	mov	r3, #226, 0	; 0xe2
    8b44:	e59f2044 	ldr	r2, [pc, #68]	; 8b90 <va_printk+0x480>
    8b48:	e59f1044 	ldr	r1, [pc, #68]	; 8b94 <va_printk+0x484>
    8b4c:	e59f0070 	ldr	r0, [pc, #112]	; 8bc4 <va_printk+0x4b4>
    8b50:	ebfffe1a 	bl	83c0 <printk>
    8b54:	eb00001b 	bl	8bc8 <clean_reboot>
    8b58:	e2877001 	add	r7, r7, #1, 0
    8b5c:	e4c43001 	strb	r3, [r4], #1
    8b60:	e1540008 	cmp	r4, r8
    8b64:	2afffef7 	bcs	8748 <va_printk+0x38>
    8b68:	e5d73000 	ldrb	r3, [r7]
    8b6c:	e3530000 	cmp	r3, #0, 0
    8b70:	1afffff8 	bne	8b58 <va_printk+0x448>
    8b74:	eafffef3 	b	8748 <va_printk+0x38>
    8b78:	e3a03000 	mov	r3, #0, 0
    8b7c:	e4c43001 	strb	r3, [r4], #1
    8b80:	e0440009 	sub	r0, r4, r9
    8b84:	e28ddf45 	add	sp, sp, #276	; 0x114
    8b88:	e8bd8ff0 	pop	{r4, r5, r6, r7, r8, r9, sl, fp, pc}
    8b8c:	00009270 	andeq	r9, r0, r0, ror r2
    8b90:	00009388 	andeq	r9, r0, r8, lsl #7
    8b94:	00009218 	andeq	r9, r0, r8, lsl r2
    8b98:	0000922c 	andeq	r9, r0, ip, lsr #4
    8b9c:	0000927c 	andeq	r9, r0, ip, ror r2
    8ba0:	00009280 	andeq	r9, r0, r0, lsl #5
    8ba4:	00009284 	andeq	r9, r0, r4, lsl #5
    8ba8:	0000928c 	andeq	r9, r0, ip, lsl #5
    8bac:	00009240 	andeq	r9, r0, r0, asr #4
    8bb0:	00009294 	muleq	r0, r4, r2
    8bb4:	000092d0 	ldrdeq	r9, [r0], -r0
    8bb8:	000092f8 	strdeq	r9, [r0], -r8
    8bbc:	00009320 	andeq	r9, r0, r0, lsr #6
    8bc0:	000093a4 	andeq	r9, r0, r4, lsr #7
    8bc4:	00009350 	andeq	r9, r0, r0, asr r3

00008bc8 <clean_reboot>:
    8bc8:	e92d4010 	push	{r4, lr}
    8bcc:	e59f3018 	ldr	r3, [pc, #24]	; 8bec <clean_reboot+0x24>
    8bd0:	e5933000 	ldr	r3, [r3]
    8bd4:	e59f0014 	ldr	r0, [pc, #20]	; 8bf0 <clean_reboot+0x28>
    8bd8:	e12fff33 	blx	r3
    8bdc:	eb0000c3 	bl	8ef0 <uart_flush_tx>
    8be0:	e3a0000a 	mov	r0, #10, 0
    8be4:	eb000047 	bl	8d08 <delay_ms>
    8be8:	eb00001c 	bl	8c60 <rpi_reboot>
    8bec:	000093a4 	andeq	r9, r0, r4, lsr #7
    8bf0:	00009394 	muleq	r0, r4, r3

00008bf4 <_cstart>:
    8bf4:	e92d4010 	push	{r4, lr}
    8bf8:	eb00000c 	bl	8c30 <custom_loader>
    8bfc:	e59f3024 	ldr	r3, [pc, #36]	; 8c28 <_cstart+0x34>
    8c00:	e59f2024 	ldr	r2, [pc, #36]	; 8c2c <_cstart+0x38>
    8c04:	e1530002 	cmp	r3, r2
    8c08:	33a02000 	movcc	r2, #0, 0
    8c0c:	34832004 	strcc	r2, [r3], #4
    8c10:	3afffffa 	bcc	8c00 <_cstart+0xc>
    8c14:	eb000057 	bl	8d78 <uart_init>
    8c18:	e3a03001 	mov	r3, #1, 0
    8c1c:	ee0f3f1c 	mcr	15, 0, r3, cr15, cr12, {0}
    8c20:	ebfffd70 	bl	81e8 <notmain>
    8c24:	ebffffe7 	bl	8bc8 <clean_reboot>
    8c28:	000093a8 	andeq	r9, r0, r8, lsr #7
    8c2c:	000098b0 			; <UNDEFINED> instruction: 0x000098b0

00008c30 <custom_loader>:
    8c30:	e12fff1e 	bx	lr

00008c34 <at_user_level>:
    8c34:	e10f0000 	mrs	r0, CPSR
    8c38:	e200001f 	and	r0, r0, #31, 0
    8c3c:	e3500010 	cmp	r0, #16, 0
    8c40:	13a00000 	movne	r0, #0, 0
    8c44:	03a00001 	moveq	r0, #1, 0
    8c48:	e12fff1e 	bx	lr

00008c4c <set_user_level>:
    8c4c:	e10f3000 	mrs	r3, CPSR
    8c50:	e3c3301f 	bic	r3, r3, #31, 0
    8c54:	e3833010 	orr	r3, r3, #16, 0
    8c58:	e129f003 	msr	CPSR_fc, r3
    8c5c:	e12fff1e 	bx	lr

00008c60 <rpi_reboot>:
    8c60:	e92d4010 	push	{r4, lr}
    8c64:	ebfffff2 	bl	8c34 <at_user_level>
    8c68:	e3500000 	cmp	r0, #0, 0
    8c6c:	1a00000a 	bne	8c9c <rpi_reboot+0x3c>
    8c70:	eb0000d7 	bl	8fd4 <reboot_callout>
    8c74:	eb00009d 	bl	8ef0 <uart_flush_tx>
    8c78:	e3a0000a 	mov	r0, #10, 0
    8c7c:	eb000021 	bl	8d08 <delay_ms>
    8c80:	e59f101c 	ldr	r1, [pc, #28]	; 8ca4 <rpi_reboot+0x44>
    8c84:	e59f001c 	ldr	r0, [pc, #28]	; 8ca8 <rpi_reboot+0x48>
    8c88:	ebfffce5 	bl	8024 <PUT32>
    8c8c:	e59f1018 	ldr	r1, [pc, #24]	; 8cac <rpi_reboot+0x4c>
    8c90:	e59f0018 	ldr	r0, [pc, #24]	; 8cb0 <rpi_reboot+0x50>
    8c94:	ebfffce2 	bl	8024 <PUT32>
    8c98:	eafffffe 	b	8c98 <rpi_reboot+0x38>
    8c9c:	ebffffea 	bl	8c4c <set_user_level>
    8ca0:	eafffff2 	b	8c70 <rpi_reboot+0x10>
    8ca4:	5a000001 	bpl	8cb0 <rpi_reboot+0x50>
    8ca8:	20100024 	andscs	r0, r0, r4, lsr #32
    8cac:	5a000020 	bpl	8d34 <delay_sec+0x14>
    8cb0:	2010001c 	andscs	r0, r0, ip, lsl r0

00008cb4 <timer_get_usec_raw>:
    8cb4:	e92d4010 	push	{r4, lr}
    8cb8:	e59f0004 	ldr	r0, [pc, #4]	; 8cc4 <timer_get_usec_raw+0x10>
    8cbc:	ebfffcda 	bl	802c <GET32>
    8cc0:	e8bd8010 	pop	{r4, pc}
    8cc4:	20003004 	andcs	r3, r0, r4

00008cc8 <timer_get_usec>:
    8cc8:	e92d4010 	push	{r4, lr}
    8ccc:	eb0000c1 	bl	8fd8 <dev_barrier>
    8cd0:	ebfffff7 	bl	8cb4 <timer_get_usec_raw>
    8cd4:	e1a04000 	mov	r4, r0
    8cd8:	eb0000be 	bl	8fd8 <dev_barrier>
    8cdc:	e1a00004 	mov	r0, r4
    8ce0:	e8bd8010 	pop	{r4, pc}

00008ce4 <delay_us>:
    8ce4:	e92d4070 	push	{r4, r5, r6, lr}
    8ce8:	e1a05000 	mov	r5, r0
    8cec:	ebfffff5 	bl	8cc8 <timer_get_usec>
    8cf0:	e1a04000 	mov	r4, r0
    8cf4:	ebfffff3 	bl	8cc8 <timer_get_usec>
    8cf8:	e0400004 	sub	r0, r0, r4
    8cfc:	e1500005 	cmp	r0, r5
    8d00:	3afffffb 	bcc	8cf4 <delay_us+0x10>
    8d04:	e8bd8070 	pop	{r4, r5, r6, pc}

00008d08 <delay_ms>:
    8d08:	e92d4010 	push	{r4, lr}
    8d0c:	e0603280 	rsb	r3, r0, r0, lsl #5
    8d10:	e0800103 	add	r0, r0, r3, lsl #2
    8d14:	e1a00180 	lsl	r0, r0, #3
    8d18:	ebfffff1 	bl	8ce4 <delay_us>
    8d1c:	e8bd8010 	pop	{r4, pc}

00008d20 <delay_sec>:
    8d20:	e92d4010 	push	{r4, lr}
    8d24:	e0603280 	rsb	r3, r0, r0, lsl #5
    8d28:	e0800103 	add	r0, r0, r3, lsl #2
    8d2c:	e1a00180 	lsl	r0, r0, #3
    8d30:	ebfffff4 	bl	8d08 <delay_ms>
    8d34:	e8bd8010 	pop	{r4, pc}

00008d38 <and_in32>:
    8d38:	e92d4070 	push	{r4, r5, r6, lr}
    8d3c:	e1a04000 	mov	r4, r0
    8d40:	e1a05001 	mov	r5, r1
    8d44:	ebfffcb8 	bl	802c <GET32>
    8d48:	e0001005 	and	r1, r0, r5
    8d4c:	e1a00004 	mov	r0, r4
    8d50:	ebfffcb3 	bl	8024 <PUT32>
    8d54:	e8bd8070 	pop	{r4, r5, r6, pc}

00008d58 <or_in32>:
    8d58:	e92d4070 	push	{r4, r5, r6, lr}
    8d5c:	e1a04000 	mov	r4, r0
    8d60:	e1a05001 	mov	r5, r1
    8d64:	ebfffcb0 	bl	802c <GET32>
    8d68:	e1801005 	orr	r1, r0, r5
    8d6c:	e1a00004 	mov	r0, r4
    8d70:	ebfffcab 	bl	8024 <PUT32>
    8d74:	e8bd8070 	pop	{r4, r5, r6, pc}

00008d78 <uart_init>:
    8d78:	e92d4010 	push	{r4, lr}
    8d7c:	e3a01002 	mov	r1, #2, 0
    8d80:	e3a0000e 	mov	r0, #14, 0
    8d84:	eb000099 	bl	8ff0 <gpio_set_function>
    8d88:	e3a01002 	mov	r1, #2, 0
    8d8c:	e3a0000f 	mov	r0, #15, 0
    8d90:	eb000096 	bl	8ff0 <gpio_set_function>
    8d94:	eb00008f 	bl	8fd8 <dev_barrier>
    8d98:	e3a01001 	mov	r1, #1, 0
    8d9c:	e59f0064 	ldr	r0, [pc, #100]	; 8e08 <uart_init+0x90>
    8da0:	ebffffec 	bl	8d58 <or_in32>
    8da4:	eb00008b 	bl	8fd8 <dev_barrier>
    8da8:	e59f405c 	ldr	r4, [pc, #92]	; 8e0c <uart_init+0x94>
    8dac:	e3a01000 	mov	r1, #0, 0
    8db0:	e1a00004 	mov	r0, r4
    8db4:	ebfffc9a 	bl	8024 <PUT32>
    8db8:	e3a01000 	mov	r1, #0, 0
    8dbc:	e59f004c 	ldr	r0, [pc, #76]	; 8e10 <uart_init+0x98>
    8dc0:	ebfffc97 	bl	8024 <PUT32>
    8dc4:	e3a01003 	mov	r1, #3, 0
    8dc8:	e59f0044 	ldr	r0, [pc, #68]	; 8e14 <uart_init+0x9c>
    8dcc:	ebfffc94 	bl	8024 <PUT32>
    8dd0:	e3a01000 	mov	r1, #0, 0
    8dd4:	e59f003c 	ldr	r0, [pc, #60]	; 8e18 <uart_init+0xa0>
    8dd8:	ebfffc91 	bl	8024 <PUT32>
    8ddc:	e3a010c7 	mov	r1, #199, 0	; 0xc7
    8de0:	e59f0034 	ldr	r0, [pc, #52]	; 8e1c <uart_init+0xa4>
    8de4:	ebfffc8e 	bl	8024 <PUT32>
    8de8:	e59f1030 	ldr	r1, [pc, #48]	; 8e20 <uart_init+0xa8>
    8dec:	e59f0030 	ldr	r0, [pc, #48]	; 8e24 <uart_init+0xac>
    8df0:	ebfffc8b 	bl	8024 <PUT32>
    8df4:	e3a01003 	mov	r1, #3, 0
    8df8:	e1a00004 	mov	r0, r4
    8dfc:	ebfffc88 	bl	8024 <PUT32>
    8e00:	eb000074 	bl	8fd8 <dev_barrier>
    8e04:	e8bd8010 	pop	{r4, pc}
    8e08:	20215004 	eorcs	r5, r1, r4
    8e0c:	20215060 	eorcs	r5, r1, r0, rrx
    8e10:	20215044 	eorcs	r5, r1, r4, asr #32
    8e14:	2021504c 	eorcs	r5, r1, ip, asr #32
    8e18:	20215050 	eorcs	r5, r1, r0, asr r0
    8e1c:	20215048 	eorcs	r5, r1, r8, asr #32
    8e20:	0000010e 	andeq	r0, r0, lr, lsl #2
    8e24:	20215068 	eorcs	r5, r1, r8, rrx

00008e28 <uart_can_getc>:
    8e28:	e92d4010 	push	{r4, lr}
    8e2c:	e59f0008 	ldr	r0, [pc, #8]	; 8e3c <uart_can_getc+0x14>
    8e30:	ebfffc7d 	bl	802c <GET32>
    8e34:	e2000001 	and	r0, r0, #1, 0
    8e38:	e8bd8010 	pop	{r4, pc}
    8e3c:	20215064 	eorcs	r5, r1, r4, rrx

00008e40 <uart_can_putc>:
    8e40:	e92d4010 	push	{r4, lr}
    8e44:	e59f0010 	ldr	r0, [pc, #16]	; 8e5c <uart_can_putc+0x1c>
    8e48:	ebfffc77 	bl	802c <GET32>
    8e4c:	e3100002 	tst	r0, #2, 0
    8e50:	13a00001 	movne	r0, #1, 0
    8e54:	03a00000 	moveq	r0, #0, 0
    8e58:	e8bd8010 	pop	{r4, pc}
    8e5c:	20215064 	eorcs	r5, r1, r4, rrx

00008e60 <uart_getc>:
    8e60:	e92d4010 	push	{r4, lr}
    8e64:	eb00005b 	bl	8fd8 <dev_barrier>
    8e68:	ebffffee 	bl	8e28 <uart_can_getc>
    8e6c:	e3500000 	cmp	r0, #0, 0
    8e70:	0afffffc 	beq	8e68 <uart_getc+0x8>
    8e74:	e59f0010 	ldr	r0, [pc, #16]	; 8e8c <uart_getc+0x2c>
    8e78:	ebfffc6b 	bl	802c <GET32>
    8e7c:	e6ef4070 	uxtb	r4, r0
    8e80:	eb000054 	bl	8fd8 <dev_barrier>
    8e84:	e1a00004 	mov	r0, r4
    8e88:	e8bd8010 	pop	{r4, pc}
    8e8c:	20215040 	eorcs	r5, r1, r0, asr #32

00008e90 <uart_putc>:
    8e90:	e92d4010 	push	{r4, lr}
    8e94:	e1a04000 	mov	r4, r0
    8e98:	eb00004e 	bl	8fd8 <dev_barrier>
    8e9c:	ebffffe7 	bl	8e40 <uart_can_putc>
    8ea0:	e3500000 	cmp	r0, #0, 0
    8ea4:	0afffffc 	beq	8e9c <uart_putc+0xc>
    8ea8:	e6ef1074 	uxtb	r1, r4
    8eac:	e59f0008 	ldr	r0, [pc, #8]	; 8ebc <uart_putc+0x2c>
    8eb0:	ebfffc5b 	bl	8024 <PUT32>
    8eb4:	eb000047 	bl	8fd8 <dev_barrier>
    8eb8:	e8bd8010 	pop	{r4, pc}
    8ebc:	20215040 	eorcs	r5, r1, r0, asr #32

00008ec0 <uart_has_data>:
    8ec0:	e92d4010 	push	{r4, lr}
    8ec4:	eb000043 	bl	8fd8 <dev_barrier>
    8ec8:	ebffffd6 	bl	8e28 <uart_can_getc>
    8ecc:	e8bd8010 	pop	{r4, pc}

00008ed0 <uart_tx_is_empty>:
    8ed0:	e92d4010 	push	{r4, lr}
    8ed4:	eb00003f 	bl	8fd8 <dev_barrier>
    8ed8:	e59f000c 	ldr	r0, [pc, #12]	; 8eec <uart_tx_is_empty+0x1c>
    8edc:	ebfffc52 	bl	802c <GET32>
    8ee0:	e1a004a0 	lsr	r0, r0, #9
    8ee4:	e2000001 	and	r0, r0, #1, 0
    8ee8:	e8bd8010 	pop	{r4, pc}
    8eec:	20215064 	eorcs	r5, r1, r4, rrx

00008ef0 <uart_flush_tx>:
    8ef0:	e92d4010 	push	{r4, lr}
    8ef4:	ebfffff5 	bl	8ed0 <uart_tx_is_empty>
    8ef8:	e3500000 	cmp	r0, #0, 0
    8efc:	0afffffc 	beq	8ef4 <uart_flush_tx+0x4>
    8f00:	e8bd8010 	pop	{r4, pc}

00008f04 <uart_disable>:
    8f04:	e92d4010 	push	{r4, lr}
    8f08:	ebfffff8 	bl	8ef0 <uart_flush_tx>
    8f0c:	eb000031 	bl	8fd8 <dev_barrier>
    8f10:	e3e01001 	mvn	r1, #1, 0
    8f14:	e59f0008 	ldr	r0, [pc, #8]	; 8f24 <uart_disable+0x20>
    8f18:	ebffff86 	bl	8d38 <and_in32>
    8f1c:	eb00002d 	bl	8fd8 <dev_barrier>
    8f20:	e8bd8010 	pop	{r4, pc}
    8f24:	20215004 	eorcs	r5, r1, r4

00008f28 <strcat>:
    8f28:	e1a02000 	mov	r2, r0
    8f2c:	e1a03002 	mov	r3, r2
    8f30:	e2822001 	add	r2, r2, #1, 0
    8f34:	e5d3c000 	ldrb	ip, [r3]
    8f38:	e35c0000 	cmp	ip, #0, 0
    8f3c:	1afffffa 	bne	8f2c <strcat+0x4>
    8f40:	e2433001 	sub	r3, r3, #1, 0
    8f44:	e5d12000 	ldrb	r2, [r1]
    8f48:	e2811001 	add	r1, r1, #1, 0
    8f4c:	e5e32001 	strb	r2, [r3, #1]!
    8f50:	e3520000 	cmp	r2, #0, 0
    8f54:	1afffffa 	bne	8f44 <strcat+0x1c>
    8f58:	e12fff1e 	bx	lr

00008f5c <strcmp>:
    8f5c:	e5d03000 	ldrb	r3, [r0]
    8f60:	e3530000 	cmp	r3, #0, 0
    8f64:	0a000004 	beq	8f7c <strcmp+0x20>
    8f68:	e5d12000 	ldrb	r2, [r1]
    8f6c:	e1530002 	cmp	r3, r2
    8f70:	02800001 	addeq	r0, r0, #1, 0
    8f74:	02811001 	addeq	r1, r1, #1, 0
    8f78:	0afffff7 	beq	8f5c <strcmp>
    8f7c:	e5d10000 	ldrb	r0, [r1]
    8f80:	e0430000 	sub	r0, r3, r0
    8f84:	e12fff1e 	bx	lr

00008f88 <strcpy>:
    8f88:	e1a0c000 	mov	ip, r0
    8f8c:	e5d12000 	ldrb	r2, [r1]
    8f90:	e2811001 	add	r1, r1, #1, 0
    8f94:	e5cc2000 	strb	r2, [ip]
    8f98:	e28cc001 	add	ip, ip, #1, 0
    8f9c:	e3520000 	cmp	r2, #0, 0
    8fa0:	1afffff9 	bne	8f8c <strcpy+0x4>
    8fa4:	e12fff1e 	bx	lr

00008fa8 <strncmp>:
    8fa8:	e3520000 	cmp	r2, #0, 0
    8fac:	e2422001 	sub	r2, r2, #1, 0
    8fb0:	0a000005 	beq	8fcc <strncmp+0x24>
    8fb4:	e4d03001 	ldrb	r3, [r0], #1
    8fb8:	e4d1c001 	ldrb	ip, [r1], #1
    8fbc:	e153000c 	cmp	r3, ip
    8fc0:	0afffff8 	beq	8fa8 <strncmp>
    8fc4:	e043000c 	sub	r0, r3, ip
    8fc8:	e12fff1e 	bx	lr
    8fcc:	e3a00000 	mov	r0, #0, 0
    8fd0:	e12fff1e 	bx	lr

00008fd4 <reboot_callout>:
    8fd4:	e12fff1e 	bx	lr

00008fd8 <dev_barrier>:
    8fd8:	ea000002 	b	8fe8 <dsb>

00008fdc <dmb>:
    8fdc:	e3a00000 	mov	r0, #0, 0
    8fe0:	ee070fba 	mcr	15, 0, r0, cr7, cr10, {5}
    8fe4:	e12fff1e 	bx	lr

00008fe8 <dsb>:
    8fe8:	ee070f9a 	mcr	15, 0, r0, cr7, cr10, {4}
    8fec:	e12fff1e 	bx	lr

00008ff0 <gpio_set_function>:
    8ff0:	e350001f 	cmp	r0, #31, 0
    8ff4:	812fff1e 	bxhi	lr
    8ff8:	e92d4070 	push	{r4, r5, r6, lr}
    8ffc:	e1a05001 	mov	r5, r1
    9000:	e3d13007 	bics	r3, r1, #7, 0
    9004:	18bd8070 	popne	{r4, r5, r6, pc}
    9008:	e59f3040 	ldr	r3, [pc, #64]	; 9050 <gpio_set_function+0x60>
    900c:	e0832093 	umull	r2, r3, r3, r0
    9010:	e1a031a3 	lsr	r3, r3, #3
    9014:	e1a02003 	mov	r2, r3
    9018:	e0833103 	add	r3, r3, r3, lsl #2
    901c:	e0403083 	sub	r3, r0, r3, lsl #1
    9020:	e0834083 	add	r4, r3, r3, lsl #1
    9024:	e2820302 	add	r0, r2, #134217728	; 0x8000000
    9028:	e2800702 	add	r0, r0, #524288	; 0x80000
    902c:	e1a06100 	lsl	r6, r0, #2
    9030:	e1a00006 	mov	r0, r6
    9034:	ebfffbfc 	bl	802c <GET32>
    9038:	e3a01007 	mov	r1, #7, 0
    903c:	e1c01411 	bic	r1, r0, r1, lsl r4
    9040:	e1811415 	orr	r1, r1, r5, lsl r4
    9044:	e1a00006 	mov	r0, r6
    9048:	ebfffbf5 	bl	8024 <PUT32>
    904c:	e8bd8070 	pop	{r4, r5, r6, pc}
    9050:	cccccccd 	stclgt	12, cr12, [ip], {205}	; 0xcd

00009054 <gpio_set_output>:
    9054:	e92d4010 	push	{r4, lr}
    9058:	e3a01001 	mov	r1, #1, 0
    905c:	ebffffe3 	bl	8ff0 <gpio_set_function>
    9060:	e8bd8010 	pop	{r4, pc}

00009064 <gpio_set_on>:
    9064:	e350001f 	cmp	r0, #31, 0
    9068:	812fff1e 	bxhi	lr
    906c:	e92d4010 	push	{r4, lr}
    9070:	e3a01001 	mov	r1, #1, 0
    9074:	e1a01011 	lsl	r1, r1, r0
    9078:	e59f0004 	ldr	r0, [pc, #4]	; 9084 <gpio_set_on+0x20>
    907c:	ebfffbe8 	bl	8024 <PUT32>
    9080:	e8bd8010 	pop	{r4, pc}
    9084:	2020001c 	eorcs	r0, r0, ip, lsl r0

00009088 <gpio_set_off>:
    9088:	e350001f 	cmp	r0, #31, 0
    908c:	812fff1e 	bxhi	lr
    9090:	e92d4010 	push	{r4, lr}
    9094:	e3a01001 	mov	r1, #1, 0
    9098:	e1a01011 	lsl	r1, r1, r0
    909c:	e59f0004 	ldr	r0, [pc, #4]	; 90a8 <gpio_set_off+0x20>
    90a0:	ebfffbdf 	bl	8024 <PUT32>
    90a4:	e8bd8010 	pop	{r4, pc}
    90a8:	20200028 	eorcs	r0, r0, r8, lsr #32

000090ac <gpio_set_input>:
    90ac:	e92d4010 	push	{r4, lr}
    90b0:	e3a01000 	mov	r1, #0, 0
    90b4:	ebffffcd 	bl	8ff0 <gpio_set_function>
    90b8:	e8bd8010 	pop	{r4, pc}

000090bc <gpio_write>:
    90bc:	e92d4010 	push	{r4, lr}
    90c0:	e3510000 	cmp	r1, #0, 0
    90c4:	0a000001 	beq	90d0 <gpio_write+0x14>
    90c8:	ebffffe5 	bl	9064 <gpio_set_on>
    90cc:	e8bd8010 	pop	{r4, pc}
    90d0:	ebffffec 	bl	9088 <gpio_set_off>
    90d4:	e8bd8010 	pop	{r4, pc}

000090d8 <gpio_read>:
    90d8:	e350001f 	cmp	r0, #31, 0
    90dc:	8a000007 	bhi	9100 <gpio_read+0x28>
    90e0:	e92d4010 	push	{r4, lr}
    90e4:	e200401f 	and	r4, r0, #31, 0
    90e8:	e59f3018 	ldr	r3, [pc, #24]	; 9108 <gpio_read+0x30>
    90ec:	e08302a0 	add	r0, r3, r0, lsr #5
    90f0:	ebfffbcd 	bl	802c <GET32>
    90f4:	e1a00430 	lsr	r0, r0, r4
    90f8:	e2000001 	and	r0, r0, #1, 0
    90fc:	e8bd8010 	pop	{r4, pc}
    9100:	e3e00000 	mvn	r0, #0, 0
    9104:	e12fff1e 	bx	lr
    9108:	20200034 	eorcs	r0, r0, r4, lsr r0

0000910c <__code_end__>:
    910c:	00000000 	andeq	r0, r0, r0

Disassembly of section .rodata:

00009110 <__FUNCTION__.4210-0x100>:
    9110:	656e6567 	strbvs	r6, [lr, #-1383]!	; 0xfffffa99
    9114:	5f636972 	svcpl	0x00636972
    9118:	6c6c6163 	stfvse	f6, [ip], #-396	; 0xfffffe74
    911c:	746e695f 	strbtvc	r6, [lr], #-2399	; 0xfffff6a1
    9120:	746e6928 	strbtvc	r6, [lr], #-2344	; 0xfffff6d8
    9124:	296e2c76 	stmdbcs	lr!, {r1, r2, r4, r5, r6, sl, fp, sp}^
    9128:	00000000 	andeq	r0, r0, r0
    912c:	74736f63 	ldrbtvc	r6, [r3], #-3939	; 0xfffff09d
    9130:	20666f20 	rsbcs	r6, r6, r0, lsr #30
    9134:	656e6567 	strbvs	r6, [lr, #-1383]!	; 0xfffffa99
    9138:	2d636972 			; <UNDEFINED> instruction: 0x2d636972
    913c:	20746e69 	rsbscs	r6, r4, r9, ror #28
    9140:	6c6c6163 	stfvse	f6, [ip], #-396	; 0xfffffe74
    9144:	00676e69 	rsbeq	r6, r7, r9, ror #28
    9148:	203a7325 	eorscs	r7, sl, r5, lsr #6
    914c:	63206425 			; <UNDEFINED> instruction: 0x63206425
    9150:	656c6379 	strbvs	r6, [ip, #-889]!	; 0xfffffc87
    9154:	78282073 	stmdavc	r8!, {r0, r1, r4, r5, r6, sp}
    9158:	20293031 	eorcs	r3, r9, r1, lsr r0
    915c:	3e73253c 	mrccc	5, 3, r2, cr3, cr12, {1}
    9160:	0000000a 	andeq	r0, r0, sl
    9164:	2d746e69 	ldclcs	14, cr6, [r4, #-420]!	; 0xfffffe5c
    9168:	706d6f63 	rsbvc	r6, sp, r3, ror #30
    916c:	2e656c69 	cdpcs	12, 6, cr6, cr5, cr9, {3}
    9170:	00000063 	andeq	r0, r0, r3, rrx
    9174:	4f525245 	svcmi	0x00525245
    9178:	73253a52 			; <UNDEFINED> instruction: 0x73253a52
    917c:	3a73253a 	bcc	1cd266c <__bss_end__+0x1cc8dbc>
    9180:	203a6425 	eorscs	r6, sl, r5, lsr #8
    9184:	534c4146 	movtpl	r4, #49478	; 0xc146
    9188:	253c2845 	ldrcs	r2, [ip, #-2117]!	; 0xfffff7bb
    918c:	3a293e73 	bcc	a58b60 <__bss_end__+0xa4f2b0>
    9190:	6e632220 	cdpvs	2, 6, cr2, cr3, cr0, {1}
    9194:	64253d74 	strtvs	r3, [r5], #-3444	; 0xfffff28c
    9198:	7865202c 	stmdavc	r5!, {r2, r3, r5, sp}^
    919c:	74636570 	strbtvc	r6, [r3], #-1392	; 0xfffffa90
    91a0:	253d6465 	ldrcs	r6, [sp, #-1125]!	; 0xfffffb9b
    91a4:	226e5c64 	rsbcs	r5, lr, #100, 24	; 0x6400
    91a8:	0000000a 	andeq	r0, r0, sl
    91ac:	20746e63 	rsbscs	r6, r4, r3, ror #28
    91b0:	6e203d3d 	mcrvs	13, 1, r3, cr0, cr13, {1}
    91b4:	0030312a 	eorseq	r3, r0, sl, lsr #2
    91b8:	63657073 	cmnvs	r5, #115, 0	; 0x73
    91bc:	696c6169 	stmdbvs	ip!, {r0, r3, r5, r6, r8, sp, lr}^
    91c0:	5f64657a 	svcpl	0x0064657a
    91c4:	6c6c6163 	stfvse	f6, [ip], #-396	; 0xfffffe74
    91c8:	746e695f 	strbtvc	r6, [lr], #-2399	; 0xfffff6a1
    91cc:	00002928 	andeq	r2, r0, r8, lsr #18
    91d0:	74736f63 	ldrbtvc	r6, [r3], #-3939	; 0xfffff09d
    91d4:	20666f20 	rsbcs	r6, r6, r0, lsr #30
    91d8:	63657073 	cmnvs	r5, #115, 0	; 0x73
    91dc:	696c6169 	stmdbvs	ip!, {r0, r3, r5, r6, r8, sp, lr}^
    91e0:	2064657a 	rsbcs	r6, r4, sl, ror r5
    91e4:	20746e69 	rsbscs	r6, r4, r9, ror #28
    91e8:	6c6c6163 	stfvse	f6, [ip], #-396	; 0xfffffe74
    91ec:	00676e69 	rsbeq	r6, r7, r9, ror #28
    91f0:	00008038 	andeq	r8, r0, r8, lsr r0
    91f4:	00008050 	andeq	r8, r0, r0, asr r0
    91f8:	00008068 	andeq	r8, r0, r8, rrx
    91fc:	00008080 	andeq	r8, r0, r0, lsl #1
    9200:	00008098 	muleq	r0, r8, r0
    9204:	000080b0 	strheq	r8, [r0], -r0
    9208:	000080c8 	andeq	r8, r0, r8, asr #1
    920c:	000080e0 	andeq	r8, r0, r0, ror #1

00009210 <__FUNCTION__.4210>:
    9210:	6d746f6e 	ldclvs	15, cr6, [r4, #-440]!	; 0xfffffe48
    9214:	006e6961 	rsbeq	r6, lr, r1, ror #18
    9218:	696c2f2e 	stmdbvs	ip!, {r1, r2, r3, r5, r8, r9, sl, fp, sp}^
    921c:	762f6362 	strtvc	r6, [pc], -r2, ror #6
    9220:	72702d61 	rsbsvc	r2, r0, #6208	; 0x1840
    9224:	6b746e69 	blvs	1d24bd0 <__bss_end__+0x1d1b320>
    9228:	0000632e 	andeq	r6, r0, lr, lsr #6
    922c:	494e4150 	stmdbmi	lr, {r4, r6, r8, lr}^
    9230:	73253a43 			; <UNDEFINED> instruction: 0x73253a43
    9234:	3a73253a 	bcc	1cd2724 <__bss_end__+0x1cc8e74>
    9238:	253a6425 	ldrcs	r6, [sl, #-1061]!	; 0xfffffbdb
    923c:	00000a73 	andeq	r0, r0, r3, ror sl
    9240:	00000030 	andeq	r0, r0, r0, lsr r0
    9244:	33323130 	teqcc	r2, #12
    9248:	37363534 			; <UNDEFINED> instruction: 0x37363534
    924c:	00003938 	andeq	r3, r0, r8, lsr r9
    9250:	33323130 	teqcc	r2, #12
    9254:	37363534 			; <UNDEFINED> instruction: 0x37363534
    9258:	62613938 	rsbvs	r3, r1, #56, 18	; 0xe0000
    925c:	66656463 	strbtvs	r6, [r5], -r3, ror #8
    9260:	00000000 	andeq	r0, r0, r0
    9264:	00003130 	andeq	r3, r0, r0, lsr r1
    9268:	63747570 	cmnvs	r4, #112, 10	; 0x1c000000
    926c:	0070665f 	rsbseq	r6, r0, pc, asr r6
    9270:	74646977 	strbtvc	r6, [r4], #-2423	; 0xfffff689
    9274:	203c2068 	eorscs	r2, ip, r8, rrx
    9278:	00003233 	andeq	r3, r0, r3, lsr r2
    927c:	00786c6c 	rsbseq	r6, r8, ip, ror #24
    9280:	00646c6c 	rsbeq	r6, r4, ip, ror #24
    9284:	253d3078 	ldrcs	r3, [sp, #-120]!	; 0xffffff88
    9288:	00000a78 	andeq	r0, r0, r8, ror sl
    928c:	253d3178 	ldrcs	r3, [sp, #-376]!	; 0xfffffe88
    9290:	00000a78 	andeq	r0, r0, r8, ror sl
    9294:	6e727473 	mrcvs	4, 3, r7, cr2, cr3, {3}
    9298:	28706d63 	ldmdacs	r0!, {r0, r1, r5, r6, r8, sl, fp, sp, lr}^
    929c:	202c7974 	eorcs	r7, ip, r4, ror r9
    92a0:	786c6c22 	stmdavc	ip!, {r1, r5, sl, fp, sp, lr}^
    92a4:	33202c22 			; <UNDEFINED> instruction: 0x33202c22
    92a8:	3d3d2029 	ldccc	0, cr2, [sp, #-164]!	; 0xffffff5c
    92ac:	7c203020 	stcvc	0, cr3, [r0], #-128	; 0xffffff80
    92b0:	7473207c 	ldrbtvc	r2, [r3], #-124	; 0xffffff84
    92b4:	6d636e72 	stclvs	14, cr6, [r3, #-456]!	; 0xfffffe38
    92b8:	79742870 	ldmdbvc	r4!, {r4, r5, r6, fp, sp}^
    92bc:	6c22202c 	stcvs	0, cr2, [r2], #-176	; 0xffffff50
    92c0:	2c22646c 	cfstrscs	mvf6, [r2], #-432	; 0xfffffe50
    92c4:	20293320 	eorcs	r3, r9, r0, lsr #6
    92c8:	30203d3d 	eorcc	r3, r0, sp, lsr sp
    92cc:	00000000 	andeq	r0, r0, r0
    92d0:	494e4150 	stmdbmi	lr, {r4, r6, r8, lr}^
    92d4:	73253a43 			; <UNDEFINED> instruction: 0x73253a43
    92d8:	3a73253a 	bcc	1cd27c8 <__bss_end__+0x1cc8f18>
    92dc:	693a6425 	ldmdbvs	sl!, {r0, r2, r5, sl, sp, lr}
    92e0:	736f706d 	cmnvc	pc, #109, 0	; 0x6d
    92e4:	6c626973 			; <UNDEFINED> instruction: 0x6c626973
    92e8:	66203a65 	strtvs	r3, [r0], -r5, ror #20
    92ec:	3c3d746d 	cfldrscc	mvf7, [sp], #-436	; 0xfffffe4c
    92f0:	0a3e7325 	beq	fa5f8c <__bss_end__+0xf9c6dc>
    92f4:	0000000a 	andeq	r0, r0, sl
    92f8:	494e4150 	stmdbmi	lr, {r4, r6, r8, lr}^
    92fc:	73253a43 			; <UNDEFINED> instruction: 0x73253a43
    9300:	3a73253a 	bcc	1cd27f0 <__bss_end__+0x1cc8f40>
    9304:	663a6425 	ldrtvs	r6, [sl], -r5, lsr #8
    9308:	74616f6c 	strbtvc	r6, [r1], #-3948	; 0xfffff094
    930c:	746f6e20 	strbtvc	r6, [pc], #-3616	; 9314 <__FUNCTION__.4210+0x104>
    9310:	616e6520 	cmnvs	lr, r0, lsr #10
    9314:	64656c62 	strbtvs	r6, [r5], #-3170	; 0xfffff39e
    9318:	0a212121 	beq	8517a4 <__bss_end__+0x847ef4>
    931c:	00000000 	andeq	r0, r0, r0
    9320:	6e697270 	mcrvs	2, 3, r7, cr9, cr0, {3}
    9324:	203a6b74 	eorscs	r6, sl, r4, ror fp
    9328:	20746f6e 	rsbscs	r6, r4, lr, ror #30
    932c:	646e6168 	strbtvs	r6, [lr], #-360	; 0xfffffe98
    9330:	676e696c 	strbvs	r6, [lr, -ip, ror #18]!
    9334:	65707320 	ldrbvs	r7, [r0, #-800]!	; 0xfffffce0
    9338:	69666963 	stmdbvs	r6!, {r0, r1, r5, r6, r8, fp, sp, lr}^
    933c:	27207265 	strcs	r7, [r0, -r5, ror #4]!
    9340:	20276325 	eorcs	r6, r7, r5, lsr #6
    9344:	63736128 	cmnvs	r3, #10
    9348:	253d6969 	ldrcs	r6, [sp, #-2409]!	; 0xfffff697
    934c:	000a2964 	andeq	r2, sl, r4, ror #18
    9350:	494e4150 	stmdbmi	lr, {r4, r6, r8, lr}^
    9354:	73253a43 			; <UNDEFINED> instruction: 0x73253a43
    9358:	3a73253a 	bcc	1cd2848 <__bss_end__+0x1cc8f98>
    935c:	703a6425 	eorsvc	r6, sl, r5, lsr #8
    9360:	746e6972 	strbtvc	r6, [lr], #-2418	; 0xfffff68e
    9364:	7265206b 	rsbvc	r2, r5, #107, 0	; 0x6b
    9368:	0a726f72 	beq	1ca5138 <__bss_end__+0x1c9b888>
    936c:	0000000a 	andeq	r0, r0, sl

00009370 <__FUNCTION__.4008>:
    9370:	74696d65 	strbtvc	r6, [r9], #-3429	; 0xfffff29b
    9374:	00000000 	andeq	r0, r0, r0

00009378 <__FUNCTION__.3956>:
    9378:	5f697072 	svcpl	0x00697072
    937c:	5f746573 	svcpl	0x00746573
    9380:	7074756f 	rsbsvc	r7, r4, pc, ror #10
    9384:	00007475 	andeq	r7, r0, r5, ror r4

00009388 <__FUNCTION__.4034>:
    9388:	705f6176 	subsvc	r6, pc, r6, ror r1	; <UNPREDICTABLE>
    938c:	746e6972 	strbtvc	r6, [lr], #-2418	; 0xfffff68e
    9390:	0000006b 	andeq	r0, r0, fp, rrx
    9394:	454e4f44 	strbmi	r4, [lr, #-3908]	; 0xfffff0bc
    9398:	0a212121 	beq	851824 <__bss_end__+0x847f74>
	...

Disassembly of section .data:

000093a0 <rpi_putchar>:
    93a0:	00008418 	andeq	r8, r0, r8, lsl r4

000093a4 <putk>:
    93a4:	00008454 	andeq	r8, r0, r4, asr r4

Disassembly of section .bss:

000093a8 <__bss_start__>:
    93a8:	00000000 	andeq	r0, r0, r0

000093ac <code.4188>:
	...

000094ac <specialized_call_fn>:
    94ac:	00000000 	andeq	r0, r0, r0

000094b0 <buf.3948>:
	...

Disassembly of section .ARM.attributes:

00000000 <.ARM.attributes>:
   0:	00002a41 	andeq	r2, r0, r1, asr #20
   4:	61656100 	cmnvs	r5, r0, lsl #2
   8:	01006962 	tsteq	r0, r2, ror #18
   c:	00000020 	andeq	r0, r0, r0, lsr #32
  10:	4b5a3605 	blmi	168d82c <__bss_end__+0x1683f7c>
  14:	08070600 	stmdaeq	r7, {r9, sl}
  18:	12010901 	andne	r0, r1, #16384	; 0x4000
  1c:	15011404 	strne	r1, [r1, #-1028]	; 0xfffffbfc
  20:	18031701 	stmdane	r3, {r0, r8, r9, sl, ip}
  24:	22011a01 	andcs	r1, r1, #4096	; 0x1000
  28:	Address 0x0000000000000028 is out of bounds.


Disassembly of section .comment:

00000000 <.comment>:
   0:	3a434347 	bcc	10d0d24 <__bss_end__+0x10c7474>
   4:	4e472820 	cdpmi	8, 4, cr2, cr7, cr0, {1}
   8:	6f542055 	svcvs	0x00542055
   c:	20736c6f 	rsbscs	r6, r3, pc, ror #24
  10:	20726f66 	rsbscs	r6, r2, r6, ror #30
  14:	206d7241 	rsbcs	r7, sp, r1, asr #4
  18:	65626d45 	strbvs	r6, [r2, #-3397]!	; 0xfffff2bb
  1c:	64656464 	strbtvs	r6, [r5], #-1124	; 0xfffffb9c
  20:	6f725020 	svcvs	0x00725020
  24:	73736563 	cmnvc	r3, #415236096	; 0x18c00000
  28:	2073726f 	rsbscs	r7, r3, pc, ror #4
  2c:	30322d39 	eorscc	r2, r2, r9, lsr sp
  30:	712d3931 			; <UNDEFINED> instruction: 0x712d3931
  34:	616d2d34 	cmnvs	sp, r4, lsr sp
  38:	29726f6a 	ldmdbcs	r2!, {r1, r3, r5, r6, r8, r9, sl, fp, sp, lr}^
  3c:	322e3920 	eorcc	r3, lr, #32, 18	; 0x80000
  40:	3220312e 	eorcc	r3, r0, #-2147483637	; 0x8000000b
  44:	31393130 	teqcc	r9, r0, lsr r1
  48:	20353230 	eorscs	r3, r5, r0, lsr r2
  4c:	6c657228 	sfmvs	f7, 2, [r5], #-160	; 0xffffff60
  50:	65736165 	ldrbvs	r6, [r3, #-357]!	; 0xfffffe9b
  54:	415b2029 	cmpmi	fp, r9, lsr #32
  58:	612f4d52 			; <UNDEFINED> instruction: 0x612f4d52
  5c:	392d6d72 	pushcc	{r1, r4, r5, r6, r8, sl, fp, sp, lr}
  60:	6172622d 	cmnvs	r2, sp, lsr #4
  64:	2068636e 	rsbcs	r6, r8, lr, ror #6
  68:	69766572 	ldmdbvs	r6!, {r1, r4, r5, r6, r8, sl, sp, lr}^
  6c:	6e6f6973 			; <UNDEFINED> instruction: 0x6e6f6973
  70:	37373220 	ldrcc	r3, [r7, -r0, lsr #4]!
  74:	5d393935 			; <UNDEFINED> instruction: 0x5d393935
  78:	43434700 	movtmi	r4, #14080	; 0x3700
  7c:	4728203a 			; <UNDEFINED> instruction: 0x4728203a
  80:	4120554e 			; <UNDEFINED> instruction: 0x4120554e
  84:	45206d72 	strmi	r6, [r0, #-3442]!	; 0xfffff28e
  88:	6465626d 	strbtvs	r6, [r5], #-621	; 0xfffffd93
  8c:	20646564 	rsbcs	r6, r4, r4, ror #10
  90:	6c6f6f54 	stclvs	15, cr6, [pc], #-336	; ffffff48 <__bss_end__+0xffff6698>
  94:	69616863 	stmdbvs	r1!, {r0, r1, r5, r6, fp, sp, lr}^
  98:	3031206e 	eorscc	r2, r1, lr, rrx
  9c:	322d332e 	eorcc	r3, sp, #-1207959552	; 0xb8000000
  a0:	2e313230 	mrccs	2, 1, r3, cr1, cr0, {1}
  a4:	20293031 	eorcs	r3, r9, r1, lsr r0
  a8:	332e3031 			; <UNDEFINED> instruction: 0x332e3031
  ac:	3220312e 	eorcc	r3, r0, #-2147483637	; 0x8000000b
  b0:	30313230 	eorscc	r3, r1, r0, lsr r2
  b4:	20343238 	eorscs	r3, r4, r8, lsr r2
  b8:	6c657228 	sfmvs	f7, 2, [r5], #-160	; 0xffffff60
  bc:	65736165 	ldrbvs	r6, [r3, #-357]!	; 0xfffffe9b
  c0:	Address 0x00000000000000c0 is out of bounds.


Disassembly of section .debug_info:

00000000 <.debug_info>:
       0:	0000094e 	andeq	r0, r0, lr, asr #18
       4:	00000004 	andeq	r0, r0, r4
       8:	01040000 	mrseq	r0, (UNDEF: 4)
       c:	00000214 	andeq	r0, r0, r4, lsl r2
      10:	00007b0c 	andeq	r7, r0, ip, lsl #22
      14:	00030f00 	andeq	r0, r3, r0, lsl #30
      18:	00803800 	addeq	r3, r0, r0, lsl #16
      1c:	00038800 	andeq	r8, r3, r0, lsl #16
      20:	00000000 	andeq	r0, r0, r0
      24:	05040200 	streq	r0, [r4, #-512]	; 0xfffffe00
      28:	00746e69 	rsbseq	r6, r4, r9, ror #28
      2c:	88070403 	stmdahi	r7, {r0, r1, sl}
      30:	04000001 	streq	r0, [r0], #-1
      34:	0000002c 	andeq	r0, r0, ip, lsr #32
      38:	41060103 	tstmi	r6, r3, lsl #2
      3c:	03000001 	movweq	r0, #1
      40:	00310502 	eorseq	r0, r1, r2, lsl #10
      44:	9d050000 	stcls	0, cr0, [r5, #-0]
      48:	02000001 	andeq	r0, r0, #1, 0
      4c:	00521828 	subseq	r1, r2, r8, lsr #16
      50:	04030000 	streq	r0, [r3], #-0
      54:	0000d505 	andeq	sp, r0, r5, lsl #10
      58:	05080300 	streq	r0, [r8, #-768]	; 0xfffffd00
      5c:	000000d0 	ldrdeq	r0, [r0], -r0	; <UNPREDICTABLE>
      60:	3f080103 	svccc	0x00080103
      64:	03000001 	movweq	r0, #1
      68:	01cf0702 	biceq	r0, pc, r2, lsl #14
      6c:	9c050000 	stcls	0, cr0, [r5], {-0}
      70:	02000001 	andeq	r0, r0, #1, 0
      74:	007a1934 	rsbseq	r1, sl, r4, lsr r9
      78:	04030000 	streq	r0, [r3], #-0
      7c:	00018307 	andeq	r8, r1, r7, lsl #6
      80:	07080300 	streq	r0, [r8, -r0, lsl #6]
      84:	0000017e 	andeq	r0, r0, lr, ror r1
      88:	00002506 	andeq	r2, r0, r6, lsl #10
      8c:	00009700 	andeq	r9, r0, r0, lsl #14
      90:	00250700 	eoreq	r0, r5, r0, lsl #14
      94:	08000000 	stmdaeq	r0, {}	; <UNPREDICTABLE>
      98:	0000006f 	andeq	r0, r0, pc, rrx
      9c:	a30e1c03 	movwge	r1, #60419	; 0xec03
      a0:	09000000 	stmdbeq	r0, {}	; <UNPREDICTABLE>
      a4:	00008804 	andeq	r8, r0, r4, lsl #16
      a8:	00250600 	eoreq	r0, r5, r0, lsl #12
      ac:	00b80000 	adcseq	r0, r8, r0
      b0:	b8070000 	stmdalt	r7, {}	; <UNPREDICTABLE>
      b4:	00000000 	andeq	r0, r0, r0
      b8:	00c50409 	sbceq	r0, r5, r9, lsl #8
      bc:	01030000 	mrseq	r0, (UNDEF: 3)
      c0:	00014808 	andeq	r4, r1, r8, lsl #16
      c4:	00be0a00 	adcseq	r0, lr, r0, lsl #20
      c8:	7e080000 	cdpvc	0, 0, cr0, cr8, cr0, {0}
      cc:	03000005 	movweq	r0, #5
      d0:	00d60e21 	sbcseq	r0, r6, r1, lsr #28
      d4:	04090000 	streq	r0, [r9], #-0
      d8:	000000a9 	andeq	r0, r0, r9, lsr #1
      dc:	6001070b 	andvs	r0, r1, fp, lsl #14
      e0:	04000000 	streq	r0, [r0], #-0
      e4:	015d0607 	cmpeq	sp, r7, lsl #12
      e8:	540c0000 	strpl	r0, [ip], #-0
      ec:	00000001 	andeq	r0, r0, r1
      f0:	00015b0c 	andeq	r5, r1, ip, lsl #22
      f4:	620c0100 	andvs	r0, ip, #0
      f8:	02000001 	andeq	r0, r0, #1, 0
      fc:	0001690c 	andeq	r6, r1, ip, lsl #18
     100:	700c0300 	andvc	r0, ip, r0, lsl #6
     104:	04000001 	streq	r0, [r0], #-1
     108:	00020d0c 	andeq	r0, r2, ip, lsl #26
     10c:	770c0500 	strvc	r0, [ip, -r0, lsl #10]
     110:	06000001 	streq	r0, [r0], -r1
     114:	0002c90c 	andeq	ip, r2, ip, lsl #18
     118:	950c0700 	strls	r0, [ip, #-1792]	; 0xfffff900
     11c:	08000001 	stmdaeq	r0, {r0}
     120:	0001f40c 	andeq	pc, r1, ip, lsl #8
     124:	ef0c0900 	svc	0x000c0900
     128:	0a000002 	beq	138 <__code_start__-0x7ec8>
     12c:	0002f70c 	andeq	pc, r2, ip, lsl #14
     130:	ff0c0b00 			; <UNDEFINED> instruction: 0xff0c0b00
     134:	0c000002 	stceq	0, cr0, [r0], {2}
     138:	0003070c 	andeq	r0, r3, ip, lsl #14
     13c:	c00c0d00 	andgt	r0, ip, r0, lsl #26
     140:	0e000003 	cdpeq	0, 0, cr0, cr0, cr3, {0}
     144:	00036e0c 	andeq	r6, r3, ip, lsl #28
     148:	0b0c0f00 	bleq	303d50 <__bss_end__+0x2fa4a0>
     14c:	0d000000 	stceq	0, cr0, [r0, #-0]
     150:	0000890c 	andeq	r8, r0, ip, lsl #18
     154:	970c0e00 	strls	r0, [ip, -r0, lsl #28]
     158:	0f000000 	svceq	0x00000000
     15c:	01070b00 	tsteq	r7, r0, lsl #22
     160:	00000060 	andeq	r0, r0, r0, rrx
     164:	c6062004 	strgt	r2, [r6], -r4
     168:	0c000001 	stceq	0, cr0, [r0], {1}
     16c:	000001e2 	andeq	r0, r0, r2, ror #3
     170:	03f50c00 	mvnseq	r0, #0, 24
     174:	0c010000 	stceq	0, cr0, [r1], {-0}
     178:	000001fb 	strdeq	r0, [r0], -fp
     17c:	00120c02 	andseq	r0, r2, r2, lsl #24
     180:	0c030000 	stceq	0, cr0, [r3], {-0}
     184:	000002d0 	ldrdeq	r0, [r0], -r0	; <UNPREDICTABLE>
     188:	01ab0c04 			; <UNDEFINED> instruction: 0x01ab0c04
     18c:	0c050000 	stceq	0, cr0, [r5], {-0}
     190:	00000090 	muleq	r0, r0, r0
     194:	003b0c06 	eorseq	r0, fp, r6, lsl #24
     198:	0c070000 	stceq	0, cr0, [r7], {-0}
     19c:	000000e5 	andeq	r0, r0, r5, ror #1
     1a0:	014d0c08 	cmpeq	sp, r8, lsl #24
     1a4:	0c090000 	stceq	0, cr0, [r9], {-0}
     1a8:	00000042 	andeq	r0, r0, r2, asr #32
     1ac:	01380c0a 	teqeq	r8, sl, lsl #24
     1b0:	0c0b0000 	stceq	0, cr0, [fp], {-0}
     1b4:	00000123 	andeq	r0, r0, r3, lsr #2
     1b8:	00de0c0c 	sbcseq	r0, lr, ip, lsl #24
     1bc:	0c0d0000 	stceq	0, cr0, [sp], {-0}
     1c0:	00000131 	andeq	r0, r0, r1, lsr r1
     1c4:	070b000e 	streq	r0, [fp, -lr]
     1c8:	00006001 	andeq	r6, r0, r1
     1cc:	06340400 	ldrteq	r0, [r4], -r0, lsl #8
     1d0:	00000235 	andeq	r0, r0, r5, lsr r2
     1d4:	0000f90c 	andeq	pc, r0, ip, lsl #18
     1d8:	640c0000 	strvs	r0, [ip], #-0
     1dc:	01000000 	mrseq	r0, (UNDEF: 0)
     1e0:	0000ba0c 	andeq	fp, r0, ip, lsl #20
     1e4:	c50c0200 	strgt	r0, [ip, #-512]	; 0xfffffe00
     1e8:	03000000 	movweq	r0, #0
     1ec:	00009e0c 	andeq	r9, r0, ip, lsl #28
     1f0:	c80c0400 	stmdagt	ip, {sl}
     1f4:	05000003 	streq	r0, [r0, #-3]
     1f8:	0000490c 	andeq	r4, r0, ip, lsl #18
     1fc:	b70c0600 	strlt	r0, [ip, -r0, lsl #12]
     200:	07000001 	streq	r0, [r0, -r1]
     204:	0003ea0c 	andeq	lr, r3, ip, lsl #20
     208:	af0c0800 	svcge	0x000c0800
     20c:	09000000 	stmdbeq	r0, {}	; <UNPREDICTABLE>
     210:	0003d90c 	andeq	sp, r3, ip, lsl #18
     214:	0b0c0a00 	bleq	302a1c <__bss_end__+0x2f916c>
     218:	0b000001 	bleq	224 <__code_start__-0x7ddc>
     21c:	0000540c 	andeq	r5, r0, ip, lsl #8
     220:	e90c0c00 	stmdb	ip, {sl, fp}
     224:	0d000001 	stceq	0, cr0, [r0, #-4]
     228:	0002020c 	andeq	r0, r2, ip, lsl #4
     22c:	000c0e00 	andeq	r0, ip, r0, lsl #28
     230:	0f000000 	svceq	0x00000000
     234:	01040500 	tsteq	r4, r0, lsl #10
     238:	07010000 	streq	r0, [r1, -r0]
     23c:	00024110 	andeq	r4, r2, r0, lsl r1
     240:	47040900 	strmi	r0, [r4, -r0, lsl #18]
     244:	0d000002 	stceq	0, cr0, [r0, #-8]
     248:	746e630e 	strbtvc	r6, [lr], #-782	; 0xfffffcf2
     24c:	1a090100 	bne	240654 <__bss_end__+0x236da4>
     250:	00000033 	andeq	r0, r0, r3, lsr r0
     254:	93a80305 			; <UNDEFINED> instruction: 0x93a80305
     258:	ac0f0000 	stcge	0, cr0, [pc], {-0}
     25c:	01000003 	tsteq	r0, r3
     260:	02410f1b 	subeq	r0, r1, #108	; 0x6c
     264:	03050000 	movweq	r0, #20480	; 0x5000
     268:	000094ac 	andeq	r9, r0, ip, lsr #9
     26c:	0001c710 	andeq	ip, r1, r0, lsl r7
     270:	06510100 	ldrbeq	r0, [r1], -r0, lsl #2
     274:	000081e8 	andeq	r8, r0, r8, ror #3
     278:	000001d8 	ldrdeq	r0, [r0], -r8
     27c:	06589c01 	ldrbeq	r9, [r8], -r1, lsl #24
     280:	c20f0000 	andgt	r0, pc, #0, 0
     284:	01000001 	tsteq	r0, r1
     288:	06580c52 			; <UNDEFINED> instruction: 0x06580c52
     28c:	91020000 	mrsls	r0, (UNDEF: 2)
     290:	006e1150 	rsbeq	r1, lr, r0, asr r1
     294:	2c0e5f01 	stccs	15, cr5, [lr], {1}
     298:	08000000 	stmdaeq	r0, {}	; <UNPREDICTABLE>
     29c:	0000ec12 	andeq	lr, r0, r2, lsl ip
     2a0:	00067800 	andeq	r7, r6, r0, lsl #16
     2a4:	10030500 	andne	r0, r3, r0, lsl #10
     2a8:	13000092 	movwne	r0, #146	; 0x92
     2ac:	00008208 	andeq	r8, r0, r8, lsl #4
     2b0:	00000008 	andeq	r0, r0, r8
     2b4:	000002c5 	andeq	r0, r0, r5, asr #5
     2b8:	006e6911 	rsbeq	r6, lr, r1, lsl r9
     2bc:	2c055d01 	stccs	13, cr5, [r5], {1}
     2c0:	01000000 	mrseq	r0, (UNDEF: 0)
     2c4:	821c1300 	andshi	r1, ip, #0, 6
     2c8:	00940000 	addseq	r0, r4, r0
     2cc:	04790000 	ldrbteq	r0, [r9], #-0
     2d0:	5f140000 	svcpl	0x00140000
     2d4:	68010074 	stmdavs	r1, {r2, r4, r5, r6}
     2d8:	00002c05 	andeq	r2, r0, r5, lsl #24
     2dc:	00000400 	andeq	r0, r0, r0, lsl #8
     2e0:	00000000 	andeq	r0, r0, r0
     2e4:	821c1300 	andshi	r1, ip, #0, 6
     2e8:	00800000 	addeq	r0, r0, r0
     2ec:	04530000 	ldrbeq	r0, [r3], #-0
     2f0:	5f140000 	svcpl	0x00140000
     2f4:	68010073 	stmdavs	r1, {r0, r1, r4, r5, r6}
     2f8:	00002c05 	andeq	r2, r0, r5, lsl #24
     2fc:	00002900 	andeq	r2, r0, r0, lsl #18
     300:	00002700 	andeq	r2, r0, r0, lsl #14
     304:	655f1400 	ldrbvs	r1, [pc, #-1024]	; ffffff0c <__bss_end__+0xffff665c>
     308:	05680100 	strbeq	r0, [r8, #-256]!	; 0xffffff00
     30c:	0000002c 	andeq	r0, r0, ip, lsr #32
     310:	0000003e 	andeq	r0, r0, lr, lsr r0
     314:	0000003c 	andeq	r0, r0, ip, lsr r0
     318:	00821c13 	addeq	r1, r2, r3, lsl ip
     31c:	00000400 	andeq	r0, r0, r0, lsl #8
     320:	00033a00 	andeq	r3, r3, r0, lsl #20
     324:	005f1500 	subseq	r1, pc, r0, lsl #10
     328:	68010000 	stmdavs	r1, {}	; <UNPREDICTABLE>
     32c:	00002c05 	andeq	r2, r0, r5, lsl #24
     330:	00005300 	andeq	r5, r0, r0, lsl #6
     334:	00005100 	andeq	r5, r0, r0, lsl #2
     338:	98130000 	ldmdals	r3, {}	; <UNPREDICTABLE>
     33c:	04000082 	streq	r0, [r0], #-130	; 0xffffff7e
     340:	5c000000 	stcpl	0, cr0, [r0], {-0}
     344:	15000003 	strne	r0, [r0, #-3]
     348:	0000005f 	andeq	r0, r0, pc, asr r0
     34c:	2c056801 	stccs	8, cr6, [r5], {1}
     350:	68000000 	stmdavs	r0, {}	; <UNPREDICTABLE>
     354:	66000000 	strvs	r0, [r0], -r0
     358:	00000000 	andeq	r0, r0, r0
     35c:	00822c16 	addeq	r2, r2, r6, lsl ip
     360:	00084400 	andeq	r4, r8, r0, lsl #8
     364:	00037500 	andeq	r7, r3, r0, lsl #10
     368:	50011700 	andpl	r1, r1, r0, lsl #14
     36c:	17489102 	strbne	r9, [r8, -r2, lsl #2]
     370:	38015101 	stmdacc	r1, {r0, r8, ip, lr}
     374:	82381600 	eorshi	r1, r8, #0, 12
     378:	08440000 	stmdaeq	r4, {}^	; <UNPREDICTABLE>
     37c:	038e0000 	orreq	r0, lr, #0, 0
     380:	01170000 	tsteq	r7, r0
     384:	48910250 	ldmmi	r1, {r4, r6, r9}
     388:	01510117 	cmpeq	r1, r7, lsl r1
     38c:	44160038 	ldrmi	r0, [r6], #-56	; 0xffffffc8
     390:	44000082 	strmi	r0, [r0], #-130	; 0xffffff7e
     394:	a7000008 	strge	r0, [r0, -r8]
     398:	17000003 	strne	r0, [r0, -r3]
     39c:	91025001 	tstls	r2, r1
     3a0:	51011748 	tstpl	r1, r8, asr #14
     3a4:	16003801 	strne	r3, [r0], -r1, lsl #16
     3a8:	00008250 	andeq	r8, r0, r0, asr r2
     3ac:	00000844 	andeq	r0, r0, r4, asr #16
     3b0:	000003c0 	andeq	r0, r0, r0, asr #7
     3b4:	02500117 	subseq	r0, r0, #-1073741819	; 0xc0000005
     3b8:	01174891 			; <UNDEFINED> instruction: 0x01174891
     3bc:	00380151 	eorseq	r0, r8, r1, asr r1
     3c0:	00825c16 	addeq	r5, r2, r6, lsl ip
     3c4:	00084400 	andeq	r4, r8, r0, lsl #8
     3c8:	0003d900 	andeq	sp, r3, r0, lsl #18
     3cc:	50011700 	andpl	r1, r1, r0, lsl #14
     3d0:	17489102 	strbne	r9, [r8, -r2, lsl #2]
     3d4:	38015101 	stmdacc	r1, {r0, r8, ip, lr}
     3d8:	82681600 	rsbhi	r1, r8, #0, 12
     3dc:	08440000 	stmdaeq	r4, {}^	; <UNPREDICTABLE>
     3e0:	03f20000 	mvnseq	r0, #0, 0
     3e4:	01170000 	tsteq	r7, r0
     3e8:	48910250 	ldmmi	r1, {r4, r6, r9}
     3ec:	01510117 	cmpeq	r1, r7, lsl r1
     3f0:	74160038 	ldrvc	r0, [r6], #-56	; 0xffffffc8
     3f4:	44000082 	strmi	r0, [r0], #-130	; 0xffffff7e
     3f8:	0b000008 	bleq	420 <__code_start__-0x7be0>
     3fc:	17000004 	strne	r0, [r0, -r4]
     400:	91025001 	tstls	r2, r1
     404:	51011748 	tstpl	r1, r8, asr #14
     408:	16003801 	strne	r3, [r0], -r1, lsl #16
     40c:	00008280 	andeq	r8, r0, r0, lsl #5
     410:	00000844 	andeq	r0, r0, r4, asr #16
     414:	00000424 	andeq	r0, r0, r4, lsr #8
     418:	02500117 	subseq	r0, r0, #-1073741819	; 0xc0000005
     41c:	01174891 			; <UNDEFINED> instruction: 0x01174891
     420:	00380151 	eorseq	r0, r8, r1, asr r1
     424:	00828c16 	addeq	r8, r2, r6, lsl ip
     428:	00084400 	andeq	r4, r8, r0, lsl #8
     42c:	00043d00 	andeq	r3, r4, r0, lsl #26
     430:	50011700 	andpl	r1, r1, r0, lsl #14
     434:	17489102 	strbne	r9, [r8, -r2, lsl #2]
     438:	38015101 	stmdacc	r1, {r0, r8, ip, lr}
     43c:	82981800 	addshi	r1, r8, #0, 16
     440:	08440000 	stmdaeq	r4, {}^	; <UNPREDICTABLE>
     444:	01170000 	tsteq	r7, r0
     448:	48910250 	ldmmi	r1, {r4, r6, r9}
     44c:	01510117 	cmpeq	r1, r7, lsl r1
     450:	18000038 	stmdane	r0, {r3, r4, r5}
     454:	000082b0 			; <UNDEFINED> instruction: 0x000082b0
     458:	0000092d 	andeq	r0, r0, sp, lsr #18
     45c:	05500117 	ldrbeq	r0, [r0, #-279]	; 0xfffffee9
     460:	00914803 	addseq	r4, r1, r3, lsl #16
     464:	51011700 	tstpl	r1, r0, lsl #14
     468:	912c0305 			; <UNDEFINED> instruction: 0x912c0305
     46c:	01170000 	tsteq	r7, r0
     470:	10030553 	andne	r0, r3, r3, asr r5
     474:	00000091 	muleq	r0, r1, r0
     478:	830c1300 	movwhi	r1, #49920	; 0xc300
     47c:	00440000 	subeq	r0, r4, r0
     480:	05910000 	ldreq	r0, [r1]
     484:	5f140000 	svcpl	0x00140000
     488:	6f010074 	svcvs	0x00010074
     48c:	00002c05 	andeq	r2, r0, r5, lsl #24
     490:	00007f00 	andeq	r7, r0, r0, lsl #30
     494:	00007b00 	andeq	r7, r0, r0, lsl #22
     498:	830c1300 	movwhi	r1, #49920	; 0xc300
     49c:	00300000 	eorseq	r0, r0, r0
     4a0:	056b0000 	strbeq	r0, [fp, #-0]!
     4a4:	5f140000 	svcpl	0x00140000
     4a8:	6f010073 	svcvs	0x00010073
     4ac:	00002c05 	andeq	r2, r0, r5, lsl #24
     4b0:	0000a400 	andeq	sl, r0, r0, lsl #8
     4b4:	0000a200 	andeq	sl, r0, r0, lsl #4
     4b8:	655f1400 	ldrbvs	r1, [pc, #-1024]	; c0 <__code_start__-0x7f40>
     4bc:	056f0100 	strbeq	r0, [pc, #-256]!	; 3c4 <__code_start__-0x7c3c>
     4c0:	0000002c 	andeq	r0, r0, ip, lsr #32
     4c4:	000000b9 	strheq	r0, [r0], -r9
     4c8:	000000b7 	strheq	r0, [r0], -r7
     4cc:	00830c13 	addeq	r0, r3, r3, lsl ip
     4d0:	00000400 	andeq	r0, r0, r0, lsl #8
     4d4:	0004ee00 	andeq	lr, r4, r0, lsl #28
     4d8:	005f1500 	subseq	r1, pc, r0, lsl #10
     4dc:	6f010000 	svcvs	0x00010000
     4e0:	00002c05 	andeq	r2, r0, r5, lsl #24
     4e4:	0000ce00 	andeq	ip, r0, r0, lsl #28
     4e8:	0000cc00 	andeq	ip, r0, r0, lsl #24
     4ec:	38130000 	ldmdacc	r3, {}	; <UNPREDICTABLE>
     4f0:	04000083 	streq	r0, [r0], #-131	; 0xffffff7d
     4f4:	10000000 	andne	r0, r0, r0
     4f8:	15000005 	strne	r0, [r0, #-5]
     4fc:	0000005f 	andeq	r0, r0, pc, asr r0
     500:	2c056f01 	stccs	15, cr6, [r5], {1}
     504:	e3000000 	movw	r0, #0
     508:	e1000000 	mrs	r0, (UNDEF: 0)
     50c:	00000000 	andeq	r0, r0, r0
     510:	00831419 	addeq	r1, r3, r9, lsl r4
     514:	00083200 	andeq	r3, r8, r0, lsl #4
     518:	83181900 	tsthi	r8, #0, 18
     51c:	08320000 	ldmdaeq	r2!, {}	; <UNPREDICTABLE>
     520:	1c190000 	ldcne	0, cr0, [r9], {-0}
     524:	32000083 	andcc	r0, r0, #131, 0	; 0x83
     528:	19000008 	stmdbne	r0, {r3}
     52c:	00008320 	andeq	r8, r0, r0, lsr #6
     530:	00000832 	andeq	r0, r0, r2, lsr r8
     534:	00832419 	addeq	r2, r3, r9, lsl r4
     538:	00083200 	andeq	r3, r8, r0, lsl #4
     53c:	83281900 			; <UNDEFINED> instruction: 0x83281900
     540:	08320000 	ldmdaeq	r2!, {}	; <UNPREDICTABLE>
     544:	2c190000 	ldccs	0, cr0, [r9], {-0}
     548:	32000083 	andcc	r0, r0, #131, 0	; 0x83
     54c:	19000008 	stmdbne	r0, {r3}
     550:	00008330 	andeq	r8, r0, r0, lsr r3
     554:	00000832 	andeq	r0, r0, r2, lsr r8
     558:	00833419 	addeq	r3, r3, r9, lsl r4
     55c:	00083200 	andeq	r3, r8, r0, lsl #4
     560:	83381900 	teqhi	r8, #0, 18
     564:	08320000 	ldmdaeq	r2!, {}	; <UNPREDICTABLE>
     568:	18000000 	stmdane	r0, {}	; <UNPREDICTABLE>
     56c:	00008350 	andeq	r8, r0, r0, asr r3
     570:	0000092d 	andeq	r0, r0, sp, lsr #18
     574:	05500117 	ldrbeq	r0, [r0, #-279]	; 0xfffffee9
     578:	00914803 	addseq	r4, r1, r3, lsl #16
     57c:	51011700 	tstpl	r1, r0, lsl #14
     580:	91d00305 	bicsls	r0, r0, r5, lsl #6
     584:	01170000 	tsteq	r7, r0
     588:	b8030553 	stmdalt	r3, {r0, r1, r4, r6, r8, sl}
     58c:	00000091 	muleq	r0, r1, r0
     590:	82c01900 	sbchi	r1, r0, #0, 18
     594:	09390000 	ldmdbeq	r9!, {}	; <UNPREDICTABLE>
     598:	ec160000 	ldc	0, cr0, [r6], {-0}
     59c:	2d000082 	stccs	0, cr0, [r0, #-520]	; 0xfffffdf8
     5a0:	da000009 	ble	5cc <__code_start__-0x7a34>
     5a4:	17000005 	strne	r0, [r0, -r5]
     5a8:	03055001 	movweq	r5, #20481	; 0x5001
     5ac:	00009174 	andeq	r9, r0, r4, ror r1
     5b0:	05510117 	ldrbeq	r0, [r1, #-279]	; 0xfffffee9
     5b4:	00916403 	addseq	r6, r1, r3, lsl #8
     5b8:	52011700 	andpl	r1, r1, #0, 14
     5bc:	92100305 	andsls	r0, r0, #335544320	; 0x14000000
     5c0:	01170000 	tsteq	r7, r0
     5c4:	69080253 	stmdbvs	r8, {r0, r1, r4, r6, r9}
     5c8:	007d0217 	rsbseq	r0, sp, r7, lsl r2
     5cc:	91ac0305 			; <UNDEFINED> instruction: 0x91ac0305
     5d0:	02170000 	andseq	r0, r7, #0, 0
     5d4:	0802087d 	stmdaeq	r2, {r0, r2, r3, r4, r5, r6, fp}
     5d8:	f0190050 			; <UNDEFINED> instruction: 0xf0190050
     5dc:	45000082 	strmi	r0, [r0, #-130]	; 0xffffff7e
     5e0:	16000009 	strne	r0, [r0], -r9
     5e4:	000082fc 	strdeq	r8, [r0], -ip
     5e8:	0000067d 	andeq	r0, r0, sp, ror r6
     5ec:	000005fc 	strdeq	r0, [r0], -ip
     5f0:	02500117 	subseq	r0, r0, #-1073741819	; 0xc0000005
     5f4:	01174891 			; <UNDEFINED> instruction: 0x01174891
     5f8:	00380151 	eorseq	r0, r8, r1, asr r1
     5fc:	00836019 	addeq	r6, r3, r9, lsl r0
     600:	00093900 	andeq	r3, r9, r0, lsl #18
     604:	838c1600 	orrhi	r1, ip, #0, 12
     608:	092d0000 	pusheq	{}	; <UNPREDICTABLE>
     60c:	06450000 	strbeq	r0, [r5], -r0
     610:	01170000 	tsteq	r7, r0
     614:	74030550 	strvc	r0, [r3], #-1360	; 0xfffffab0
     618:	17000091 			; <UNDEFINED> instruction: 0x17000091
     61c:	03055101 	movweq	r5, #20737	; 0x5101
     620:	00009164 	andeq	r9, r0, r4, ror #2
     624:	05520117 	ldrbeq	r0, [r2, #-279]	; 0xfffffee9
     628:	00921003 	addseq	r1, r2, r3
     62c:	53011700 	movwpl	r1, #5888	; 0x1700
     630:	17700802 	ldrbne	r0, [r0, -r2, lsl #16]!
     634:	05007d02 	streq	r7, [r0, #-3330]	; 0xfffff2fe
     638:	0091ac03 	addseq	sl, r1, r3, lsl #24
     63c:	7d021700 	stcvc	7, cr1, [r2, #-0]
     640:	50080208 	andpl	r0, r8, r8, lsl #4
     644:	83901900 	orrshi	r1, r0, #0, 18
     648:	09450000 	stmdbeq	r5, {}^	; <UNPREDICTABLE>
     64c:	94190000 	ldrls	r0, [r9], #-0
     650:	45000083 	strmi	r0, [r0, #-131]	; 0xffffff7d
     654:	00000009 	andeq	r0, r0, r9
     658:	0002351a 	andeq	r3, r2, sl, lsl r5
     65c:	00066800 	andeq	r6, r6, r0, lsl #16
     660:	002c1b00 	eoreq	r1, ip, r0, lsl #22
     664:	00070000 	andeq	r0, r7, r0
     668:	0000c51a 	andeq	ip, r0, sl, lsl r5
     66c:	00067800 	andeq	r7, r6, r0, lsl #16
     670:	002c1b00 	eoreq	r1, ip, r0, lsl #22
     674:	00070000 	andeq	r0, r7, r0
     678:	0006680a 	andeq	r6, r6, sl, lsl #16
     67c:	02e31c00 	rsceq	r1, r3, #0, 24
     680:	35010000 	strcc	r0, [r1, #-0]
     684:	0007b00e 	andeq	fp, r7, lr
     688:	0080f800 	addeq	pc, r0, r0, lsl #16
     68c:	0000b000 	andeq	fp, r0, r0
     690:	b09c0100 	addslt	r0, ip, r0, lsl #2
     694:	1d000007 	stcne	0, cr0, [r0, #-28]	; 0xffffffe4
     698:	000001c2 	andeq	r0, r0, r2, asr #3
     69c:	b2223501 	eorlt	r3, r2, #4194304	; 0x400000
     6a0:	fa000007 	blx	6c4 <__code_start__-0x793c>
     6a4:	f6000000 			; <UNDEFINED> instruction: 0xf6000000
     6a8:	1e000000 	cdpne	0, 0, cr0, cr0, cr0, {0}
     6ac:	3501006e 	strcc	r0, [r1, #-110]	; 0xffffff92
     6b0:	00002c31 	andeq	r2, r0, r1, lsr ip
     6b4:	00011c00 	andeq	r1, r1, r0, lsl #24
     6b8:	00011800 	andeq	r1, r1, r0, lsl #16
     6bc:	01b20f00 			; <UNDEFINED> instruction: 0x01b20f00
     6c0:	36010000 	strcc	r0, [r1], -r0
     6c4:	0007b815 	andeq	fp, r7, r5, lsl r8
     6c8:	ac030500 	cfstr32ge	mvfx0, [r3], {-0}
     6cc:	14000093 	strne	r0, [r0], #-147	; 0xffffff6d
     6d0:	00786469 	rsbseq	r6, r8, r9, ror #8
     6d4:	2c0e3701 	stccs	7, cr3, [lr], {1}
     6d8:	4a000000 	bmi	6e0 <__code_start__-0x7920>
     6dc:	40000001 	andmi	r0, r0, r1
     6e0:	1f000001 	svcne	0x00000001
     6e4:	00000000 	andeq	r0, r0, r0
     6e8:	00000755 	andeq	r0, r0, r5, asr r7
     6ec:	01006914 	tsteq	r0, r4, lsl r9
     6f0:	002c123d 	eoreq	r1, ip, sp, lsr r2
     6f4:	01910000 	orrseq	r0, r1, r0
     6f8:	018d0000 	orreq	r0, sp, r0
     6fc:	18200000 	stmdane	r0!, {}	; <UNPREDICTABLE>
     700:	14000000 	strne	r0, [r0], #-0
     704:	01006370 	tsteq	r0, r0, ror r3
     708:	006e123e 	rsbeq	r1, lr, lr, lsr r2
     70c:	01b20000 			; <UNDEFINED> instruction: 0x01b20000
     710:	01b00000 	movseq	r0, r0
     714:	fd210000 	stc2	0, cr0, [r1, #-0]
     718:	30000007 	andcc	r0, r0, r7
     71c:	00000081 	andeq	r0, r0, r1, lsl #1
     720:	00008130 	andeq	r8, r0, r0, lsr r1
     724:	00000014 	andeq	r0, r0, r4, lsl r0
     728:	22173f01 	andscs	r3, r7, #1, 30
     72c:	00000819 	andeq	r0, r0, r9, lsl r8
     730:	000001c9 	andeq	r0, r0, r9, asr #3
     734:	000001c5 	andeq	r0, r0, r5, asr #3
     738:	00080e22 	andeq	r0, r8, r2, lsr #28
     73c:	0001ef00 	andeq	lr, r1, r0, lsl #30
     740:	0001ed00 	andeq	lr, r1, r0, lsl #26
     744:	08252300 	stmdaeq	r5!, {r8, r9, sp}
     748:	02060000 	andeq	r0, r6, #0, 0
     74c:	02020000 	andeq	r0, r2, #0, 0
     750:	00000000 	andeq	r0, r0, r0
     754:	816c2400 	cmnhi	ip, r0, lsl #8
     758:	002c0000 	eoreq	r0, ip, r0
     75c:	70140000 	andsvc	r0, r4, r0
     760:	47010063 	strmi	r0, [r1, -r3, rrx]
     764:	00006e12 	andeq	r6, r0, r2, lsl lr
     768:	00023500 	andeq	r3, r2, r0, lsl #10
     76c:	00023300 	andeq	r3, r2, r0, lsl #6
     770:	07c82100 	strbeq	r2, [r8, r0, lsl #2]
     774:	817c0000 	cmnhi	ip, r0
     778:	7c000000 	stcvc	0, cr0, [r0], {-0}
     77c:	14000081 	strne	r0, [r0], #-129	; 0xffffff7f
     780:	01000000 	mrseq	r0, (UNDEF: 0)
     784:	e4221748 	strt	r1, [r2], #-1864	; 0xfffff8b8
     788:	4c000007 	stcmi	0, cr0, [r0], {7}
     78c:	48000002 	stmdami	r0, {r1}
     790:	22000002 	andcs	r0, r0, #2, 0
     794:	000007d9 	ldrdeq	r0, [r0], -r9
     798:	00000272 	andeq	r0, r0, r2, ror r2
     79c:	00000270 	andeq	r0, r0, r0, ror r2
     7a0:	0007f023 	andeq	pc, r7, r3, lsr #32
     7a4:	00028900 	andeq	r8, r2, r0, lsl #18
     7a8:	00028500 	andeq	r8, r2, r0, lsl #10
     7ac:	00000000 	andeq	r0, r0, r0
     7b0:	04090425 	streq	r0, [r9], #-1061	; 0xfffffbdb
     7b4:	00000235 	andeq	r0, r0, r5, lsr r2
     7b8:	00006e1a 	andeq	r6, r0, sl, lsl lr
     7bc:	0007c800 	andeq	ip, r7, r0, lsl #16
     7c0:	002c1b00 	eoreq	r1, ip, r0, lsl #22
     7c4:	003f0000 	eorseq	r0, pc, r0
     7c8:	0002d726 	andeq	sp, r2, r6, lsr #14
     7cc:	182f0100 	stmdane	pc!, {r8}	; <UNPREDICTABLE>
     7d0:	0000006e 	andeq	r0, r0, lr, rrx
     7d4:	0007fd03 	andeq	pc, r7, r3, lsl #26
     7d8:	63702700 	cmnvs	r0, #0, 14
     7dc:	272f0100 	strcs	r0, [pc, -r0, lsl #2]!
     7e0:	0000006e 	andeq	r0, r0, lr, rrx
     7e4:	00002a28 	andeq	r2, r0, r8, lsr #20
     7e8:	342f0100 	strtcc	r0, [pc], #-256	; 7f0 <__code_start__-0x7810>
     7ec:	0000006e 	andeq	r0, r0, lr, rrx
     7f0:	66666f29 	strbtvs	r6, [r6], -r9, lsr #30
     7f4:	0d300100 	ldfeqs	f0, [r0, #-0]
     7f8:	00000046 	andeq	r0, r0, r6, asr #32
     7fc:	012a2600 			; <UNDEFINED> instruction: 0x012a2600
     800:	2b010000 	blcs	40808 <__bss_end__+0x36f58>
     804:	00006e18 	andeq	r6, r0, r8, lsl lr
     808:	08320300 	ldmdaeq	r2!, {r8, r9}
     80c:	70270000 	eorvc	r0, r7, r0
     810:	2b010063 	blcs	409a4 <__bss_end__+0x370f4>
     814:	00006e28 	andeq	r6, r0, r8, lsr #28
     818:	002a2800 	eoreq	r2, sl, r0, lsl #16
     81c:	2b010000 	blcs	40824 <__bss_end__+0x36f74>
     820:	00006e35 	andeq	r6, r0, r5, lsr lr
     824:	666f2900 	strbtvs	r2, [pc], -r0, lsl #18
     828:	2c010066 	stccs	0, cr0, [r1], {102}	; 0x66
     82c:	0000460d 	andeq	r4, r0, sp, lsl #12
     830:	762a0000 	strtvc	r0, [sl], -r0
     834:	01000003 	tsteq	r0, r3
     838:	81d0061e 	bicshi	r0, r0, lr, lsl r6
     83c:	00180000 	andseq	r0, r8, r0
     840:	9c010000 	stcls	0, cr0, [r1], {-0}
     844:	0000192b 	andeq	r1, r0, fp, lsr #18
     848:	06150100 	ldreq	r0, [r5], -r0, lsl #2
     84c:	000081a8 	andeq	r8, r0, r8, lsr #3
     850:	00000028 	andeq	r0, r0, r8, lsr #32
     854:	089d9c01 	ldmeq	sp, {r0, sl, fp, ip, pc}
     858:	c21d0000 	andsgt	r0, sp, #0, 0
     85c:	01000001 	tsteq	r0, r1
     860:	07b21f15 			; <UNDEFINED> instruction: 0x07b21f15
     864:	02ba0000 	adcseq	r0, sl, #0, 0
     868:	02b60000 	adcseq	r0, r6, #0, 0
     86c:	6e1e0000 	cdpvs	0, 1, cr0, cr14, cr0, {0}
     870:	2e150100 	mufcss	f0, f5, f0
     874:	0000002c 	andeq	r0, r0, ip, lsr #32
     878:	000002dc 	ldrdeq	r0, [r0], -ip
     87c:	000002d8 	ldrdeq	r0, [r0], -r8
     880:	0081b424 	addeq	fp, r1, r4, lsr #8
     884:	00001c00 	andeq	r1, r0, r0, lsl #24
     888:	00691400 	rsbeq	r1, r9, r0, lsl #8
     88c:	2c121601 	ldccs	6, cr1, [r2], {1}
     890:	fe000000 	cdp2	0, 0, cr0, cr0, cr0, {0}
     894:	fa000002 	blx	8a4 <__code_start__-0x775c>
     898:	00000002 	andeq	r0, r0, r2
     89c:	03e42c00 	mvneq	r2, #0, 24
     8a0:	13010000 	movwne	r0, #4096	; 0x1000
     8a4:	0080e006 	addeq	lr, r0, r6
     8a8:	00001800 	andeq	r1, r0, r0, lsl #16
     8ac:	2c9c0100 	ldfcss	f0, [ip], {0}
     8b0:	000000a9 	andeq	r0, r0, r9, lsr #1
     8b4:	c8061201 	stmdagt	r6, {r0, r9, ip}
     8b8:	18000080 	stmdane	r0, {r7}
     8bc:	01000000 	mrseq	r0, (UNDEF: 0)
     8c0:	03d32c9c 	bicseq	r2, r3, #156, 24	; 0x9c00
     8c4:	11010000 	mrsne	r0, (UNDEF: 1)
     8c8:	0080b006 	addeq	fp, r0, r6
     8cc:	00001800 	andeq	r1, r0, r0, lsl #16
     8d0:	2c9c0100 	ldfcss	f0, [ip], {0}
     8d4:	000002dd 	ldrdeq	r0, [r0], -sp
     8d8:	98061001 	stmdals	r6, {r0, ip}
     8dc:	18000080 	stmdane	r0, {r7}
     8e0:	01000000 	mrseq	r0, (UNDEF: 0)
     8e4:	01a52c9c 			; <UNDEFINED> instruction: 0x01a52c9c
     8e8:	0f010000 	svceq	0x00010000
     8ec:	00808006 	addeq	r8, r0, r6
     8f0:	00001800 	andeq	r1, r0, r0, lsl #16
     8f4:	2c9c0100 	ldfcss	f0, [ip], {0}
     8f8:	000003a6 	andeq	r0, r0, r6, lsr #7
     8fc:	68060e01 	stmdavs	r6, {r0, r9, sl, fp}
     900:	18000080 	stmdane	r0, {r7}
     904:	01000000 	mrseq	r0, (UNDEF: 0)
     908:	03a02c9c 	moveq	r2, #156, 24	; 0x9c00
     90c:	0d010000 	stceq	0, cr0, [r1, #-0]
     910:	00805006 	addeq	r5, r0, r6
     914:	00001800 	andeq	r1, r0, r0, lsl #16
     918:	2c9c0100 	ldfcss	f0, [ip], {0}
     91c:	0000039a 	muleq	r0, sl, r3
     920:	38060c01 	stmdacc	r6, {r0, sl, fp}
     924:	18000080 	stmdane	r0, {r7}
     928:	01000000 	mrseq	r0, (UNDEF: 0)
     92c:	05072d9c 	streq	r2, [r7, #-3484]	; 0xfffff264
     930:	05070000 	streq	r0, [r7, #-0]
     934:	28030000 	stmdacs	r3, {}	; <UNPREDICTABLE>
     938:	038b2d06 	orreq	r2, fp, #384	; 0x180
     93c:	038b0000 	orreq	r0, fp, #0, 0
     940:	1d030000 	stcne	0, cr0, [r3, #-0]
     944:	01162d06 	tsteq	r6, r6, lsl #26
     948:	01160000 	tsteq	r6, r0
     94c:	6e030000 	cdpvs	0, 0, cr0, cr3, cr0, {0}
     950:	019d0006 	orrseq	r0, sp, r6
     954:	00040000 	andeq	r0, r4, r0
     958:	0000029d 	muleq	r0, sp, r2
     95c:	03fc0104 	mvnseq	r0, #1
     960:	220c0000 	andcs	r0, ip, #0, 0
     964:	cb000005 	blgt	980 <__code_start__-0x7680>
     968:	c0000004 	andgt	r0, r0, r4
     96c:	58000083 	stmdapl	r0, {r0, r1, r7}
     970:	1c000000 	stcne	0, cr0, [r0], {-0}
     974:	02000004 	andeq	r0, r0, #4, 0
     978:	0000050e 	andeq	r0, r0, lr, lsl #10
     97c:	311b2802 	tstcc	fp, r2, lsl #16
     980:	03000000 	movweq	r0, #0
     984:	00000532 	andeq	r0, r0, r2, lsr r5
     988:	48000404 	stmdami	r0, {r2, sl}
     98c:	04000000 	streq	r0, [r0], #-0
     990:	0000051d 	andeq	r0, r0, sp, lsl r5
     994:	00000048 	andeq	r0, r0, r8, asr #32
     998:	04050000 	streq	r0, [r5], #-0
     99c:	00053402 	andeq	r3, r5, r2, lsl #8
     9a0:	18630200 	stmdane	r3!, {r9}^
     9a4:	00000025 	andeq	r0, r0, r5, lsr #32
     9a8:	69050406 	stmdbvs	r5, {r1, r2, sl}
     9ac:	0700746e 	streq	r7, [r0, -lr, ror #8]
     9b0:	01880704 	orreq	r0, r8, r4, lsl #14
     9b4:	01070000 	mrseq	r0, (UNDEF: 7)
     9b8:	00014106 	andeq	r4, r1, r6, lsl #2
     9bc:	05020700 	streq	r0, [r2, #-1792]	; 0xfffff900
     9c0:	00000031 	andeq	r0, r0, r1, lsr r0
     9c4:	d5050407 	strle	r0, [r5, #-1031]	; 0xfffffbf9
     9c8:	07000000 	streq	r0, [r0, -r0]
     9cc:	00d00508 	sbcseq	r0, r0, r8, lsl #10
     9d0:	01070000 	mrseq	r0, (UNDEF: 7)
     9d4:	00013f08 	andeq	r3, r1, r8, lsl #30
     9d8:	07020700 	streq	r0, [r2, -r0, lsl #14]
     9dc:	000001cf 	andeq	r0, r0, pc, asr #3
     9e0:	83070407 	movwhi	r0, #29703	; 0x7407
     9e4:	07000001 	streq	r0, [r0, -r1]
     9e8:	017e0708 	cmneq	lr, r8, lsl #14
     9ec:	56080000 	strpl	r0, [r8], -r0
     9f0:	ab000000 	blge	9f8 <__code_start__-0x7608>
     9f4:	09000000 	stmdbeq	r0, {}	; <UNPREDICTABLE>
     9f8:	00000056 	andeq	r0, r0, r6, asr r0
     9fc:	006f0a00 	rsbeq	r0, pc, r0, lsl #20
     a00:	1c030000 	stcne	0, cr0, [r3], {-0}
     a04:	0000b70e 	andeq	fp, r0, lr, lsl #14
     a08:	9c040b00 			; <UNDEFINED> instruction: 0x9c040b00
     a0c:	08000000 	stmdaeq	r0, {}	; <UNPREDICTABLE>
     a10:	00000056 	andeq	r0, r0, r6, asr r0
     a14:	000000cc 	andeq	r0, r0, ip, asr #1
     a18:	0000cc09 	andeq	ip, r0, r9, lsl #24
     a1c:	040b0000 	streq	r0, [fp], #-0
     a20:	000000d9 	ldrdeq	r0, [r0], -r9
     a24:	48080107 	stmdami	r8, {r0, r1, r2, r8}
     a28:	0c000001 	stceq	0, cr0, [r0], {1}
     a2c:	000000d2 	ldrdeq	r0, [r0], -r2
     a30:	00057e0a 	andeq	r7, r5, sl, lsl #28
     a34:	0e210300 	cdpeq	3, 2, cr0, cr1, cr0, {0}
     a38:	000000ea 	andeq	r0, r0, sl, ror #1
     a3c:	00bd040b 	adcseq	r0, sp, fp, lsl #8
     a40:	070d0000 	streq	r0, [sp, -r0]
     a44:	01000005 	tsteq	r0, r5
     a48:	00560506 	subseq	r0, r6, r6, lsl #10
     a4c:	83c00000 	bichi	r0, r0, #0, 0
     a50:	00580000 	subseq	r0, r8, r0
     a54:	9c010000 	stcls	0, cr0, [r1], {-0}
     a58:	00000183 	andeq	r0, r0, r3, lsl #3
     a5c:	746d660e 	strbtvc	r6, [sp], #-1550	; 0xfffff9f2
     a60:	18060100 	stmdane	r6, {r8}
     a64:	000000cc 	andeq	r0, r0, ip, asr #1
     a68:	0f709102 	svceq	0x00709102
     a6c:	66756210 			; <UNDEFINED> instruction: 0x66756210
     a70:	11080100 	mrsne	r0, (UNDEF: 24)
     a74:	00000183 	andeq	r0, r0, r3, lsl #3
     a78:	94b00305 	ldrtls	r0, [r0], #773	; 0x305
     a7c:	c6110000 	ldrgt	r0, [r1], -r0
     a80:	01000004 	tsteq	r0, r4
     a84:	004a0d09 	subeq	r0, sl, r9, lsl #26
     a88:	91020000 	mrsls	r0, (UNDEF: 2)
     a8c:	7a73125c 	bvc	1cc5404 <__bss_end__+0x1cbbb54>
     a90:	0d0c0100 	stfeqs	f0, [ip, #-0]
     a94:	00000056 	andeq	r0, r0, r6, asr r0
     a98:	00000323 	andeq	r0, r0, r3, lsr #6
     a9c:	0000031d 	andeq	r0, r0, sp, lsl r3
     aa0:	0083e813 	addeq	lr, r3, r3, lsl r8
     aa4:	00019400 	andeq	r9, r1, r0, lsl #8
     aa8:	00017600 	andeq	r7, r1, r0, lsl #12
     aac:	50011400 	andpl	r1, r1, r0, lsl #8
     ab0:	14007502 	strne	r7, [r0], #-1282	; 0xfffffafe
     ab4:	0a035101 	beq	d4ec0 <__bss_end__+0xcb610>
     ab8:	01140400 	tsteq	r4, r0, lsl #8
     abc:	48910352 	ldmmi	r1, {r1, r4, r6, r8, r9}
     ac0:	53011406 	movwpl	r1, #5126	; 0x1406
     ac4:	004c9102 	subeq	r9, ip, r2, lsl #2
     ac8:	0083fc15 	addeq	pc, r3, r5, lsl ip	; <UNPREDICTABLE>
     acc:	50011400 	andpl	r1, r1, r0, lsl #8
     ad0:	00007502 	andeq	r7, r0, r2, lsl #10
     ad4:	00d21600 	sbcseq	r1, r2, r0, lsl #12
     ad8:	01940000 	orrseq	r0, r4, r0
     adc:	5d170000 	ldcpl	0, cr0, [r7, #-0]
     ae0:	ff000000 			; <UNDEFINED> instruction: 0xff000000
     ae4:	04180003 	ldreq	r0, [r8], #-3
     ae8:	04000005 	streq	r0, [r0], #-5
     aec:	05000005 	streq	r0, [r0, #-5]
     af0:	49000502 	stmdbmi	r0, {r1, r8, sl}
     af4:	04000001 	streq	r0, [r0], #-1
     af8:	0003df00 	andeq	sp, r3, r0, lsl #30
     afc:	fc010400 	stc2	4, cr0, [r1], {-0}
     b00:	0c000003 	stceq	0, cr0, [r0], {3}
     b04:	0000055a 	andeq	r0, r0, sl, asr r5
     b08:	000004cb 	andeq	r0, r0, fp, asr #9
     b0c:	00008418 	andeq	r8, r0, r8, lsl r4
     b10:	0000003c 	andeq	r0, r0, ip, lsr r0
     b14:	00000548 	andeq	r0, r0, r8, asr #10
     b18:	69050402 	stmdbvs	r5, {r1, sl}
     b1c:	0300746e 	movweq	r7, #1134	; 0x46e
     b20:	01880704 	orreq	r0, r8, r4, lsl #14
     b24:	01030000 	mrseq	r0, (UNDEF: 3)
     b28:	00014106 	andeq	r4, r1, r6, lsl #2
     b2c:	05020300 	streq	r0, [r2, #-768]	; 0xfffffd00
     b30:	00000031 	andeq	r0, r0, r1, lsr r0
     b34:	d5050403 	strle	r0, [r5, #-1027]	; 0xfffffbfd
     b38:	03000000 	movweq	r0, #0
     b3c:	00d00508 	sbcseq	r0, r0, r8, lsl #10
     b40:	01030000 	mrseq	r0, (UNDEF: 3)
     b44:	00013f08 	andeq	r3, r1, r8, lsl #30
     b48:	07020300 	streq	r0, [r2, -r0, lsl #6]
     b4c:	000001cf 	andeq	r0, r0, pc, asr #3
     b50:	83070403 	movwhi	r0, #29699	; 0x7403
     b54:	03000001 	movweq	r0, #1
     b58:	017e0708 	cmneq	lr, r8, lsl #14
     b5c:	25040000 	strcs	r0, [r4, #-0]
     b60:	7a000000 	bvc	b68 <__code_start__-0x7498>
     b64:	05000000 	streq	r0, [r0, #-0]
     b68:	00000025 	andeq	r0, r0, r5, lsr #32
     b6c:	006f0600 	rsbeq	r0, pc, r0, lsl #12
     b70:	1c020000 	stcne	0, cr0, [r2], {-0}
     b74:	0000860e 	andeq	r8, r0, lr, lsl #12
     b78:	6b040700 	blvs	102780 <__bss_end__+0xf8ed0>
     b7c:	04000000 	streq	r0, [r0], #-0
     b80:	00000025 	andeq	r0, r0, r5, lsr #32
     b84:	0000009b 	muleq	r0, fp, r0
     b88:	00009b05 	andeq	r9, r0, r5, lsl #22
     b8c:	04070000 	streq	r0, [r7], #-0
     b90:	000000a8 	andeq	r0, r0, r8, lsr #1
     b94:	48080103 	stmdami	r8, {r0, r1, r8}
     b98:	08000001 	stmdaeq	r0, {r0}
     b9c:	000000a1 	andeq	r0, r0, r1, lsr #1
     ba0:	00057e06 	andeq	r7, r5, r6, lsl #28
     ba4:	0e210200 	cdpeq	2, 2, cr0, cr1, cr0, {0}
     ba8:	000000b9 	strheq	r0, [r0], -r9
     bac:	008c0407 	addeq	r0, ip, r7, lsl #8
     bb0:	7a090000 	bvc	240bb8 <__bss_end__+0x237308>
     bb4:	01000000 	mrseq	r0, (UNDEF: 0)
     bb8:	03050706 	movweq	r0, #22278	; 0x5706
     bbc:	000093a0 	andeq	r9, r0, r0, lsr #7
     bc0:	00054d0a 	andeq	r4, r5, sl, lsl #26
     bc4:	060b0100 	streq	r0, [fp], -r0, lsl #2
     bc8:	00008444 	andeq	r8, r0, r4, asr #8
     bcc:	00000010 	andeq	r0, r0, r0, lsl r0
     bd0:	00f19c01 	rscseq	r9, r1, r1, lsl #24
     bd4:	660b0000 	strvs	r0, [fp], -r0
     bd8:	0b010070 	bleq	40da0 <__bss_end__+0x374f0>
     bdc:	00008619 	andeq	r8, r0, r9, lsl r6
     be0:	00500100 	subseq	r0, r0, r0, lsl #2
     be4:	00038b0c 	andeq	r8, r3, ip, lsl #22
     be8:	06080100 	streq	r0, [r8], -r0, lsl #2
     bec:	0000842c 	andeq	r8, r0, ip, lsr #8
     bf0:	00000018 	andeq	r0, r0, r8, lsl r0
     bf4:	3c0d9c01 	stccc	12, cr9, [sp], {1}
     bf8:	01000005 	tsteq	r0, r5
     bfc:	00250c03 	eoreq	r0, r5, r3, lsl #24
     c00:	84180000 	ldrhi	r0, [r8], #-0
     c04:	00140000 	andseq	r0, r4, r0
     c08:	9c010000 	stcls	0, cr0, [r1], {-0}
     c0c:	00000140 	andeq	r0, r0, r0, asr #2
     c10:	0100630e 	tsteq	r0, lr, lsl #6
     c14:	00252103 	eoreq	r2, r5, r3, lsl #2
     c18:	03500000 	cmpeq	r0, #0, 0
     c1c:	034c0000 	movteq	r0, #49152	; 0xc000
     c20:	240f0000 	strcs	r0, [pc], #-0	; c28 <__code_start__-0x73d8>
     c24:	40000084 	andmi	r0, r0, r4, lsl #1
     c28:	10000001 	andne	r0, r0, r1
     c2c:	74025001 	strvc	r5, [r2], #-1
     c30:	11000000 	mrsne	r0, (UNDEF: 0)
     c34:	0000056b 	andeq	r0, r0, fp, ror #10
     c38:	0000056b 	andeq	r0, r0, fp, ror #10
     c3c:	00064202 	andeq	r4, r6, r2, lsl #4
     c40:	000000f3 	strdeq	r0, [r0], -r3
     c44:	04ee0004 	strbteq	r0, [lr], #4
     c48:	01040000 	mrseq	r0, (UNDEF: 4)
     c4c:	000003fc 	strdeq	r0, [r0], -ip
     c50:	0005830c 	andeq	r8, r5, ip, lsl #6
     c54:	0004cb00 	andeq	ip, r4, r0, lsl #22
     c58:	00845400 	addeq	r5, r4, r0, lsl #8
     c5c:	00003400 	andeq	r3, r0, r0, lsl #8
     c60:	0005fc00 	andeq	pc, r5, r0, lsl #24
     c64:	05040200 	streq	r0, [r4, #-512]	; 0xfffffe00
     c68:	00746e69 	rsbseq	r6, r4, r9, ror #28
     c6c:	88070403 	stmdahi	r7, {r0, r1, sl}
     c70:	03000001 	movweq	r0, #1
     c74:	01410601 	cmpeq	r1, r1, lsl #12
     c78:	02030000 	andeq	r0, r3, #0, 0
     c7c:	00003105 	andeq	r3, r0, r5, lsl #2
     c80:	05040300 	streq	r0, [r4, #-768]	; 0xfffffd00
     c84:	000000d5 	ldrdeq	r0, [r0], -r5
     c88:	d0050803 	andle	r0, r5, r3, lsl #16
     c8c:	03000000 	movweq	r0, #0
     c90:	013f0801 	teqeq	pc, r1, lsl #16
     c94:	02030000 	andeq	r0, r3, #0, 0
     c98:	0001cf07 	andeq	ip, r1, r7, lsl #30
     c9c:	07040300 	streq	r0, [r4, -r0, lsl #6]
     ca0:	00000183 	andeq	r0, r0, r3, lsl #3
     ca4:	7e070803 	cdpvc	8, 0, cr0, cr7, cr3, {0}
     ca8:	04000001 	streq	r0, [r0], #-1
     cac:	00000025 	andeq	r0, r0, r5, lsr #32
     cb0:	0000007a 	andeq	r0, r0, sl, ror r0
     cb4:	00002505 	andeq	r2, r0, r5, lsl #10
     cb8:	6f060000 	svcvs	0x00060000
     cbc:	02000000 	andeq	r0, r0, #0, 0
     cc0:	00860e1c 	addeq	r0, r6, ip, lsl lr
     cc4:	04070000 	streq	r0, [r7], #-0
     cc8:	0000006b 	andeq	r0, r0, fp, rrx
     ccc:	00002504 	andeq	r2, r0, r4, lsl #10
     cd0:	00009b00 	andeq	r9, r0, r0, lsl #22
     cd4:	009b0500 	addseq	r0, fp, r0, lsl #10
     cd8:	07000000 	streq	r0, [r0, -r0]
     cdc:	0000a804 	andeq	sl, r0, r4, lsl #16
     ce0:	08010300 	stmdaeq	r1, {r8, r9}
     ce4:	00000148 	andeq	r0, r0, r8, asr #2
     ce8:	0000a108 	andeq	sl, r0, r8, lsl #2
     cec:	057e0600 	ldrbeq	r0, [lr, #-1536]!	; 0xfffffa00
     cf0:	21020000 	mrscs	r0, (UNDEF: 2)
     cf4:	0000b90e 	andeq	fp, r0, lr, lsl #18
     cf8:	8c040700 	stchi	7, cr0, [r4], {-0}
     cfc:	09000000 	stmdbeq	r0, {}	; <UNPREDICTABLE>
     d00:	000000ad 	andeq	r0, r0, sp, lsr #1
     d04:	05070c01 	streq	r0, [r7, #-3073]	; 0xfffff3ff
     d08:	0093a403 	addseq	sl, r3, r3, lsl #8
     d0c:	05750a00 	ldrbeq	r0, [r5, #-2560]!	; 0xfffff600
     d10:	04010000 	streq	r0, [r1], #-0
     d14:	00002505 	andeq	r2, r0, r5, lsl #10
     d18:	00845400 	addeq	r5, r4, r0, lsl #8
     d1c:	00003400 	andeq	r3, r0, r0, lsl #8
     d20:	0b9c0100 	bleq	fe701128 <__bss_end__+0xfe6f7878>
     d24:	04010070 	streq	r0, [r1], #-112	; 0xffffff90
     d28:	00009b1f 	andeq	r9, r0, pc, lsl fp
     d2c:	00037200 	andeq	r7, r3, r0, lsl #4
     d30:	00036e00 	andeq	r6, r3, r0, lsl #28
     d34:	d7000000 	strle	r0, [r0, -r0]
     d38:	0400000a 	streq	r0, [r0], #-10
     d3c:	00058c00 	andeq	r8, r5, r0, lsl #24
     d40:	fc010400 	stc2	4, cr0, [r1], {-0}
     d44:	0c000003 	stceq	0, cr0, [r0], {3}
     d48:	000005a2 	andeq	r0, r0, r2, lsr #11
     d4c:	000004cb 	andeq	r0, r0, fp, asr #9
     d50:	00008488 	andeq	r8, r0, r8, lsl #9
     d54:	00000740 	andeq	r0, r0, r0, asr #14
     d58:	000006bd 			; <UNDEFINED> instruction: 0x000006bd
     d5c:	69050402 	stmdbvs	r5, {r1, sl}
     d60:	0300746e 	movweq	r7, #1134	; 0x46e
     d64:	01880704 	orreq	r0, r8, r4, lsl #14
     d68:	01030000 	mrseq	r0, (UNDEF: 3)
     d6c:	00014106 	andeq	r4, r1, r6, lsl #2
     d70:	05020300 	streq	r0, [r2, #-768]	; 0xfffffd00
     d74:	00000031 	andeq	r0, r0, r1, lsr r0
     d78:	d5050403 	strle	r0, [r5, #-1027]	; 0xfffffbfd
     d7c:	03000000 	movweq	r0, #0
     d80:	00d00508 	sbcseq	r0, r0, r8, lsl #10
     d84:	01030000 	mrseq	r0, (UNDEF: 3)
     d88:	00013f08 	andeq	r3, r1, r8, lsl #30
     d8c:	07020300 	streq	r0, [r2, -r0, lsl #6]
     d90:	000001cf 	andeq	r0, r0, pc, asr #3
     d94:	00019c04 	andeq	r9, r1, r4, lsl #24
     d98:	19340200 	ldmdbne	r4!, {r9}
     d9c:	00000069 	andeq	r0, r0, r9, rrx
     da0:	83070403 	movwhi	r0, #29699	; 0x7403
     da4:	04000001 	streq	r0, [r0], #-1
     da8:	00000599 	muleq	r0, r9, r5
     dac:	7c193702 	ldcvc	7, cr3, [r9], {2}
     db0:	03000000 	movweq	r0, #0
     db4:	017e0708 	cmneq	lr, r8, lsl #14
     db8:	25050000 	strcs	r0, [r5, #-0]
     dbc:	92000000 	andls	r0, r0, #0, 0
     dc0:	06000000 	streq	r0, [r0], -r0
     dc4:	00000025 	andeq	r0, r0, r5, lsr #32
     dc8:	006f0700 	rsbeq	r0, pc, r0, lsl #14
     dcc:	1c030000 	stcne	0, cr0, [r3], {-0}
     dd0:	00009e0e 	andeq	r9, r0, lr, lsl #28
     dd4:	83040800 	movwhi	r0, #18432	; 0x4800
     dd8:	05000000 	streq	r0, [r0, #-0]
     ddc:	00000025 	andeq	r0, r0, r5, lsr #32
     de0:	000000b3 	strheq	r0, [r0], -r3
     de4:	0000b306 	andeq	fp, r0, r6, lsl #6
     de8:	04080000 	streq	r0, [r8], #-0
     dec:	000000c0 	andeq	r0, r0, r0, asr #1
     df0:	48080103 	stmdami	r8, {r0, r1, r8}
     df4:	09000001 	stmdbeq	r0, {r0}
     df8:	000000b9 	strheq	r0, [r0], -r9
     dfc:	00057e07 	andeq	r7, r5, r7, lsl #28
     e00:	0e210300 	cdpeq	3, 2, cr0, cr1, cr0, {0}
     e04:	000000d1 	ldrdeq	r0, [r0], -r1
     e08:	00a40408 	adceq	r0, r4, r8, lsl #8
     e0c:	b5070000 	strlt	r0, [r7, #-0]
     e10:	04000005 	streq	r0, [r0], #-5
     e14:	00b90d0b 	adcseq	r0, r9, fp, lsl #26
     e18:	2e070000 	cdpcs	0, 0, cr0, cr7, cr0, {0}
     e1c:	04000006 	streq	r0, [r0], #-6
     e20:	00b90d0c 	adcseq	r0, r9, ip, lsl #26
     e24:	c4070000 	strgt	r0, [r7], #-0
     e28:	04000005 	streq	r0, [r0], #-5
     e2c:	00b90d0d 	adcseq	r0, r9, sp, lsl #26
     e30:	ed070000 	stc	0, cr0, [r7, #-0]
     e34:	04000005 	streq	r0, [r0], #-5
     e38:	00b90d0e 	adcseq	r0, r9, lr, lsl #26
     e3c:	5e070000 	cdppl	0, 0, cr0, cr7, cr0, {0}
     e40:	04000006 	streq	r0, [r0], #-6
     e44:	00b90d0f 	adcseq	r0, r9, pc, lsl #26
     e48:	d8070000 	stmdale	r7, {}	; <UNPREDICTABLE>
     e4c:	04000005 	streq	r0, [r0], #-5
     e50:	00b90d10 	adcseq	r0, r9, r0, lsl sp
     e54:	6d070000 	stcvs	0, cr0, [r7, #-0]
     e58:	04000006 	streq	r0, [r0], #-6
     e5c:	00b90d11 	adcseq	r0, r9, r1, lsl sp
     e60:	f9070000 			; <UNDEFINED> instruction: 0xf9070000
     e64:	04000005 	streq	r0, [r0], #-5
     e68:	00b90d12 	adcseq	r0, r9, r2, lsl sp
     e6c:	0e040000 	cdpeq	0, 0, cr0, cr4, cr0, {0}
     e70:	05000005 	streq	r0, [r0, #-5]
     e74:	01431b28 	cmpeq	r3, r8, lsr #22
     e78:	320a0000 	andcc	r0, sl, #0, 0
     e7c:	04000005 	streq	r0, [r0], #-5
     e80:	015a0006 	cmpeq	sl, r6
     e84:	1d0b0000 	stcne	0, cr0, [fp, #-0]
     e88:	5a000005 	bpl	ea4 <__code_start__-0x715c>
     e8c:	00000001 	andeq	r0, r0, r1
     e90:	04040c00 	streq	r0, [r4], #-3072	; 0xfffff400
     e94:	00000534 	andeq	r0, r0, r4, lsr r5
     e98:	37186305 	ldrcc	r6, [r8, -r5, lsl #6]
     e9c:	0d000001 	stceq	0, cr0, [r0, #-4]
     ea0:	00000504 	andeq	r0, r0, r4, lsl #10
     ea4:	25058101 	strcs	r8, [r5, #-257]	; 0xfffffeff
     ea8:	10000000 	andne	r0, r0, r0
     eac:	b8000087 	stmdalt	r0, {r0, r1, r2, r7}
     eb0:	01000004 	tsteq	r0, r4
     eb4:	0007179c 	muleq	r7, ip, r7
     eb8:	75620e00 	strbvc	r0, [r2, #-3584]!	; 0xfffff200
     ebc:	81010066 	tsthi	r1, r6, rrx
     ec0:	00071715 	andeq	r1, r7, r5, lsl r7
     ec4:	00039600 	andeq	r9, r3, r0, lsl #12
     ec8:	00039000 	andeq	r9, r3, r0
     ecc:	006e0e00 	rsbeq	r0, lr, r0, lsl #28
     ed0:	251e8101 	ldrcs	r8, [lr, #-257]	; 0xfffffeff
     ed4:	c8000000 	stmdagt	r0, {}	; <UNPREDICTABLE>
     ed8:	c2000003 	andgt	r0, r0, #3, 0
     edc:	0e000003 	cdpeq	0, 0, cr0, cr0, cr3, {0}
     ee0:	00746d66 	rsbseq	r6, r4, r6, ror #26
     ee4:	b32d8101 			; <UNDEFINED> instruction: 0xb32d8101
     ee8:	02000000 	andeq	r0, r0, #0, 0
     eec:	f6000004 			; <UNDEFINED> instruction: 0xf6000004
     ef0:	0f000003 	svceq	0x00000003
     ef4:	000004c6 	andeq	r0, r0, r6, asr #9
     ef8:	5c3a8101 	ldfpld	f0, [sl], #-4
     efc:	03000001 	movweq	r0, #1
     f00:	107dd491 			; <UNDEFINED> instruction: 0x107dd491
     f04:	82010070 	andhi	r0, r1, #112, 0	; 0x70
     f08:	00071708 	andeq	r1, r7, r8, lsl #14
     f0c:	00046000 	andeq	r6, r4, r0
     f10:	00044c00 	andeq	r4, r4, r0, lsl #24
     f14:	00651000 	rsbeq	r1, r5, r0
     f18:	17128201 	ldrne	r8, [r2, -r1, lsl #4]
     f1c:	e2000007 	and	r0, r0, #7, 0
     f20:	de000004 	cdple	0, 0, cr0, cr0, cr4, {0}
     f24:	10000004 	andne	r0, r0, r4
     f28:	01003078 	tsteq	r0, r8, ror r0
     f2c:	005d0e83 	subseq	r0, sp, r3, lsl #29
     f30:	050f0000 	streq	r0, [pc, #-0]	; f38 <__code_start__-0x70c8>
     f34:	05090000 	streq	r0, [r9, #-0]
     f38:	78100000 	ldmdavc	r0, {}	; <UNPREDICTABLE>
     f3c:	83010031 	movwhi	r0, #4145	; 0x1031
     f40:	00005d11 	andeq	r5, r0, r1, lsl sp
     f44:	00053c00 	andeq	r3, r5, r0, lsl #24
     f48:	00053800 	andeq	r3, r5, r0, lsl #16
     f4c:	06171100 	ldreq	r1, [r7], -r0, lsl #2
     f50:	86010000 	strhi	r0, [r1], -r0
     f54:	0000b311 	andeq	fp, r0, r1, lsl r3
     f58:	00055e00 	andeq	r5, r5, r0, lsl #28
     f5c:	00055a00 	andeq	r5, r5, r0, lsl #20
     f60:	00ec1200 	rsceq	r1, ip, r0, lsl #4
     f64:	072d0000 	streq	r0, [sp, -r0]!
     f68:	03050000 	movweq	r0, #20480	; 0x5000
     f6c:	00009388 	andeq	r9, r0, r8, lsl #7
     f70:	00877813 	addeq	r7, r7, r3, lsl r8
     f74:	00040000 	andeq	r0, r4, r0
     f78:	00731000 	rsbseq	r1, r3, r0
     f7c:	170a9101 	strne	r9, [sl, -r1, lsl #2]
     f80:	94000007 	strls	r0, [r0], #-7
     f84:	7e000005 	cdpvc	0, 0, cr0, cr0, cr5, {0}
     f88:	14000005 	strne	r0, [r0], #-5
     f8c:	006d756e 	rsbeq	r7, sp, lr, ror #10
     f90:	320d9101 	andcc	r9, sp, #1073741824	; 0x40000000
     f94:	03000007 	movweq	r0, #7
     f98:	157dd891 	ldrbne	sp, [sp, #-2193]!	; 0xfffff76f
     f9c:	0000067a 	andeq	r0, r0, sl, ror r6
     fa0:	32179101 	andscc	r9, r7, #1073741824	; 0x40000000
     fa4:	03000007 	movweq	r0, #7
     fa8:	117ed891 			; <UNDEFINED> instruction: 0x117ed891
     fac:	000005d2 	ldrdeq	r0, [r0], -r2
     fb0:	2c0d9201 	sfmcs	f1, 1, [sp], {1}
     fb4:	1b000000 	blne	fbc <__code_start__-0x7044>
     fb8:	15000006 	strne	r0, [r0, #-6]
     fbc:	16000006 	strne	r0, [r0], -r6
     fc0:	00008840 	andeq	r8, r0, r0, asr #16
     fc4:	000001a4 	andeq	r0, r0, r4, lsr #3
     fc8:	00000539 	andeq	r0, r0, r9, lsr r5
     fcc:	00797410 	rsbseq	r7, r9, r0, lsl r4
     fd0:	b31d9e01 	tstlt	sp, #1, 28
     fd4:	4f000000 	svcmi	0x00000000
     fd8:	45000006 	strmi	r0, [r0, #-6]
     fdc:	17000006 	strne	r0, [r0, -r6]
     fe0:	01007878 	tsteq	r0, r8, ror r8
     fe4:	00701aa2 	rsbseq	r1, r0, r2, lsr #21
     fe8:	50180000 	andspl	r0, r8, r0
     fec:	92000088 	andls	r0, r0, #136, 0	; 0x88
     ff0:	d500000a 	strle	r0, [r0, #-10]
     ff4:	19000002 	stmdbne	r0, {r1}
     ff8:	76025001 	strvc	r5, [r2], -r1
     ffc:	51011900 	tstpl	r1, r0, lsl #18
    1000:	927c0305 	rsbsls	r0, ip, #335544320	; 0x14000000
    1004:	01190000 	tsteq	r9, r0
    1008:	00330152 	eorseq	r0, r3, r2, asr r1
    100c:	00886818 	addeq	r6, r8, r8, lsl r8
    1010:	000a9200 	andeq	r9, sl, r0, lsl #4
    1014:	0002f700 	andeq	pc, r2, r0, lsl #14
    1018:	50011900 	andpl	r1, r1, r0, lsl #18
    101c:	19007602 	stmdbne	r0, {r1, r9, sl, ip, sp, lr}
    1020:	03055101 	movweq	r5, #20737	; 0x5101
    1024:	00009280 	andeq	r9, r0, r0, lsl #5
    1028:	01520119 	cmpeq	r2, r9, lsl r1
    102c:	9c180033 	ldcls	0, cr0, [r8], {51}	; 0x33
    1030:	9e000088 	cdpls	0, 0, cr0, cr0, cr8, {4}
    1034:	1400000a 	strne	r0, [r0], #-10
    1038:	19000003 	stmdbne	r0, {r0, r1}
    103c:	03055001 	movweq	r5, #20481	; 0x5001
    1040:	00009284 	andeq	r9, r0, r4, lsl #5
    1044:	02510119 	subseq	r0, r1, #1073741830	; 0x40000006
    1048:	18000077 	stmdane	r0, {r0, r1, r2, r4, r5, r6}
    104c:	000088a8 	andeq	r8, r0, r8, lsr #17
    1050:	00000a9e 	muleq	r0, lr, sl
    1054:	00000331 	andeq	r0, r0, r1, lsr r3
    1058:	05500119 	ldrbeq	r0, [r0, #-281]	; 0xfffffee7
    105c:	00928c03 	addseq	r8, r2, r3, lsl #24
    1060:	51011900 	tstpl	r1, r0, lsl #18
    1064:	00007a02 	andeq	r7, r0, r2, lsl #20
    1068:	0088b818 	addeq	fp, r8, r8, lsl r8
    106c:	000a9200 	andeq	r9, sl, r0, lsl #4
    1070:	00035300 	andeq	r5, r3, r0, lsl #6
    1074:	50011900 	andpl	r1, r1, r0, lsl #18
    1078:	19007602 	stmdbne	r0, {r1, r9, sl, ip, sp, lr}
    107c:	03055101 	movweq	r5, #20737	; 0x5101
    1080:	0000927c 	andeq	r9, r0, ip, ror r2
    1084:	01520119 	cmpeq	r2, r9, lsl r1
    1088:	d0180033 	andsle	r0, r8, r3, lsr r0
    108c:	92000088 	andls	r0, r0, #136, 0	; 0x88
    1090:	7500000a 	strvc	r0, [r0, #-10]
    1094:	19000003 	stmdbne	r0, {r0, r1}
    1098:	76025001 	strvc	r5, [r2], -r1
    109c:	51011900 	tstpl	r1, r0, lsl #18
    10a0:	92800305 	addls	r0, r0, #335544320	; 0x14000000
    10a4:	01190000 	tsteq	r9, r0
    10a8:	00330152 	eorseq	r0, r3, r2, asr r1
    10ac:	0088f818 	addeq	pc, r8, r8, lsl r8	; <UNPREDICTABLE>
    10b0:	00074200 	andeq	r4, r7, r0, lsl #4
    10b4:	0003a900 	andeq	sl, r3, r0, lsl #18
    10b8:	50011900 	andpl	r1, r1, r0, lsl #18
    10bc:	01193a01 	tsteq	r9, r1, lsl #20
    10c0:	d0910351 	addsle	r0, r1, r1, asr r3
    10c4:	5201197d 	andpl	r1, r1, #2048000	; 0x1f4000
    10c8:	19800802 	stmibne	r0, {r1, fp}
    10cc:	77025301 	strvc	r5, [r2, -r1, lsl #6]
    10d0:	7d021900 	vstrvc.16	s2, [r2, #-0]	; <UNPREDICTABLE>
    10d4:	00750200 	rsbseq	r0, r5, r0, lsl #4
    10d8:	047d0219 	ldrbteq	r0, [sp], #-537	; 0xfffffde7
    10dc:	00007602 	andeq	r7, r0, r2, lsl #12
    10e0:	00891818 	addeq	r1, r9, r8, lsl r8
    10e4:	00074200 	andeq	r4, r7, r0, lsl #4
    10e8:	0003dd00 	andeq	sp, r3, r0, lsl #26
    10ec:	50011900 	andpl	r1, r1, r0, lsl #18
    10f0:	01193a01 	tsteq	r9, r1, lsl #20
    10f4:	d0910351 	addsle	r0, r1, r1, asr r3
    10f8:	5201197e 	andpl	r1, r1, #2064384	; 0x1f8000
    10fc:	19800802 	stmibne	r0, {r1, fp}
    1100:	7a025301 	bvc	95d0c <__bss_end__+0x8c45c>
    1104:	7d021900 	vstrvc.16	s2, [r2, #-0]	; <UNPREDICTABLE>
    1108:	00750200 	rsbseq	r0, r5, r0, lsl #4
    110c:	047d0219 	ldrbteq	r0, [sp], #-537	; 0xfffffde7
    1110:	00007602 	andeq	r7, r0, r2, lsl #12
    1114:	00892418 	addeq	r2, r9, r8, lsl r4
    1118:	000aaa00 	andeq	sl, sl, r0, lsl #20
    111c:	0003fb00 	andeq	pc, r3, r0, lsl #22
    1120:	50011900 	andpl	r1, r1, r0, lsl #18
    1124:	7dd09103 	ldfvcp	f1, [r0, #12]
    1128:	05510119 	ldrbeq	r0, [r1, #-281]	; 0xfffffee7
    112c:	00924003 	addseq	r4, r2, r3
    1130:	38180000 	ldmdacc	r8, {}	; <UNPREDICTABLE>
    1134:	b6000089 	strlt	r0, [r0], -r9, lsl #1
    1138:	1700000a 	strne	r0, [r0, -sl]
    113c:	19000004 	stmdbne	r0, {r2}
    1140:	91035001 	tstls	r3, r1
    1144:	01197dd0 			; <UNDEFINED> instruction: 0x01197dd0
    1148:	d0910351 	addsle	r0, r1, r1, asr r3
    114c:	5c18007e 	ldcpl	0, cr0, [r8], {126}	; 0x7e
    1150:	9e000089 	cdpls	0, 0, cr0, cr0, cr9, {4}
    1154:	5000000a 	andpl	r0, r0, sl
    1158:	19000004 	stmdbne	r0, {r2}
    115c:	03055001 	movweq	r5, #20481	; 0x5001
    1160:	0000922c 	andeq	r9, r0, ip, lsr #4
    1164:	05510119 	ldrbeq	r0, [r1, #-281]	; 0xfffffee7
    1168:	00921803 	addseq	r1, r2, r3, lsl #16
    116c:	52011900 	andpl	r1, r1, #0, 18
    1170:	93880305 	orrls	r0, r8, #335544320	; 0x14000000
    1174:	01190000 	tsteq	r9, r0
    1178:	9f080253 	svcls	0x00080253
    117c:	007d0219 	rsbseq	r0, sp, r9, lsl r2
    1180:	92940305 	addsls	r0, r4, #335544320	; 0x14000000
    1184:	1a000000 	bne	118c <__code_start__-0x6e74>
    1188:	00008960 	andeq	r8, r0, r0, ror #18
    118c:	00000ac2 	andeq	r0, r0, r2, asr #21
    1190:	00898018 	addeq	r8, r9, r8, lsl r0
    1194:	00074200 	andeq	r4, r7, r0, lsl #4
    1198:	00048d00 	andeq	r8, r4, r0, lsl #26
    119c:	50011900 	andpl	r1, r1, r0, lsl #18
    11a0:	01194001 	tsteq	r9, r1
    11a4:	d0910351 	addsle	r0, r1, r1, asr r3
    11a8:	5201197d 	andpl	r1, r1, #2048000	; 0x1f4000
    11ac:	19800802 	stmibne	r0, {r1, fp}
    11b0:	77025301 	strvc	r5, [r2, -r1, lsl #6]
    11b4:	7d021900 	vstrvc.16	s2, [r2, #-0]	; <UNPREDICTABLE>
    11b8:	00750200 	rsbseq	r0, r5, r0, lsl #4
    11bc:	047d0219 	ldrbteq	r0, [sp], #-537	; 0xfffffde7
    11c0:	00007602 	andeq	r7, r0, r2, lsl #12
    11c4:	0089a018 	addeq	sl, r9, r8, lsl r0
    11c8:	00074200 	andeq	r4, r7, r0, lsl #4
    11cc:	0004c100 	andeq	ip, r4, r0, lsl #2
    11d0:	50011900 	andpl	r1, r1, r0, lsl #18
    11d4:	01194001 	tsteq	r9, r1
    11d8:	d0910351 	addsle	r0, r1, r1, asr r3
    11dc:	5201197e 	andpl	r1, r1, #2064384	; 0x1f8000
    11e0:	19800802 	stmibne	r0, {r1, fp}
    11e4:	7a025301 	bvc	95df0 <__bss_end__+0x8c540>
    11e8:	7d021900 	vstrvc.16	s2, [r2, #-0]	; <UNPREDICTABLE>
    11ec:	00750200 	rsbseq	r0, r5, r0, lsl #4
    11f0:	047d0219 	ldrbteq	r0, [sp], #-537	; 0xfffffde7
    11f4:	00007602 	andeq	r7, r0, r2, lsl #12
    11f8:	0089ac18 	addeq	sl, r9, r8, lsl ip
    11fc:	000ace00 	andeq	ip, sl, r0, lsl #28
    1200:	0004dd00 	andeq	sp, r4, r0, lsl #26
    1204:	50011900 	andpl	r1, r1, r0, lsl #18
    1208:	7dd09103 	ldfvcp	f1, [r0, #12]
    120c:	03510119 	cmpeq	r1, #1073741830	; 0x40000006
    1210:	007ed291 			; <UNDEFINED> instruction: 0x007ed291
    1214:	0089c018 	addeq	ip, r9, r8, lsl r0
    1218:	000ace00 	andeq	ip, sl, r0, lsl #28
    121c:	0004f900 	andeq	pc, r4, r0, lsl #18
    1220:	50011900 	andpl	r1, r1, r0, lsl #18
    1224:	7dd09103 	ldfvcp	f1, [r0, #12]
    1228:	03510119 	cmpeq	r1, #1073741830	; 0x40000006
    122c:	007ed091 			; <UNDEFINED> instruction: 0x007ed091
    1230:	0089e018 	addeq	lr, r9, r8, lsl r0
    1234:	000a9e00 	andeq	r9, sl, r0, lsl #28
    1238:	00052f00 	andeq	r2, r5, r0, lsl #30
    123c:	50011900 	andpl	r1, r1, r0, lsl #18
    1240:	92d00305 	sbcsls	r0, r0, #335544320	; 0x14000000
    1244:	01190000 	tsteq	r9, r0
    1248:	18030551 	stmdane	r3, {r0, r4, r6, r8, sl}
    124c:	19000092 	stmdbne	r0, {r1, r4, r7}
    1250:	03055201 	movweq	r5, #20993	; 0x5201
    1254:	00009388 	andeq	r9, r0, r8, lsl #7
    1258:	02530119 	subseq	r0, r3, #1073741830	; 0x40000006
    125c:	0219b608 	andseq	fp, r9, #8, 12	; 0x800000
    1260:	7602007d 			; <UNDEFINED> instruction: 0x7602007d
    1264:	e41a0000 	ldr	r0, [sl], #-0
    1268:	c2000089 	andgt	r0, r0, #137, 0	; 0x89
    126c:	0000000a 	andeq	r0, r0, sl
    1270:	00879018 	addeq	r9, r7, r8, lsl r0
    1274:	0009c000 	andeq	ip, r9, r0
    1278:	00054d00 	andeq	r4, r5, r0, lsl #26
    127c:	50011900 	andpl	r1, r1, r0, lsl #18
    1280:	00007702 	andeq	r7, r0, r2, lsl #14
    1284:	00883c18 	addeq	r3, r8, r8, lsl ip
    1288:	000a9e00 	andeq	r9, sl, r0, lsl #28
    128c:	00058600 	andeq	r8, r5, r0, lsl #12
    1290:	50011900 	andpl	r1, r1, r0, lsl #18
    1294:	922c0305 	eorls	r0, ip, #335544320	; 0x14000000
    1298:	01190000 	tsteq	r9, r0
    129c:	18030551 	stmdane	r3, {r0, r4, r6, r8, sl}
    12a0:	19000092 	stmdbne	r0, {r1, r4, r7}
    12a4:	03055201 	movweq	r5, #20993	; 0x5201
    12a8:	00009388 	andeq	r9, r0, r8, lsl #7
    12ac:	02530119 	subseq	r0, r3, #1073741830	; 0x40000006
    12b0:	02199808 	andseq	r9, r9, #8, 16	; 0x80000
    12b4:	0305007d 	movweq	r0, #20605	; 0x507d
    12b8:	00009270 	andeq	r9, r0, r0, ror r2
    12bc:	88401a00 	stmdahi	r0, {r9, fp, ip}^
    12c0:	0ac20000 	beq	ff0812c8 <__bss_end__+0xff077a18>
    12c4:	f8180000 			; <UNDEFINED> instruction: 0xf8180000
    12c8:	9e000089 	cdpls	0, 0, cr0, cr0, cr9, {4}
    12cc:	be00000a 	cdplt	0, 0, cr0, cr0, cr10, {0}
    12d0:	19000005 	stmdbne	r0, {r0, r2}
    12d4:	03055001 	movweq	r5, #20481	; 0x5001
    12d8:	000092f8 	strdeq	r9, [r0], -r8
    12dc:	05510119 	ldrbeq	r0, [r1, #-281]	; 0xfffffee7
    12e0:	00921803 	addseq	r1, r2, r3, lsl #16
    12e4:	52011900 	andpl	r1, r1, #0, 18
    12e8:	93880305 	orrls	r0, r8, #335544320	; 0x14000000
    12ec:	01190000 	tsteq	r9, r0
    12f0:	be080253 	mcrlt	2, 0, r0, cr8, cr3, {2}
    12f4:	89fc1a00 	ldmibhi	ip!, {r9, fp, ip}^
    12f8:	0ac20000 	beq	ff081300 <__bss_end__+0xff077a50>
    12fc:	28180000 	ldmdacs	r8, {}	; <UNPREDICTABLE>
    1300:	4200008a 	andmi	r0, r0, #138, 0	; 0x8a
    1304:	f4000007 	vst4.8	{d0-d3}, [r0], r7
    1308:	19000005 	stmdbne	r0, {r0, r2}
    130c:	3a015001 	bcc	55318 <__bss_end__+0x4ba68>
    1310:	03510119 	cmpeq	r1, #1073741830	; 0x40000006
    1314:	197dd091 	ldmdbne	sp!, {r0, r4, r7, ip, lr, pc}^
    1318:	08025201 	stmdaeq	r2, {r0, r9, ip, lr}
    131c:	7d021980 	vstrvc.16	s2, [r2, #-256]	; 0xffffff00	; <UNPREDICTABLE>
    1320:	00750200 	rsbseq	r0, r5, r0, lsl #4
    1324:	047d0219 	ldrbteq	r0, [sp], #-537	; 0xfffffde7
    1328:	18003101 	stmdane	r0, {r0, r8, ip, sp}
    132c:	00008a60 	andeq	r8, r0, r0, ror #20
    1330:	00000742 	andeq	r0, r0, r2, asr #14
    1334:	00000621 	andeq	r0, r0, r1, lsr #12
    1338:	01500119 	cmpeq	r0, r9, lsl r1
    133c:	5101193a 	tstpl	r1, sl, lsr r9
    1340:	7dd09103 	ldfvcp	f1, [r0, #12]
    1344:	02520119 	subseq	r0, r2, #1073741830	; 0x40000006
    1348:	02198008 	andseq	r8, r9, #8, 0
    134c:	7502007d 	strvc	r0, [r2, #-125]	; 0xffffff83
    1350:	7d021900 	vstrvc.16	s2, [r2, #-0]	; <UNPREDICTABLE>
    1354:	00300104 	eorseq	r0, r0, r4, lsl #2
    1358:	008a9418 	addeq	r9, sl, r8, lsl r4
    135c:	00074200 	andeq	r4, r7, r0, lsl #4
    1360:	00064e00 	andeq	r4, r6, r0, lsl #28
    1364:	50011900 	andpl	r1, r1, r0, lsl #18
    1368:	01194001 	tsteq	r9, r1
    136c:	d0910351 	addsle	r0, r1, r1, asr r3
    1370:	5201197d 	andpl	r1, r1, #2048000	; 0x1f4000
    1374:	19800802 	stmibne	r0, {r1, fp}
    1378:	02007d02 	andeq	r7, r0, #128	; 0x80
    137c:	02190075 	andseq	r0, r9, #117, 0	; 0x75
    1380:	3001047d 	andcc	r0, r1, sp, ror r4
    1384:	8ac81800 	bhi	ff20738c <__bss_end__+0xff1fdadc>
    1388:	07420000 	strbeq	r0, [r2, -r0]
    138c:	067b0000 	ldrbteq	r0, [fp], -r0
    1390:	01190000 	tsteq	r9, r0
    1394:	19320150 	ldmdbne	r2!, {r4, r6, r8}
    1398:	91035101 	tstls	r3, r1, lsl #2
    139c:	01197dd0 			; <UNDEFINED> instruction: 0x01197dd0
    13a0:	80080252 	andhi	r0, r8, r2, asr r2
    13a4:	007d0219 	rsbseq	r0, sp, r9, lsl r2
    13a8:	19007502 	stmdbne	r0, {r1, r8, sl, ip, sp, lr}
    13ac:	01047d02 	tsteq	r4, r2, lsl #26
    13b0:	10180030 	andsne	r0, r8, r0, lsr r0
    13b4:	4200008b 	andmi	r0, r0, #139, 0	; 0x8b
    13b8:	a8000007 	stmdage	r0, {r0, r1, r2}
    13bc:	19000006 	stmdbne	r0, {r1, r2}
    13c0:	38015001 	stmdacc	r1, {r0, ip, lr}
    13c4:	03510119 	cmpeq	r1, #1073741830	; 0x40000006
    13c8:	197dd091 	ldmdbne	sp!, {r0, r4, r7, ip, lr, pc}^
    13cc:	08025201 	stmdaeq	r2, {r0, r9, ip, lr}
    13d0:	7d021980 	vstrvc.16	s2, [r2, #-256]	; 0xffffff00	; <UNPREDICTABLE>
    13d4:	00750200 	rsbseq	r0, r5, r0, lsl #4
    13d8:	047d0219 	ldrbteq	r0, [sp], #-537	; 0xfffffde7
    13dc:	18003001 	stmdane	r0, {r0, ip, sp}
    13e0:	00008b30 	andeq	r8, r0, r0, lsr fp
    13e4:	00000a9e 	muleq	r0, lr, sl
    13e8:	000006cb 	andeq	r0, r0, fp, asr #13
    13ec:	05500119 	ldrbeq	r0, [r0, #-281]	; 0xfffffee7
    13f0:	00932003 	addseq	r2, r3, r3
    13f4:	51011900 	tstpl	r1, r0, lsl #18
    13f8:	19007a02 	stmdbne	r0, {r1, r9, fp, ip, sp, lr}
    13fc:	7a025201 	bvc	95c08 <__bss_end__+0x8c358>
    1400:	401b0000 	andsmi	r0, fp, r0
    1404:	dd00008b 	stcle	0, cr0, [r0, #-556]	; 0xfffffdd4
    1408:	19000006 	stmdbne	r0, {r1, r2}
    140c:	91045001 	tstls	r4, r1
    1410:	00067dc8 	andeq	r7, r6, r8, asr #27
    1414:	008b5418 	addeq	r5, fp, r8, lsl r4
    1418:	000a9e00 	andeq	r9, sl, r0, lsl #28
    141c:	00070c00 	andeq	r0, r7, r0, lsl #24
    1420:	50011900 	andpl	r1, r1, r0, lsl #18
    1424:	93500305 	cmpls	r0, #335544320	; 0x14000000
    1428:	01190000 	tsteq	r9, r0
    142c:	18030551 	stmdane	r3, {r0, r4, r6, r8, sl}
    1430:	19000092 	stmdbne	r0, {r1, r4, r7}
    1434:	03055201 	movweq	r5, #20993	; 0x5201
    1438:	00009388 	andeq	r9, r0, r8, lsl #7
    143c:	02530119 	subseq	r0, r3, #1073741830	; 0x40000006
    1440:	1a00e208 	bne	39c68 <__bss_end__+0x303b8>
    1444:	00008b58 	andeq	r8, r0, r8, asr fp
    1448:	00000ac2 	andeq	r0, r0, r2, asr #21
    144c:	04080000 	streq	r0, [r8], #-0
    1450:	000000b9 	strheq	r0, [r0], -r9
    1454:	0000c01c 	andeq	ip, r0, ip, lsl r0
    1458:	00072d00 	andeq	r2, r7, r0, lsl #26
    145c:	002c1d00 	eoreq	r1, ip, r0, lsl #26
    1460:	00090000 	andeq	r0, r9, r0
    1464:	00071d09 	andeq	r1, r7, r9, lsl #26
    1468:	00b91c00 	adcseq	r1, r9, r0, lsl #24
    146c:	07420000 	strbeq	r0, [r2, -r0]
    1470:	2c1d0000 	ldccs	0, cr0, [sp], {-0}
    1474:	7f000000 	svcvc	0x00000000
    1478:	063b1e00 	ldrteq	r1, [fp], -r0, lsl #28
    147c:	49010000 	stmdbmi	r1, {}	; <UNPREDICTABLE>
    1480:	00071701 	andeq	r1, r7, r1, lsl #14
    1484:	0084f800 	addeq	pc, r4, r0, lsl #16
    1488:	0001b400 	andeq	fp, r1, r0, lsl #8
    148c:	ab9c0100 	blge	fe701894 <__bss_end__+0xfe6f7fe4>
    1490:	1f000008 	svcne	0x00000008
    1494:	00000687 	andeq	r0, r0, r7, lsl #13
    1498:	2c0f4901 			; <UNDEFINED> instruction: 0x2c0f4901
    149c:	98000000 	stmdals	r0, {}	; <UNPREDICTABLE>
    14a0:	92000006 	andls	r0, r0, #6, 0
    14a4:	0e000006 	cdpeq	0, 0, cr0, cr0, cr6, {0}
    14a8:	00747364 	rsbseq	r7, r4, r4, ror #6
    14ac:	171b4901 	ldrne	r4, [fp, -r1, lsl #18]
    14b0:	d6000007 	strle	r0, [r0], -r7
    14b4:	c6000006 	strgt	r0, [r0], -r6
    14b8:	0e000006 	cdpeq	0, 0, cr0, cr0, cr6, {0}
    14bc:	4901006e 	stmdbmi	r1, {r1, r2, r3, r5, r6}
    14c0:	00002524 	andeq	r2, r0, r4, lsr #10
    14c4:	00073a00 	andeq	r3, r7, r0, lsl #20
    14c8:	00073600 	andeq	r3, r7, r0, lsl #12
    14cc:	61760e00 	cmnvs	r6, r0, lsl #28
    14d0:	4901006c 	stmdbmi	r1, {r2, r3, r5, r6}
    14d4:	0000252b 	andeq	r2, r0, fp, lsr #10
    14d8:	00076400 	andeq	r6, r7, r0, lsl #8
    14dc:	00075800 	andeq	r5, r7, r0, lsl #16
    14e0:	05d21f00 	ldrbeq	r1, [r2, #3840]	; 0xf00
    14e4:	49010000 	stmdbmi	r1, {}	; <UNPREDICTABLE>
    14e8:	00002534 	andeq	r2, r0, r4, lsr r5
    14ec:	0007ba00 	andeq	fp, r7, r0, lsl #20
    14f0:	0007b400 	andeq	fp, r7, r0, lsl #8
    14f4:	068c0f00 	streq	r0, [ip], r0, lsl #30
    14f8:	49010000 	stmdbmi	r1, {}	; <UNPREDICTABLE>
    14fc:	0000253f 	andeq	r2, r0, pc, lsr r5
    1500:	04910200 	ldreq	r0, [r1], #512	; 0x200
    1504:	66756214 			; <UNDEFINED> instruction: 0x66756214
    1508:	074e0100 	strbeq	r0, [lr, -r0, lsl #2]
    150c:	000008ab 	andeq	r0, r0, fp, lsr #17
    1510:	7fa89103 	svcvc	0x00a89103
    1514:	01007010 	tsteq	r0, r0, lsl r0
    1518:	0717114e 	ldreq	r1, [r7, -lr, asr #2]
    151c:	08040000 	stmdaeq	r4, {}	; <UNPREDICTABLE>
    1520:	07e40000 	strbeq	r0, [r4, r0]!
    1524:	75100000 	ldrvc	r0, [r0, #-0]
    1528:	0b4f0100 	bleq	13c1930 <__bss_end__+0x13b8080>
    152c:	0000002c 	andeq	r0, r0, ip, lsr #32
    1530:	000008ea 	andeq	r0, r0, sl, ror #17
    1534:	000008d6 	ldrdeq	r0, [r0], -r6
    1538:	0000ec12 	andeq	lr, r0, r2, lsl ip
    153c:	0008cb00 	andeq	ip, r8, r0, lsl #22
    1540:	70030500 	andvc	r0, r3, r0, lsl #10
    1544:	16000093 			; <UNDEFINED> instruction: 0x16000093
    1548:	00008564 	andeq	r8, r0, r4, ror #10
    154c:	00000078 	andeq	r0, r0, r8, ror r0
    1550:	00000832 	andeq	r0, r0, r2, lsr r8
    1554:	00062811 	andeq	r2, r6, r1, lsl r8
    1558:	0d540100 	ldfeqe	f0, [r4, #-0]
    155c:	0000002c 	andeq	r0, r0, ip, lsr #32
    1560:	0000096b 	andeq	r0, r0, fp, ror #18
    1564:	00000963 	andeq	r0, r0, r3, ror #18
    1568:	861c1800 	ldrhi	r1, [ip], -r0, lsl #16
    156c:	095d0000 	ldmdbeq	sp, {}^	; <UNPREDICTABLE>
    1570:	08470000 	stmdaeq	r7, {}^	; <UNPREDICTABLE>
    1574:	01190000 	tsteq	r9, r0
    1578:	a0910351 	addsge	r0, r1, r1, asr r3
    157c:	3018007f 	andscc	r0, r8, pc, ror r0
    1580:	d0000086 	andle	r0, r0, r6, lsl #1
    1584:	68000008 	stmdavs	r0, {r3}
    1588:	19000008 	stmdbne	r0, {r3}
    158c:	75025001 	strvc	r5, [r2, #-1]
    1590:	51011900 	tstpl	r1, r0, lsl #18
    1594:	19007402 	stmdbne	r0, {r1, sl, ip, sp, lr}
    1598:	91035301 	tstls	r3, r1, lsl #6
    159c:	18007fa0 	stmdane	r0, {r5, r7, r8, r9, sl, fp, ip, sp, lr}
    15a0:	00008688 	andeq	r8, r0, r8, lsl #13
    15a4:	00000a9e 	muleq	r0, lr, sl
    15a8:	000008a1 	andeq	r0, r0, r1, lsr #17
    15ac:	05500119 	ldrbeq	r0, [r0, #-281]	; 0xfffffee7
    15b0:	00922c03 	addseq	r2, r2, r3, lsl #24
    15b4:	51011900 	tstpl	r1, r0, lsl #18
    15b8:	92180305 	andsls	r0, r8, #335544320	; 0x14000000
    15bc:	01190000 	tsteq	r9, r0
    15c0:	70030552 	andvc	r0, r3, r2, asr r5
    15c4:	19000093 	stmdbne	r0, {r0, r1, r4, r7}
    15c8:	08025301 	stmdaeq	r2, {r0, r8, r9, ip, lr}
    15cc:	7d021979 	vstrvc.16	s2, [r2, #-242]	; 0xffffff0e	; <UNPREDICTABLE>
    15d0:	40030500 	andmi	r0, r3, r0, lsl #10
    15d4:	00000092 	muleq	r0, r2, r0
    15d8:	00868c1a 	addeq	r8, r6, sl, lsl ip
    15dc:	000ac200 	andeq	ip, sl, r0, lsl #4
    15e0:	b91c0000 	ldmdblt	ip, {}	; <UNPREDICTABLE>
    15e4:	bb000000 	bllt	15ec <__code_start__-0x6a14>
    15e8:	1d000008 	stcne	0, cr0, [r0, #-32]	; 0xffffffe0
    15ec:	0000002c 	andeq	r0, r0, ip, lsr #32
    15f0:	c01c003f 	andsgt	r0, ip, pc, lsr r0
    15f4:	cb000000 	blgt	15fc <__code_start__-0x6a04>
    15f8:	1d000008 	stcne	0, cr0, [r0, #-32]	; 0xffffffe0
    15fc:	0000002c 	andeq	r0, r0, ip, lsr #32
    1600:	bb090004 	bllt	241618 <__bss_end__+0x237d68>
    1604:	1e000008 	cdpne	0, 0, cr0, cr0, cr8, {0}
    1608:	00000648 	andeq	r0, r0, r8, asr #12
    160c:	170e3801 	strne	r3, [lr, -r1, lsl #16]
    1610:	c0000007 	andgt	r0, r0, r7
    1614:	38000084 	stmdacc	r0, {r2, r7}
    1618:	01000000 	mrseq	r0, (UNDEF: 0)
    161c:	00095d9c 	muleq	r9, ip, sp
    1620:	73640e00 	cmnvc	r4, #0, 28
    1624:	38010074 	stmdacc	r1, {r2, r4, r5, r6}
    1628:	0007171c 	andeq	r1, r7, ip, lsl r7
    162c:	0009ac00 	andeq	sl, r9, r0, lsl #24
    1630:	0009a200 	andeq	sl, r9, r0, lsl #4
    1634:	006e0e00 	rsbeq	r0, lr, r0, lsl #28
    1638:	25253801 	strcs	r3, [r5, #-2049]!	; 0xfffff7ff
    163c:	f3000000 	vhadd.u8	d0, d0, d0
    1640:	ef000009 	svc	0x00000009
    1644:	0e000009 	cdpeq	0, 0, cr0, cr0, cr9, {0}
    1648:	38010070 	stmdacc	r1, {r4, r5, r6}
    164c:	0007172e 	andeq	r1, r7, lr, lsr #14
    1650:	000a1c00 	andeq	r1, sl, r0, lsl #24
    1654:	000a1400 	andeq	r1, sl, r0, lsl #8
    1658:	061b1f00 	ldreq	r1, [fp], -r0, lsl #30
    165c:	38010000 	stmdacc	r1, {}	; <UNPREDICTABLE>
    1660:	00071737 	andeq	r1, r7, r7, lsr r7
    1664:	000a5600 	andeq	r5, sl, r0, lsl #12
    1668:	000a5200 	andeq	r5, sl, r0, lsl #4
    166c:	656c1000 	strbvs	r1, [ip, #-0]!
    1670:	3a01006e 	bcc	41830 <__bss_end__+0x37f80>
    1674:	00002506 	andeq	r2, r0, r6, lsl #10
    1678:	000a7c00 	andeq	r7, sl, r0, lsl #24
    167c:	000a7400 	andeq	r7, sl, r0, lsl #8
    1680:	00731000 	rsbseq	r1, r3, r0
    1684:	17083e01 	strne	r3, [r8, -r1, lsl #28]
    1688:	ca000007 	bgt	16ac <__code_start__-0x6954>
    168c:	c800000a 	stmdagt	r0, {r1, r3}
    1690:	0000000a 	andeq	r0, r0, sl
    1694:	64617020 	strbtvs	r7, [r1], #-32	; 0xffffffe0
    1698:	0e2e0100 	sufeqe	f0, f6, f0
    169c:	00000717 	andeq	r0, r0, r7, lsl r7
    16a0:	0000849c 	muleq	r0, ip, r4
    16a4:	00000024 	andeq	r0, r0, r4, lsr #32
    16a8:	09c09c01 	stmibeq	r0, {r0, sl, fp, ip, pc}^
    16ac:	700e0000 	andvc	r0, lr, r0
    16b0:	182e0100 	stmdane	lr!, {r8}
    16b4:	00000717 	andeq	r0, r0, r7, lsl r7
    16b8:	00000ae3 	andeq	r0, r0, r3, ror #21
    16bc:	00000add 	ldrdeq	r0, [r0], -sp
    16c0:	0006871f 	andeq	r8, r6, pc, lsl r7
    16c4:	222e0100 	eorcs	r0, lr, #0
    16c8:	00000717 	andeq	r0, r0, r7, lsl r7
    16cc:	00000b12 	andeq	r0, r0, r2, lsl fp
    16d0:	00000b0e 	andeq	r0, r0, lr, lsl #22
    16d4:	0005d20f 	andeq	sp, r5, pc, lsl #4
    16d8:	2c2e0100 	stfcss	f0, [lr], #-0
    16dc:	00000025 	andeq	r0, r0, r5, lsr #32
    16e0:	6c105201 	lfmvs	f5, 4, [r0], {1}
    16e4:	01006e65 	tsteq	r0, r5, ror #28
    16e8:	0025062f 	eoreq	r0, r5, pc, lsr #12
    16ec:	0b350000 	bleq	d416f4 <__bss_end__+0xd37e44>
    16f0:	0b330000 	bleq	cc16f8 <__bss_end__+0xcb7e48>
    16f4:	1e000000 	cdpne	0, 0, cr0, cr0, cr0, {0}
    16f8:	00000591 	muleq	r0, r1, r5
    16fc:	250c2701 	strcs	r2, [ip, #-1793]	; 0xfffff8ff
    1700:	88000000 	stmdahi	r0, {}	; <UNPREDICTABLE>
    1704:	14000084 	strne	r0, [r0], #-132	; 0xffffff7c
    1708:	01000000 	mrseq	r0, (UNDEF: 0)
    170c:	0009ed9c 	muleq	r9, ip, sp
    1710:	00630e00 	rsbeq	r0, r3, r0, lsl #28
    1714:	25182701 	ldrcs	r2, [r8, #-1793]	; 0xfffff8ff
    1718:	4e000000 	cdpmi	0, 0, cr0, cr0, cr0, {0}
    171c:	4800000b 	stmdami	r0, {r0, r1, r3}
    1720:	0000000b 	andeq	r0, r0, fp
    1724:	00060821 	andeq	r0, r6, r1, lsr #16
    1728:	061f0100 	ldreq	r0, [pc], -r0, lsl #2
    172c:	000086ac 	andeq	r8, r0, ip, lsr #13
    1730:	00000064 	andeq	r0, r0, r4, rrx
    1734:	0a7d9c01 	beq	1f68740 <__bss_end__+0x1f5ee90>
    1738:	e51f0000 	ldr	r0, [pc, #-0]	; 1740 <__code_start__-0x68c0>
    173c:	01000005 	tsteq	r0, r5
    1740:	009e1b1f 	addseq	r1, lr, pc, lsl fp
    1744:	0b800000 	bleq	fe00174c <__bss_end__+0xfdff7e9c>
    1748:	0b7c0000 	bleq	1f01750 <__bss_end__+0x1ef7ea0>
    174c:	401f0000 	andsmi	r0, pc, r0
    1750:	01000006 	tsteq	r0, r6
    1754:	00d1301f 	sbcseq	r3, r1, pc, lsl r0
    1758:	0ba50000 	bleq	fe941760 <__bss_end__+0xfe937eb0>
    175c:	0ba10000 	bleq	fe841764 <__bss_end__+0xfe837eb4>
    1760:	ec120000 	ldc	0, cr0, [r2], {-0}
    1764:	8d000000 	stchi	0, cr0, [r0, #-0]
    1768:	0500000a 	streq	r0, [r0, #-10]
    176c:	00937803 	addseq	r7, r3, r3, lsl #16
    1770:	86f41800 	ldrbthi	r1, [r4], r0, lsl #16
    1774:	0a9e0000 	beq	fe78177c <__bss_end__+0xfe777ecc>
    1778:	0a730000 	beq	1cc1780 <__bss_end__+0x1cb7ed0>
    177c:	01190000 	tsteq	r9, r0
    1780:	2c030550 	cfstr32cs	mvfx0, [r3], {80}	; 0x50
    1784:	19000092 	stmdbne	r0, {r1, r4, r7}
    1788:	03055101 	movweq	r5, #20737	; 0x5101
    178c:	00009218 	andeq	r9, r0, r8, lsl r2
    1790:	05520119 	ldrbeq	r0, [r2, #-281]	; 0xfffffee7
    1794:	00937803 	addseq	r7, r3, r3, lsl #16
    1798:	53011900 	movwpl	r1, #6400	; 0x1900
    179c:	19200802 	stmdbne	r0!, {r1, fp}
    17a0:	05007d02 	streq	r7, [r0, #-3330]	; 0xfffff2fe
    17a4:	00926803 	addseq	r6, r2, r3, lsl #16
    17a8:	f81a0000 			; <UNDEFINED> instruction: 0xf81a0000
    17ac:	c2000086 	andgt	r0, r0, #134, 0	; 0x86
    17b0:	0000000a 	andeq	r0, r0, sl
    17b4:	0000c01c 	andeq	ip, r0, ip, lsl r0
    17b8:	000a8d00 	andeq	r8, sl, r0, lsl #26
    17bc:	002c1d00 	eoreq	r1, ip, r0, lsl #26
    17c0:	000e0000 	andeq	r0, lr, r0
    17c4:	000a7d09 	andeq	r7, sl, r9, lsl #26
    17c8:	067f2200 	ldrbteq	r2, [pc], -r0, lsl #4
    17cc:	067f0000 	ldrbteq	r0, [pc], -r0
    17d0:	f0030000 			; <UNDEFINED> instruction: 0xf0030000
    17d4:	05072205 	streq	r2, [r7, #-517]	; 0xfffffdfb
    17d8:	05070000 	streq	r0, [r7, #-0]
    17dc:	28030000 	stmdacs	r3, {}	; <UNPREDICTABLE>
    17e0:	06572206 	ldrbeq	r2, [r7], -r6, lsl #4
    17e4:	06570000 	ldrbeq	r0, [r7], -r0
    17e8:	ef030000 	svc	0x00030000
    17ec:	06212205 	strteq	r2, [r1], -r5, lsl #4
    17f0:	06210000 	strteq	r0, [r1], -r0
    17f4:	f2030000 	vhadd.s8	d0, d3, d0
    17f8:	01162207 	tsteq	r6, r7, lsl #4
    17fc:	01160000 	tsteq	r6, r0
    1800:	6e030000 	cdpvs	0, 0, cr0, cr3, cr0, {0}
    1804:	06502206 	ldrbeq	r2, [r0], -r6, lsl #4
    1808:	06500000 	ldrbeq	r0, [r0], -r0
    180c:	f3030000 	vhadd.u8	d0, d3, d0
    1810:	012f0007 			; <UNDEFINED> instruction: 0x012f0007
    1814:	00040000 	andeq	r0, r4, r0
    1818:	00000796 	muleq	r0, r6, r7
    181c:	03fc0104 	mvnseq	r0, #1
    1820:	a90c0000 	stmdbge	ip, {}	; <UNPREDICTABLE>
    1824:	cb000006 	blgt	1844 <__code_start__-0x67bc>
    1828:	c8000004 	stmdagt	r0, {r2}
    182c:	2c00008b 	stccs	0, cr0, [r0], {139}	; 0x8b
    1830:	d3000000 	movwle	r0, #0
    1834:	0200000c 	andeq	r0, r0, #12, 0
    1838:	6e690504 	cdpvs	5, 6, cr0, cr9, cr4, {0}
    183c:	04030074 	streq	r0, [r3], #-116	; 0xffffff8c
    1840:	00018807 	andeq	r8, r1, r7, lsl #16
    1844:	06010300 	streq	r0, [r1], -r0, lsl #6
    1848:	00000141 	andeq	r0, r0, r1, asr #2
    184c:	31050203 	tstcc	r5, r3, lsl #4
    1850:	03000000 	movweq	r0, #0
    1854:	00d50504 	sbcseq	r0, r5, r4, lsl #10
    1858:	08030000 	stmdaeq	r3, {}	; <UNPREDICTABLE>
    185c:	0000d005 	andeq	sp, r0, r5
    1860:	08010300 	stmdaeq	r1, {r8, r9}
    1864:	0000013f 	andeq	r0, r0, pc, lsr r1
    1868:	cf070203 	svcgt	0x00070203
    186c:	03000001 	movweq	r0, #1
    1870:	01830704 	orreq	r0, r3, r4, lsl #14
    1874:	08030000 	stmdaeq	r3, {}	; <UNPREDICTABLE>
    1878:	00017e07 	andeq	r7, r1, r7, lsl #28
    187c:	00250400 	eoreq	r0, r5, r0, lsl #8
    1880:	007a0000 	rsbseq	r0, sl, r0
    1884:	25050000 	strcs	r0, [r5, #-0]
    1888:	00000000 	andeq	r0, r0, r0
    188c:	00006f06 	andeq	r6, r0, r6, lsl #30
    1890:	0e1c0200 	cdpeq	2, 1, cr0, cr12, cr0, {0}
    1894:	00000086 	andeq	r0, r0, r6, lsl #1
    1898:	006b0407 	rsbeq	r0, fp, r7, lsl #8
    189c:	25040000 	strcs	r0, [r4, #-0]
    18a0:	9b000000 	blls	18a8 <__code_start__-0x6758>
    18a4:	05000000 	streq	r0, [r0, #-0]
    18a8:	0000009b 	muleq	r0, fp, r0
    18ac:	a8040700 	stmdage	r4, {r8, r9, sl}
    18b0:	03000000 	movweq	r0, #0
    18b4:	01480801 	cmpeq	r8, r1, lsl #16
    18b8:	a1080000 	mrsge	r0, (UNDEF: 8)
    18bc:	06000000 	streq	r0, [r0], -r0
    18c0:	0000057e 	andeq	r0, r0, lr, ror r5
    18c4:	b90e2102 	stmdblt	lr, {r1, r8, sp}
    18c8:	07000000 	streq	r0, [r0, -r0]
    18cc:	00008c04 	andeq	r8, r0, r4, lsl #24
    18d0:	01160900 	tsteq	r6, r0, lsl #18
    18d4:	04010000 	streq	r0, [r1], #-0
    18d8:	008bc806 	addeq	ip, fp, r6, lsl #16
    18dc:	00002c00 	andeq	r2, r0, r0, lsl #24
    18e0:	0e9c0100 	fmleqe	f0, f4, f0
    18e4:	0a000001 	beq	18f0 <__code_start__-0x6710>
    18e8:	00008bdc 	ldrdeq	r8, [r0], -ip
    18ec:	000000e8 	andeq	r0, r0, r8, ror #1
    18f0:	0550010b 	ldrbeq	r0, [r0, #-267]	; 0xfffffef5
    18f4:	00939403 	addseq	r9, r3, r3, lsl #8
    18f8:	e00c0000 	and	r0, ip, r0
    18fc:	0e00008b 	cdpeq	0, 0, cr0, cr0, cr11, {4}
    1900:	0d000001 	stceq	0, cr0, [r0, #-4]
    1904:	00008be8 	andeq	r8, r0, r8, ror #23
    1908:	0000011a 	andeq	r0, r0, sl, lsl r1
    190c:	00000104 	andeq	r0, r0, r4, lsl #2
    1910:	0150010b 	cmpeq	r0, fp, lsl #2
    1914:	ec0c003a 	stc	0, cr0, [ip], {58}	; 0x3a
    1918:	2600008b 	strcs	r0, [r0], -fp, lsl #1
    191c:	00000001 	andeq	r0, r0, r1
    1920:	0006c40e 	andeq	ip, r6, lr, lsl #8
    1924:	0006c400 	andeq	ip, r6, r0, lsl #8
    1928:	064d0200 	strbeq	r0, [sp], -r0, lsl #4
    192c:	0006a00e 	andeq	sl, r6, lr
    1930:	0006a000 	andeq	sl, r6, r0
    1934:	06580200 	ldrbeq	r0, [r8], -r0, lsl #4
    1938:	0006950e 	andeq	r9, r6, lr, lsl #10
    193c:	00069500 	andeq	r9, r6, r0, lsl #10
    1940:	066b0200 	strbteq	r0, [fp], -r0, lsl #4
    1944:	00018900 	andeq	r8, r1, r0, lsl #18
    1948:	56000400 	strpl	r0, [r0], -r0, lsl #8
    194c:	04000008 	streq	r0, [r0], #-8
    1950:	0003fc01 	andeq	pc, r3, r1, lsl #24
    1954:	06fa0c00 	ldrbteq	r0, [sl], r0, lsl #24
    1958:	04cb0000 	strbeq	r0, [fp], #0
    195c:	8bf40000 	blhi	ffd01964 <__bss_end__+0xffcf80b4>
    1960:	003c0000 	eorseq	r0, ip, r0
    1964:	0d6e0000 	stcleq	0, cr0, [lr, #-0]
    1968:	04020000 	streq	r0, [r2], #-0
    196c:	746e6905 	strbtvc	r6, [lr], #-2309	; 0xfffff6fb
    1970:	07040300 	streq	r0, [r4, -r0, lsl #6]
    1974:	00000188 	andeq	r0, r0, r8, lsl #3
    1978:	41060103 	tstmi	r6, r3, lsl #2
    197c:	03000001 	movweq	r0, #1
    1980:	00310502 	eorseq	r0, r1, r2, lsl #10
    1984:	04030000 	streq	r0, [r3], #-0
    1988:	0000d505 	andeq	sp, r0, r5, lsl #10
    198c:	05080300 	streq	r0, [r8, #-768]	; 0xfffffd00
    1990:	000000d0 	ldrdeq	r0, [r0], -r0	; <UNPREDICTABLE>
    1994:	3f080103 	svccc	0x00080103
    1998:	03000001 	movweq	r0, #1
    199c:	01cf0702 	biceq	r0, pc, r2, lsl #14
    19a0:	04030000 	streq	r0, [r3], #-0
    19a4:	00018307 	andeq	r8, r1, r7, lsl #6
    19a8:	07080300 	streq	r0, [r8, -r0, lsl #6]
    19ac:	0000017e 	andeq	r0, r0, lr, ror r1
    19b0:	00002504 	andeq	r2, r0, r4, lsl #10
    19b4:	00007a00 	andeq	r7, r0, r0, lsl #20
    19b8:	00250500 	eoreq	r0, r5, r0, lsl #10
    19bc:	06000000 	streq	r0, [r0], -r0
    19c0:	0000006f 	andeq	r0, r0, pc, rrx
    19c4:	860e1c02 	strhi	r1, [lr], -r2, lsl #24
    19c8:	07000000 	streq	r0, [r0, -r0]
    19cc:	00006b04 	andeq	r6, r0, r4, lsl #22
    19d0:	00250400 	eoreq	r0, r5, r0, lsl #8
    19d4:	009b0000 	addseq	r0, fp, r0
    19d8:	9b050000 	blls	1419e0 <__bss_end__+0x138130>
    19dc:	00000000 	andeq	r0, r0, r0
    19e0:	00a80407 	adceq	r0, r8, r7, lsl #8
    19e4:	01030000 	mrseq	r0, (UNDEF: 3)
    19e8:	00014808 	andeq	r4, r1, r8, lsl #16
    19ec:	00a10800 	adceq	r0, r1, r0, lsl #16
    19f0:	7e060000 	cdpvc	0, 0, cr0, cr6, cr0, {0}
    19f4:	02000005 	andeq	r0, r0, #5, 0
    19f8:	00b90e21 	adcseq	r0, r9, r1, lsr #28
    19fc:	04070000 	streq	r0, [r7], #-0
    1a00:	0000008c 	andeq	r0, r0, ip, lsl #1
    1a04:	0006d209 	andeq	sp, r6, r9, lsl #4
    1a08:	06040100 	streq	r0, [r4], -r0, lsl #2
    1a0c:	00008bf4 	strdeq	r8, [r0], -r4
    1a10:	0000003c 	andeq	r0, r0, ip, lsr r0
    1a14:	01549c01 	cmpeq	r4, r1, lsl #24
    1a18:	c4060000 	strgt	r0, [r6], #-0
    1a1c:	01000005 	tsteq	r0, r5
    1a20:	00251005 	eoreq	r1, r5, r5
    1a24:	ed060000 	stc	0, cr0, [r6, #-0]
    1a28:	01000005 	tsteq	r0, r5
    1a2c:	00251f05 	eoreq	r1, r5, r5, lsl #30
    1a30:	c70a0000 	strgt	r0, [sl, -r0]
    1a34:	01000001 	tsteq	r0, r1
    1a38:	620b0706 	andvs	r0, fp, #1572864	; 0x180000
    1a3c:	01007373 	tsteq	r0, r3, ror r3
    1a40:	01540a0a 	cmpeq	r4, sl, lsl #20
    1a44:	0bcc0000 	bleq	ff301a4c <__bss_end__+0xff2f819c>
    1a48:	0bc60000 	bleq	ff181a50 <__bss_end__+0xff1781a0>
    1a4c:	da0c0000 	ble	301a54 <__bss_end__+0x2f81a4>
    1a50:	01000006 	tsteq	r0, r6
    1a54:	01540a0b 	cmpeq	r4, fp, lsl #20
    1a58:	180d0000 	stmdane	sp, {}	; <UNPREDICTABLE>
    1a5c:	0800008c 	stmdaeq	r0, {r2, r3, r7}
    1a60:	2f000000 	svccs	0x00000000
    1a64:	0e000001 	cdpeq	0, 0, cr0, cr0, cr1, {0}
    1a68:	01006e69 	tsteq	r0, r9, ror #28
    1a6c:	002c0514 	eoreq	r0, ip, r4, lsl r5
    1a70:	00010000 	andeq	r0, r1, r0
    1a74:	008bfc0f 	addeq	pc, fp, pc, lsl #24
    1a78:	00015a00 	andeq	r5, r1, r0, lsl #20
    1a7c:	8c180f00 	ldchi	15, cr0, [r8], {-0}
    1a80:	01670000 	cmneq	r7, r0
    1a84:	240f0000 	strcs	r0, [pc], #-0	; 1a8c <__code_start__-0x6574>
    1a88:	7300008c 	movwvc	r0, #140	; 0x8c
    1a8c:	0f000001 	svceq	0x00000001
    1a90:	00008c28 	andeq	r8, r0, r8, lsr #24
    1a94:	00000180 	andeq	r0, r0, r0, lsl #3
    1a98:	25040700 	strcs	r0, [r4, #-1792]	; 0xfffff900
    1a9c:	10000000 	andne	r0, r0, r0
    1aa0:	000006ec 	andeq	r0, r0, ip, ror #13
    1aa4:	000006ec 	andeq	r0, r0, ip, ror #13
    1aa8:	06013602 	streq	r3, [r1], -r2, lsl #12
    1aac:	0006e211 	andeq	lr, r6, r1, lsl r2
    1ab0:	0006e200 	andeq	lr, r6, r0, lsl #4
    1ab4:	063b0200 	ldrteq	r0, [fp], -r0, lsl #4
    1ab8:	0001c710 	andeq	ip, r1, r0, lsl r7
    1abc:	0001c700 	andeq	ip, r1, r0, lsl #14
    1ac0:	010a0200 	mrseq	r0, R10_fiq
    1ac4:	01161106 	tsteq	r6, r6, lsl #2
    1ac8:	01160000 	tsteq	r6, r0
    1acc:	6e020000 	cdpvs	0, 0, cr0, cr2, cr0, {0}
    1ad0:	00ce0006 	sbceq	r0, lr, r6
    1ad4:	00040000 	andeq	r0, r4, r0
    1ad8:	00000952 	andeq	r0, r0, r2, asr r9
    1adc:	03fc0104 	mvnseq	r0, #1
    1ae0:	0f0c0000 	svceq	0x000c0000
    1ae4:	cb000007 	blgt	1b08 <__code_start__-0x64f8>
    1ae8:	30000004 	andcc	r0, r0, r4
    1aec:	0400008c 	streq	r0, [r0], #-140	; 0xffffff74
    1af0:	23000000 	movwcs	r0, #0
    1af4:	0200000e 	andeq	r0, r0, #14, 0
    1af8:	6e690504 	cdpvs	5, 6, cr0, cr9, cr4, {0}
    1afc:	04030074 	streq	r0, [r3], #-116	; 0xffffff8c
    1b00:	00018807 	andeq	r8, r1, r7, lsl #16
    1b04:	06010300 	streq	r0, [r1], -r0, lsl #6
    1b08:	00000141 	andeq	r0, r0, r1, asr #2
    1b0c:	31050203 	tstcc	r5, r3, lsl #4
    1b10:	03000000 	movweq	r0, #0
    1b14:	00d50504 	sbcseq	r0, r5, r4, lsl #10
    1b18:	08030000 	stmdaeq	r3, {}	; <UNPREDICTABLE>
    1b1c:	0000d005 	andeq	sp, r0, r5
    1b20:	08010300 	stmdaeq	r1, {r8, r9}
    1b24:	0000013f 	andeq	r0, r0, pc, lsr r1
    1b28:	cf070203 	svcgt	0x00070203
    1b2c:	03000001 	movweq	r0, #1
    1b30:	01830704 	orreq	r0, r3, r4, lsl #14
    1b34:	08030000 	stmdaeq	r3, {}	; <UNPREDICTABLE>
    1b38:	00017e07 	andeq	r7, r1, r7, lsl #28
    1b3c:	00250400 	eoreq	r0, r5, r0, lsl #8
    1b40:	007a0000 	rsbseq	r0, sl, r0
    1b44:	25050000 	strcs	r0, [r5, #-0]
    1b48:	00000000 	andeq	r0, r0, r0
    1b4c:	00006f06 	andeq	r6, r0, r6, lsl #30
    1b50:	0e1c0200 	cdpeq	2, 1, cr0, cr12, cr0, {0}
    1b54:	00000086 	andeq	r0, r0, r6, lsl #1
    1b58:	006b0407 	rsbeq	r0, fp, r7, lsl #8
    1b5c:	25040000 	strcs	r0, [r4, #-0]
    1b60:	9b000000 	blls	1b68 <__code_start__-0x6498>
    1b64:	05000000 	streq	r0, [r0, #-0]
    1b68:	0000009b 	muleq	r0, fp, r0
    1b6c:	a8040700 	stmdage	r4, {r8, r9, sl}
    1b70:	03000000 	movweq	r0, #0
    1b74:	01480801 	cmpeq	r8, r1, lsl #16
    1b78:	a1080000 	mrsge	r0, (UNDEF: 8)
    1b7c:	06000000 	streq	r0, [r0], -r0
    1b80:	0000057e 	andeq	r0, r0, lr, ror r5
    1b84:	b90e2102 	stmdblt	lr, {r1, r8, sp}
    1b88:	07000000 	streq	r0, [r0, -r0]
    1b8c:	00008c04 	andeq	r8, r0, r4, lsl #24
    1b90:	06ec0900 	strbteq	r0, [ip], r0, lsl #18
    1b94:	04010000 	streq	r0, [r1], #-0
    1b98:	008c3006 	addeq	r3, ip, r6
    1b9c:	00000400 	andeq	r0, r0, r0, lsl #8
    1ba0:	009c0100 	addseq	r0, ip, r0, lsl #2
    1ba4:	00000236 	andeq	r0, r0, r6, lsr r2
    1ba8:	09cb0004 	stmibeq	fp, {r2}^
    1bac:	01040000 	mrseq	r0, (UNDEF: 4)
    1bb0:	000003fc 	strdeq	r0, [r0], -ip
    1bb4:	0007570c 	andeq	r5, r7, ip, lsl #14
    1bb8:	0004cb00 	andeq	ip, r4, r0, lsl #22
    1bbc:	00003000 	andeq	r3, r0, r0
    1bc0:	00000000 	andeq	r0, r0, r0
    1bc4:	000ebc00 	andeq	fp, lr, r0, lsl #24
    1bc8:	05040200 	streq	r0, [r4, #-512]	; 0xfffffe00
    1bcc:	00746e69 	rsbseq	r6, r4, r9, ror #28
    1bd0:	00002503 	andeq	r2, r0, r3, lsl #10
    1bd4:	07040400 	streq	r0, [r4, -r0, lsl #8]
    1bd8:	00000188 	andeq	r0, r0, r8, lsl #3
    1bdc:	41060104 	tstmi	r6, r4, lsl #2
    1be0:	04000001 	streq	r0, [r0], #-1
    1be4:	00310502 	eorseq	r0, r1, r2, lsl #10
    1be8:	04040000 	streq	r0, [r4], #-0
    1bec:	0000d505 	andeq	sp, r0, r5, lsl #10
    1bf0:	05080400 	streq	r0, [r8, #-1024]	; 0xfffffc00
    1bf4:	000000d0 	ldrdeq	r0, [r0], -r0	; <UNPREDICTABLE>
    1bf8:	3f080104 	svccc	0x00080104
    1bfc:	04000001 	streq	r0, [r0], #-1
    1c00:	01cf0702 	biceq	r0, pc, r2, lsl #14
    1c04:	04040000 	streq	r0, [r4], #-0
    1c08:	00018307 	andeq	r8, r1, r7, lsl #6
    1c0c:	07080400 	streq	r0, [r8, -r0, lsl #8]
    1c10:	0000017e 	andeq	r0, r0, lr, ror r1
    1c14:	00002505 	andeq	r2, r0, r5, lsl #10
    1c18:	00007f00 	andeq	r7, r0, r0, lsl #30
    1c1c:	00250600 	eoreq	r0, r5, r0, lsl #12
    1c20:	07000000 	streq	r0, [r0, -r0]
    1c24:	0000006f 	andeq	r0, r0, pc, rrx
    1c28:	8b0e1c02 	blhi	388c38 <__bss_end__+0x37f388>
    1c2c:	08000000 	stmdaeq	r0, {}	; <UNPREDICTABLE>
    1c30:	00007004 	andeq	r7, r0, r4
    1c34:	00250500 	eoreq	r0, r5, r0, lsl #10
    1c38:	00a00000 	adceq	r0, r0, r0
    1c3c:	a0060000 	andge	r0, r6, r0
    1c40:	00000000 	andeq	r0, r0, r0
    1c44:	00ad0408 	adceq	r0, sp, r8, lsl #8
    1c48:	01040000 	mrseq	r0, (UNDEF: 4)
    1c4c:	00014808 	andeq	r4, r1, r8, lsl #16
    1c50:	00a60300 	adceq	r0, r6, r0, lsl #6
    1c54:	7e070000 	cdpvc	0, 0, cr0, cr7, cr0, {0}
    1c58:	02000005 	andeq	r0, r0, #5, 0
    1c5c:	00be0e21 	adcseq	r0, lr, r1, lsr #28
    1c60:	04080000 	streq	r0, [r8], #-0
    1c64:	00000091 	muleq	r0, r1, r0
    1c68:	00077b09 	andeq	r7, r7, r9, lsl #22
    1c6c:	110d0100 	mrsne	r0, (UNDEF: 29)
    1c70:	00000031 	andeq	r0, r0, r1, lsr r0
    1c74:	0006950a 	andeq	r9, r6, sl, lsl #10
    1c78:	061f0100 	ldreq	r0, [pc], -r0, lsl #2
    1c7c:	00008c60 	andeq	r8, r0, r0, ror #24
    1c80:	00000054 	andeq	r0, r0, r4, asr r0
    1c84:	01ae9c01 			; <UNDEFINED> instruction: 0x01ae9c01
    1c88:	9f0b0000 	svcls	0x000b0000
    1c8c:	01000007 	tsteq	r0, r7
    1c90:	002c0f2c 	eoreq	r0, ip, ip, lsr #30
    1c94:	0bf90000 	bleq	ffe41c9c <__bss_end__+0xffe383ec>
    1c98:	0bf70000 	bleq	ffdc1ca0 <__bss_end__+0xffdb83f0>
    1c9c:	3a0b0000 	bcc	2c1ca4 <__bss_end__+0x2b83f4>
    1ca0:	01000007 	tsteq	r0, r7
    1ca4:	002c0f2d 	eoreq	r0, ip, sp, lsr #30
    1ca8:	0c130000 	ldceq	0, cr0, [r3], {-0}
    1cac:	0c110000 	ldceq	0, cr0, [r1], {-0}
    1cb0:	6c0b0000 	stcvs	0, cr0, [fp], {-0}
    1cb4:	01000007 	tsteq	r0, r7
    1cb8:	002c0f2e 	eoreq	r0, ip, lr, lsr #30
    1cbc:	0c2d0000 	stceq	0, cr0, [sp], #-0
    1cc0:	0c2b0000 	stceq	0, cr0, [fp], #-0
    1cc4:	860b0000 	strhi	r0, [fp], -r0
    1cc8:	01000007 	tsteq	r0, r7
    1ccc:	002c0f2f 	eoreq	r0, ip, pc, lsr #30
    1cd0:	0c460000 	mareq	acc0, r0, r6
    1cd4:	0c440000 	mareq	acc0, r0, r4
    1cd8:	680c0000 	stmdavs	ip, {}	; <UNPREDICTABLE>
    1cdc:	d900008c 	stmdble	r0, {r2, r3, r7}
    1ce0:	0c000001 	stceq	0, cr0, [r0], {1}
    1ce4:	00008c74 	andeq	r8, r0, r4, ror ip
    1ce8:	00000208 	andeq	r0, r0, r8, lsl #4
    1cec:	008c780c 	addeq	r7, ip, ip, lsl #16
    1cf0:	00021500 	andeq	r1, r2, r0, lsl #10
    1cf4:	8c800d00 	stchi	13, cr0, [r0], {0}
    1cf8:	02210000 	eoreq	r0, r1, #0, 0
    1cfc:	01640000 	cmneq	r4, r0
    1d00:	010e0000 	mrseq	r0, (UNDEF: 14)
    1d04:	003a0150 	eorseq	r0, sl, r0, asr r1
    1d08:	008c8c0d 	addeq	r8, ip, sp, lsl #24
    1d0c:	00022d00 	andeq	r2, r2, r0, lsl #26
    1d10:	00018400 	andeq	r8, r1, r0, lsl #8
    1d14:	50010e00 	andpl	r0, r1, r0, lsl #28
    1d18:	00240c05 	eoreq	r0, r4, r5, lsl #24
    1d1c:	010e2010 	tsteq	lr, r0, lsl r0
    1d20:	010c0551 	tsteq	ip, r1, asr r5
    1d24:	005a0000 	subseq	r0, sl, r0
    1d28:	008c980d 	addeq	r9, ip, sp, lsl #16
    1d2c:	00022d00 	andeq	r2, r2, r0, lsl #26
    1d30:	0001a400 	andeq	sl, r1, r0, lsl #8
    1d34:	50010e00 	andpl	r0, r1, r0, lsl #28
    1d38:	001c0c05 	andseq	r0, ip, r5, lsl #24
    1d3c:	010e2010 	tsteq	lr, r0, lsl r0
    1d40:	200c0551 	andcs	r0, ip, r1, asr r5
    1d44:	005a0000 	subseq	r0, sl, r0
    1d48:	008ca00c 	addeq	sl, ip, ip
    1d4c:	0001ae00 	andeq	sl, r1, r0, lsl #28
    1d50:	480f0000 	stmdami	pc, {}	; <UNPREDICTABLE>
    1d54:	01000007 	tsteq	r0, r7
    1d58:	8c4c0617 	mcrrhi	6, 1, r0, ip, cr7
    1d5c:	00140000 	andseq	r0, r4, r0
    1d60:	9c010000 	stcls	0, cr0, [r1], {-0}
    1d64:	000001d9 	ldrdeq	r0, [r0], -r9
    1d68:	0007a70b 	andeq	sl, r7, fp, lsl #14
    1d6c:	0e180100 	mufeqe	f0, f0, f0
    1d70:	00000031 	andeq	r0, r0, r1, lsr r0
    1d74:	00000c61 	andeq	r0, r0, r1, ror #24
    1d78:	00000c5b 	andeq	r0, r0, fp, asr ip
    1d7c:	07781000 	ldrbeq	r1, [r8, -r0]!
    1d80:	0e010000 	cdpeq	0, 0, cr0, cr1, cr0, {0}
    1d84:	00002505 	andeq	r2, r0, r5, lsl #10
    1d88:	008c3400 	addeq	r3, ip, r0, lsl #8
    1d8c:	00001800 	andeq	r1, r0, r0, lsl #16
    1d90:	089c0100 	ldmeq	ip, {r8}
    1d94:	0b000002 	bleq	1da4 <__code_start__-0x625c>
    1d98:	000007a7 	andeq	r0, r0, r7, lsr #15
    1d9c:	310e0f01 	tstcc	lr, r1, lsl #30
    1da0:	8f000000 	svchi	0x00000000
    1da4:	8b00000c 	blhi	1ddc <__code_start__-0x6224>
    1da8:	0000000c 	andeq	r0, r0, ip
    1dac:	00072b11 	andeq	r2, r7, r1, lsl fp
    1db0:	00072b00 	andeq	r2, r7, r0, lsl #22
    1db4:	013b0200 	teqeq	fp, r0, lsl #4
    1db8:	06c41206 	strbeq	r1, [r4], r6, lsl #4
    1dbc:	06c40000 	strbeq	r0, [r4], r0
    1dc0:	4d020000 	stcmi	0, cr0, [r2, #-0]
    1dc4:	06a01206 	strteq	r1, [r0], r6, lsl #4
    1dc8:	06a00000 	strteq	r0, [r0], r0
    1dcc:	58020000 	stmdapl	r2, {}	; <UNPREDICTABLE>
    1dd0:	07421206 	strbeq	r1, [r2, -r6, lsl #4]
    1dd4:	07420000 	strbeq	r0, [r2, -r0]
    1dd8:	b2020000 	andlt	r0, r2, #0, 0
    1ddc:	024d0006 	subeq	r0, sp, #6, 0
    1de0:	00040000 	andeq	r0, r4, r0
    1de4:	00000af0 	strdeq	r0, [r0], -r0	; <UNPREDICTABLE>
    1de8:	03fc0104 	mvnseq	r0, #1
    1dec:	c20c0000 	andgt	r0, ip, #0, 0
    1df0:	cb000007 	blgt	1e14 <__code_start__-0x61ec>
    1df4:	b4000004 	strlt	r0, [r0], #-4
    1df8:	8400008c 	strhi	r0, [r0], #-140	; 0xffffff74
    1dfc:	a5000000 	strge	r0, [r0, #-0]
    1e00:	0200000f 	andeq	r0, r0, #15, 0
    1e04:	6e690504 	cdpvs	5, 6, cr0, cr9, cr4, {0}
    1e08:	04030074 	streq	r0, [r3], #-116	; 0xffffff8c
    1e0c:	00018807 	andeq	r8, r1, r7, lsl #16
    1e10:	06010300 	streq	r0, [r1], -r0, lsl #6
    1e14:	00000141 	andeq	r0, r0, r1, asr #2
    1e18:	31050203 	tstcc	r5, r3, lsl #4
    1e1c:	03000000 	movweq	r0, #0
    1e20:	00d50504 	sbcseq	r0, r5, r4, lsl #10
    1e24:	08030000 	stmdaeq	r3, {}	; <UNPREDICTABLE>
    1e28:	0000d005 	andeq	sp, r0, r5
    1e2c:	08010300 	stmdaeq	r1, {r8, r9}
    1e30:	0000013f 	andeq	r0, r0, pc, lsr r1
    1e34:	cf070203 	svcgt	0x00070203
    1e38:	03000001 	movweq	r0, #1
    1e3c:	01830704 	orreq	r0, r3, r4, lsl #14
    1e40:	08030000 	stmdaeq	r3, {}	; <UNPREDICTABLE>
    1e44:	00017e07 	andeq	r7, r1, r7, lsl #28
    1e48:	00250400 	eoreq	r0, r5, r0, lsl #8
    1e4c:	007a0000 	rsbseq	r0, sl, r0
    1e50:	25050000 	strcs	r0, [r5, #-0]
    1e54:	00000000 	andeq	r0, r0, r0
    1e58:	00006f06 	andeq	r6, r0, r6, lsl #30
    1e5c:	0e1c0200 	cdpeq	2, 1, cr0, cr12, cr0, {0}
    1e60:	00000086 	andeq	r0, r0, r6, lsl #1
    1e64:	006b0407 	rsbeq	r0, fp, r7, lsl #8
    1e68:	25040000 	strcs	r0, [r4, #-0]
    1e6c:	9b000000 	blls	1e74 <__code_start__-0x618c>
    1e70:	05000000 	streq	r0, [r0, #-0]
    1e74:	0000009b 	muleq	r0, fp, r0
    1e78:	a8040700 	stmdage	r4, {r8, r9, sl}
    1e7c:	03000000 	movweq	r0, #0
    1e80:	01480801 	cmpeq	r8, r1, lsl #16
    1e84:	a1080000 	mrsge	r0, (UNDEF: 8)
    1e88:	06000000 	streq	r0, [r0], -r0
    1e8c:	0000057e 	andeq	r0, r0, lr, ror r5
    1e90:	b90e2102 	stmdblt	lr, {r1, r8, sp}
    1e94:	07000000 	streq	r0, [r0, -r0]
    1e98:	00008c04 	andeq	r8, r0, r4, lsl #24
    1e9c:	07b80900 	ldreq	r0, [r8, r0, lsl #18]!
    1ea0:	1e010000 	cdpne	0, 0, cr0, cr1, cr0, {0}
    1ea4:	008d2006 	addeq	r2, sp, r6
    1ea8:	00001800 	andeq	r1, r0, r0, lsl #16
    1eac:	099c0100 	ldmibeq	ip, {r8}
    1eb0:	0a000001 	beq	1ebc <__code_start__-0x6144>
    1eb4:	00636573 	rsbeq	r6, r3, r3, ror r5
    1eb8:	2c191e01 	ldccs	14, cr1, [r9], {1}
    1ebc:	b2000000 	andlt	r0, r0, #0, 0
    1ec0:	ae00000c 	cdpge	0, 0, cr0, cr0, cr12, {0}
    1ec4:	0b00000c 	bleq	1efc <__code_start__-0x6104>
    1ec8:	00008d34 	andeq	r8, r0, r4, lsr sp
    1ecc:	00000109 	andeq	r0, r0, r9, lsl #2
    1ed0:	1150010c 	cmpne	r0, ip, lsl #2
    1ed4:	355001f3 	ldrbcc	r0, [r0, #-499]	; 0xfffffe0d
    1ed8:	5001f324 	andpl	pc, r1, r4, lsr #6
    1edc:	f324321c 	vqsub.u32	d3, d4, d12
    1ee0:	33225001 			; <UNDEFINED> instruction: 0x33225001
    1ee4:	09000024 	stmdbeq	r0, {r2, r5}
    1ee8:	000006a0 	andeq	r0, r0, r0, lsr #13
    1eec:	08061b01 	stmdaeq	r6, {r0, r8, r9, fp, ip}
    1ef0:	1800008d 	stmdane	r0, {r0, r2, r3, r7}
    1ef4:	01000000 	mrseq	r0, (UNDEF: 0)
    1ef8:	0001529c 	muleq	r1, ip, r2
    1efc:	736d0a00 	cmnvc	sp, #0, 20
    1f00:	181b0100 	ldmdane	fp, {r8}
    1f04:	0000002c 	andeq	r0, r0, ip, lsr #32
    1f08:	00000cd7 	ldrdeq	r0, [r0], -r7
    1f0c:	00000cd3 	ldrdeq	r0, [r0], -r3
    1f10:	008d1c0b 	addeq	r1, sp, fp, lsl #24
    1f14:	00015200 	andeq	r5, r1, r0, lsl #4
    1f18:	50010c00 	andpl	r0, r1, r0, lsl #24
    1f1c:	5001f311 	andpl	pc, r1, r1, lsl r3	; <UNPREDICTABLE>
    1f20:	01f32435 	mvnseq	r2, r5, lsr r4
    1f24:	24321c50 	ldrtcs	r1, [r2], #-3152	; 0xfffff3b0
    1f28:	225001f3 	subscs	r0, r0, #-1073741764	; 0xc000003c
    1f2c:	00002433 	andeq	r2, r0, r3, lsr r4
    1f30:	0007eb09 	andeq	lr, r7, r9, lsl #22
    1f34:	06120100 	ldreq	r0, [r2], -r0, lsl #2
    1f38:	00008ce4 	andeq	r8, r0, r4, ror #25
    1f3c:	00000024 	andeq	r0, r0, r4, lsr #32
    1f40:	01c29c01 	biceq	r9, r2, r1, lsl #24
    1f44:	750a0000 	strvc	r0, [sl, #-0]
    1f48:	12010073 	andne	r0, r1, #115, 0	; 0x73
    1f4c:	00002c18 	andeq	r2, r0, r8, lsl ip
    1f50:	000cfc00 	andeq	pc, ip, r0, lsl #24
    1f54:	000cf800 	andeq	pc, ip, r0, lsl #16
    1f58:	62720d00 	rsbsvs	r0, r2, #0, 26
    1f5c:	0e130100 	mufeqs	f0, f3, f0
    1f60:	0000002c 	andeq	r0, r0, ip, lsr #32
    1f64:	00000d1c 	andeq	r0, r0, ip, lsl sp
    1f68:	00000d1a 	andeq	r0, r0, sl, lsl sp
    1f6c:	008cf40e 	addeq	pc, ip, lr, lsl #8
    1f70:	00001400 	andeq	r1, r0, r0, lsl #8
    1f74:	0001b800 	andeq	fp, r1, r0, lsl #16
    1f78:	61720d00 	cmnvs	r2, r0, lsl #26
    1f7c:	12150100 	andsne	r0, r5, #0
    1f80:	0000002c 	andeq	r0, r0, ip, lsr #32
    1f84:	00000d31 	andeq	r0, r0, r1, lsr sp
    1f88:	00000d2f 	andeq	r0, r0, pc, lsr #26
    1f8c:	008cf80f 	addeq	pc, ip, pc, lsl #16
    1f90:	0001c200 	andeq	ip, r1, r0, lsl #4
    1f94:	f00f0000 			; <UNDEFINED> instruction: 0xf00f0000
    1f98:	c200008c 	andgt	r0, r0, #140, 0	; 0x8c
    1f9c:	00000001 	andeq	r0, r0, r1
    1fa0:	0007dc10 	andeq	sp, r7, r0, lsl ip
    1fa4:	0a090100 	beq	2423ac <__bss_end__+0x238afc>
    1fa8:	0000002c 	andeq	r0, r0, ip, lsr #32
    1fac:	00008cc8 	andeq	r8, r0, r8, asr #25
    1fb0:	0000001c 	andeq	r0, r0, ip, lsl r0
    1fb4:	020a9c01 	andeq	r9, sl, #256	; 0x100
    1fb8:	750d0000 	strvc	r0, [sp, #-0]
    1fbc:	0e0d0100 	adfeqe	f0, f5, f0
    1fc0:	0000002c 	andeq	r0, r0, ip, lsr #32
    1fc4:	00000d48 	andeq	r0, r0, r8, asr #26
    1fc8:	00000d44 	andeq	r0, r0, r4, asr #26
    1fcc:	008cd00f 	addeq	sp, ip, pc
    1fd0:	00023800 	andeq	r3, r2, r0, lsl #16
    1fd4:	8cd40f00 	ldclhi	15, cr0, [r4], {0}
    1fd8:	020a0000 	andeq	r0, sl, #0, 0
    1fdc:	dc0f0000 	stcle	0, cr0, [pc], {-0}
    1fe0:	3800008c 	stmdacc	r0, {r2, r3, r7}
    1fe4:	00000002 	andeq	r0, r0, r2
    1fe8:	0007f410 	andeq	pc, r7, r0, lsl r4	; <UNPREDICTABLE>
    1fec:	0a040100 	beq	1023f4 <__bss_end__+0xf8b44>
    1ff0:	0000002c 	andeq	r0, r0, ip, lsr #32
    1ff4:	00008cb4 			; <UNDEFINED> instruction: 0x00008cb4
    1ff8:	00000014 	andeq	r0, r0, r4, lsl r0
    1ffc:	02389c01 	eorseq	r9, r8, #256	; 0x100
    2000:	c00b0000 	andgt	r0, fp, r0
    2004:	4400008c 	strmi	r0, [r0], #-140	; 0xffffff74
    2008:	0c000002 	stceq	0, cr0, [r0], {2}
    200c:	0c055001 	stceq	0, cr5, [r5], {1}
    2010:	20003004 	andcs	r3, r0, r4
    2014:	ac110000 	ldcge	0, cr0, [r1], {-0}
    2018:	ac000007 	stcge	0, cr0, [r0], {7}
    201c:	02000007 	andeq	r0, r0, #7, 0
    2020:	d61106a1 	ldrle	r0, [r1], -r1, lsr #13
    2024:	d6000007 	strle	r0, [r0], -r7
    2028:	02000007 	andeq	r0, r0, #7, 0
    202c:	cd000ac7 	vstrgt	s0, [r0, #-796]	; 0xfffffce4
    2030:	04000005 	streq	r0, [r0], #-5
    2034:	000bf100 	andeq	pc, fp, r0, lsl #2
    2038:	0c010400 	cfstrseq	mvf0, [r1], {-0}
    203c:	0c000009 	stceq	0, cr0, [r0], {9}
    2040:	00000846 	andeq	r0, r0, r6, asr #16
    2044:	000008bc 			; <UNDEFINED> instruction: 0x000008bc
    2048:	00008d38 	andeq	r8, r0, r8, lsr sp
    204c:	000001f0 	strdeq	r0, [r0], -r0	; <UNPREDICTABLE>
    2050:	00001095 	muleq	r0, r5, r0
    2054:	69050402 	stmdbvs	r5, {r1, sl}
    2058:	0300746e 	movweq	r7, #1134	; 0x46e
    205c:	01880704 	orreq	r0, r8, r4, lsl #14
    2060:	2c040000 	stccs	0, cr0, [r4], {-0}
    2064:	03000000 	movweq	r0, #0
    2068:	01410601 	cmpeq	r1, r1, lsl #12
    206c:	02030000 	andeq	r0, r3, #0, 0
    2070:	00003105 	andeq	r3, r0, r5, lsl #2
    2074:	05040300 	streq	r0, [r4, #-768]	; 0xfffffd00
    2078:	000000d5 	ldrdeq	r0, [r0], -r5
    207c:	d0050803 	andle	r0, r5, r3, lsl #16
    2080:	03000000 	movweq	r0, #0
    2084:	013f0801 	teqeq	pc, r1, lsl #16
    2088:	02030000 	andeq	r0, r3, #0, 0
    208c:	0001cf07 	andeq	ip, r1, r7, lsl #30
    2090:	019c0500 	orrseq	r0, ip, r0, lsl #10
    2094:	34050000 	strcc	r0, [r5], #-0
    2098:	00006e19 	andeq	r6, r0, r9, lsl lr
    209c:	07040300 	streq	r0, [r4, -r0, lsl #6]
    20a0:	00000183 	andeq	r0, r0, r3, lsl #3
    20a4:	7e070803 	cdpvc	8, 0, cr0, cr7, cr3, {0}
    20a8:	03000001 	movweq	r0, #1
    20ac:	01480801 	cmpeq	r8, r1, lsl #16
    20b0:	07060000 	streq	r0, [r6, -r0]
    20b4:	00005401 	andeq	r5, r0, r1, lsl #8
    20b8:	0e0c0400 	cfcpyseq	mvf0, mvf12
    20bc:	000000c2 	andeq	r0, r0, r2, asr #1
    20c0:	0009ec07 	andeq	lr, r9, r7, lsl #24
    20c4:	29070000 	stmdbcs	r7, {}	; <UNPREDICTABLE>
    20c8:	01000008 	tsteq	r0, r8
    20cc:	00087107 	andeq	r7, r8, r7, lsl #2
    20d0:	80070400 	andhi	r0, r7, r0, lsl #8
    20d4:	05000008 	streq	r0, [r0, #-8]
    20d8:	00088f07 	andeq	r8, r8, r7, lsl #30
    20dc:	9e070600 	cfmadd32ls	mvax0, mvfx0, mvfx7, mvfx0
    20e0:	07000008 	streq	r0, [r0, -r8]
    20e4:	0009bf07 	andeq	fp, r9, r7, lsl #30
    20e8:	ad070300 	stcge	3, cr0, [r7, #-0]
    20ec:	02000008 	andeq	r0, r0, #8, 0
    20f0:	083a0800 	ldmdaeq	sl!, {fp}
    20f4:	022c0000 	eoreq	r0, ip, #0, 0
    20f8:	015e0806 	cmpeq	lr, r6, lsl #16
    20fc:	69090000 	stmdbvs	r9, {}	; <UNPREDICTABLE>
    2100:	0902006f 	stmdbeq	r2, {r0, r1, r2, r3, r5, r6}
    2104:	00003309 	andeq	r3, r0, r9, lsl #6
    2108:	69090000 	stmdbvs	r9, {}	; <UNPREDICTABLE>
    210c:	02007265 	andeq	r7, r0, #1342177286	; 0x50000006
    2110:	0033090a 	eorseq	r0, r3, sl, lsl #18
    2114:	09040000 	stmdbeq	r4, {}	; <UNPREDICTABLE>
    2118:	00726969 	rsbseq	r6, r2, r9, ror #18
    211c:	33091102 	movwcc	r1, #37122	; 0x9102
    2120:	08000000 	stmdaeq	r0, {}	; <UNPREDICTABLE>
    2124:	72636c09 	rsbvc	r6, r3, #2304	; 0x900
    2128:	09130200 	ldmdbeq	r3, {r9}
    212c:	00000033 	andeq	r0, r0, r3, lsr r0
    2130:	636d090c 	cmnvs	sp, #12, 18	; 0x30000
    2134:	14020072 	strne	r0, [r2], #-114	; 0xffffff8e
    2138:	00003309 	andeq	r3, r0, r9, lsl #6
    213c:	6c091000 	stcvs	0, cr1, [r9], {-0}
    2140:	02007273 	andeq	r7, r0, #805306375	; 0x30000007
    2144:	00330915 	eorseq	r0, r3, r5, lsl r9
    2148:	09140000 	ldmdbeq	r4, {}	; <UNPREDICTABLE>
    214c:	0072736d 	rsbseq	r7, r2, sp, ror #6
    2150:	33091602 	movwcc	r1, #38402	; 0x9602
    2154:	18000000 	stmdane	r0, {}	; <UNPREDICTABLE>
    2158:	0009d60a 	andeq	sp, r9, sl, lsl #12
    215c:	09170200 	ldmdbeq	r7, {r9}
    2160:	00000033 	andeq	r0, r0, r3, lsr r0
    2164:	099f0a1c 	ldmibeq	pc, {r2, r3, r4, r9, fp}	; <UNPREDICTABLE>
    2168:	1b020000 	blne	82170 <__bss_end__+0x788c0>
    216c:	00003309 	andeq	r3, r0, r9, lsl #6
    2170:	160a2000 	strne	r2, [sl], -r0
    2174:	02000008 	andeq	r0, r0, #8, 0
    2178:	0033091d 	eorseq	r0, r3, sp, lsl r9
    217c:	0a240000 	beq	902184 <__bss_end__+0x8f88d4>
    2180:	000008f1 	strdeq	r0, [r0], -r1
    2184:	33091e02 	movwcc	r1, #40450	; 0x9e02
    2188:	28000000 	stmdacs	r0, {}	; <UNPREDICTABLE>
    218c:	08f60b00 	ldmeq	r6!, {r8, r9, fp}^
    2190:	08010000 	stmdaeq	r1, {}	; <UNPREDICTABLE>
    2194:	00017409 	andeq	r7, r1, r9, lsl #8
    2198:	21500400 	cmpcs	r0, r0, lsl #8
    219c:	33040c20 	movwcc	r0, #19488	; 0x4c20
    21a0:	0d000000 	stceq	0, cr0, [r0, #-0]
    21a4:	0000016e 	andeq	r0, r0, lr, ror #2
    21a8:	0009de0b 	andeq	sp, r9, fp, lsl #28
    21ac:	23290100 			; <UNDEFINED> instruction: 0x23290100
    21b0:	0000018f 	andeq	r0, r0, pc, lsl #3
    21b4:	20215040 	eorcs	r5, r1, r0, asr #32
    21b8:	00c2040c 	sbceq	r0, r2, ip, lsl #8
    21bc:	890d0000 	stmdbhi	sp, {}	; <UNPREDICTABLE>
    21c0:	0e000001 	cdpeq	0, 0, cr0, cr0, cr1, {0}
    21c4:	000006c4 	andeq	r0, r0, r4, asr #13
    21c8:	f006cc01 			; <UNDEFINED> instruction: 0xf006cc01
    21cc:	1400008e 	strne	r0, [r0], #-142	; 0xffffff72
    21d0:	01000000 	mrseq	r0, (UNDEF: 0)
    21d4:	0001b49c 	muleq	r1, ip, r4
    21d8:	8ef80f00 	cdphi	15, 15, cr0, cr8, cr0, {0}
    21dc:	01b40000 			; <UNDEFINED> instruction: 0x01b40000
    21e0:	10000000 	andne	r0, r0, r0
    21e4:	00000860 	andeq	r0, r0, r0, ror #16
    21e8:	2505b601 	strcs	fp, [r5, #-1537]	; 0xfffff9ff
    21ec:	d0000000 	andle	r0, r0, r0
    21f0:	2000008e 	andcs	r0, r0, lr, lsl #1
    21f4:	01000000 	mrseq	r0, (UNDEF: 0)
    21f8:	0001eb9c 	muleq	r1, ip, fp
    21fc:	8ed80f00 	cdphi	15, 13, cr0, cr8, cr0, {0}
    2200:	05a00000 	streq	r0, [r0, #0]!
    2204:	e0110000 	ands	r0, r1, r0
    2208:	ac00008e 	stcge	0, cr0, [r0], {142}	; 0x8e
    220c:	12000005 	andne	r0, r0, #5, 0
    2210:	0c055001 	stceq	0, cr5, [r5], {1}
    2214:	20215064 	eorcs	r5, r1, r4, rrx
    2218:	b1100000 	tstlt	r0, r0
    221c:	01000009 	tsteq	r0, r9
    2220:	002505b3 	strhteq	r0, [r5], -r3
    2224:	8ec00000 	cdphi	0, 12, cr0, cr0, cr0, {0}
    2228:	00100000 	andseq	r0, r0, r0
    222c:	9c010000 	stcls	0, cr0, [r1], {-0}
    2230:	00000218 	andeq	r0, r0, r8, lsl r2
    2234:	008ec80f 	addeq	ip, lr, pc, lsl #16
    2238:	0005a000 	andeq	sl, r5, r0
    223c:	8ecc0f00 	cdphi	15, 12, cr0, cr12, cr0, {0}
    2240:	03090000 	movweq	r0, #36864	; 0x9000
    2244:	0e000000 	cdpeq	0, 0, cr0, cr0, cr0, {0}
    2248:	0000056b 	andeq	r0, r0, fp, ror #10
    224c:	9006ab01 	andls	sl, r6, r1, lsl #22
    2250:	3000008e 	andcc	r0, r0, lr, lsl #1
    2254:	01000000 	mrseq	r0, (UNDEF: 0)
    2258:	00027c9c 	muleq	r2, ip, ip
    225c:	00631300 	rsbeq	r1, r3, r0, lsl #6
    2260:	2c19ab01 			; <UNDEFINED> instruction: 0x2c19ab01
    2264:	6a000000 	bvs	226c <__code_start__-0x5d94>
    2268:	6600000d 	strvs	r0, [r0], -sp
    226c:	0f00000d 	svceq	0x0000000d
    2270:	00008e9c 	muleq	r0, ip, lr
    2274:	000005a0 	andeq	r0, r0, r0, lsr #11
    2278:	008ea00f 	addeq	sl, lr, pc
    227c:	0002db00 	andeq	sp, r2, r0, lsl #22
    2280:	8eb41400 	cdphi	4, 11, cr1, cr4, cr0, {0}
    2284:	05b80000 	ldreq	r0, [r8, #0]!
    2288:	02720000 	rsbseq	r0, r2, #0, 0
    228c:	01120000 	tsteq	r2, r0
    2290:	400c0550 	andmi	r0, ip, r0, asr r5
    2294:	12202150 	eorne	r2, r0, #20
    2298:	74055101 	strvc	r5, [r5], #-257	; 0xfffffeff
    229c:	1aff0800 	bne	fffc42a4 <__bss_end__+0xfffba9f4>
    22a0:	8eb80f00 	cdphi	15, 11, cr0, cr8, cr0, {0}
    22a4:	05a00000 	streq	r0, [r0, #0]!
    22a8:	10000000 	andne	r0, r0, r0
    22ac:	00000902 	andeq	r0, r0, r2, lsl #18
    22b0:	2505a301 	strcs	sl, [r5, #-769]	; 0xfffffcff
    22b4:	60000000 	andvs	r0, r0, r0
    22b8:	3000008e 	andcc	r0, r0, lr, lsl #1
    22bc:	01000000 	mrseq	r0, (UNDEF: 0)
    22c0:	0002db9c 	muleq	r2, ip, fp
    22c4:	00631500 	rsbeq	r1, r3, r0, lsl #10
    22c8:	2509a701 	strcs	sl, [r9, #-1793]	; 0xfffff8ff
    22cc:	8a000000 	bhi	22d4 <__code_start__-0x5d2c>
    22d0:	8800000d 	stmdahi	r0, {r0, r2, r3}
    22d4:	0f00000d 	svceq	0x0000000d
    22d8:	00008e68 	andeq	r8, r0, r8, ror #28
    22dc:	000005a0 	andeq	r0, r0, r0, lsr #11
    22e0:	008e6c0f 	addeq	r6, lr, pc, lsl #24
    22e4:	00030900 	andeq	r0, r3, r0, lsl #18
    22e8:	8e7c1400 	cdphi	4, 7, cr1, cr12, cr0, {0}
    22ec:	05ac0000 	streq	r0, [ip, #0]!
    22f0:	02d10000 	sbcseq	r0, r1, #0, 0
    22f4:	01120000 	tsteq	r2, r0
    22f8:	400c0550 	andmi	r0, ip, r0, asr r5
    22fc:	00202150 	eoreq	r2, r0, r0, asr r1
    2300:	008e840f 	addeq	r8, lr, pc, lsl #8
    2304:	0005a000 	andeq	sl, r5, r0
    2308:	4d100000 	ldcmi	0, cr0, [r0, #-0]
    230c:	01000008 	tsteq	r0, r8
    2310:	00250594 	mlaeq	r5, r4, r5, r0
    2314:	8e400000 	cdphi	0, 4, cr0, cr0, cr0, {0}
    2318:	00200000 	eoreq	r0, r0, r0
    231c:	9c010000 	stcls	0, cr0, [r1], {-0}
    2320:	00000309 	andeq	r0, r0, r9, lsl #6
    2324:	008e4c11 	addeq	r4, lr, r1, lsl ip
    2328:	0005ac00 	andeq	sl, r5, r0, lsl #24
    232c:	50011200 	andpl	r1, r1, r0, lsl #4
    2330:	50640c05 	rsbpl	r0, r4, r5, lsl #24
    2334:	00002021 	andeq	r2, r0, r1, lsr #32
    2338:	00081b10 	andeq	r1, r8, r0, lsl fp
    233c:	058b0100 	streq	r0, [fp, #256]	; 0x100
    2340:	00000025 	andeq	r0, r0, r5, lsr #32
    2344:	00008e28 	andeq	r8, r0, r8, lsr #28
    2348:	00000018 	andeq	r0, r0, r8, lsl r0
    234c:	03379c01 	teqeq	r7, #256	; 0x100
    2350:	34110000 	ldrcc	r0, [r1], #-0
    2354:	ac00008e 	stcge	0, cr0, [r0], {142}	; 0x8e
    2358:	12000005 	andne	r0, r0, #5, 0
    235c:	0c055001 	stceq	0, cr5, [r5], {1}
    2360:	20215064 	eorcs	r5, r1, r4, rrx
    2364:	e20e0000 	and	r0, lr, #0, 0
    2368:	01000006 	tsteq	r0, r6
    236c:	8d780645 	ldclhi	6, cr0, [r8, #-276]!	; 0xfffffeec
    2370:	00b00000 	adcseq	r0, r0, r0
    2374:	9c010000 	stcls	0, cr0, [r1], {-0}
    2378:	00000484 	andeq	r0, r0, r4, lsl #9
    237c:	00080d16 	andeq	r0, r8, r6, lsl sp
    2380:	0e7e0100 	rpweqe	f0, f6, f0
    2384:	00000062 	andeq	r0, r0, r2, rrx
    2388:	8814010e 	ldmdahi	r4, {r1, r2, r3, r8}
    238c:	c400008d 	strgt	r0, [r0], #-141	; 0xffffff73
    2390:	73000005 	movwvc	r0, #5
    2394:	12000003 	andne	r0, r0, #3, 0
    2398:	3e015001 	cdpcc	0, 0, cr5, cr1, cr1, {0}
    239c:	01510112 	cmpeq	r1, r2, lsl r1
    23a0:	94140032 	ldrls	r0, [r4], #-50	; 0xffffffce
    23a4:	c400008d 	strgt	r0, [r0], #-141	; 0xffffff73
    23a8:	8b000005 	blhi	23c4 <__code_start__-0x5c3c>
    23ac:	12000003 	andne	r0, r0, #3, 0
    23b0:	3f015001 	svccc	0x00015001
    23b4:	01510112 	cmpeq	r1, r2, lsl r1
    23b8:	980f0032 	stmdals	pc, {r1, r4, r5}	; <UNPREDICTABLE>
    23bc:	a000008d 	andge	r0, r0, sp, lsl #1
    23c0:	14000005 	strne	r0, [r0], #-5
    23c4:	00008da4 	andeq	r8, r0, r4, lsr #27
    23c8:	0000053d 	andeq	r0, r0, sp, lsr r5
    23cc:	000003b0 			; <UNDEFINED> instruction: 0x000003b0
    23d0:	05500112 	ldrbeq	r0, [r0, #-274]	; 0xfffffeee
    23d4:	2150040c 	cmpcs	r0, ip, lsl #8
    23d8:	51011220 	tstpl	r1, r0, lsr #4
    23dc:	0f003101 	svceq	0x00003101
    23e0:	00008da8 	andeq	r8, r0, r8, lsr #27
    23e4:	000005a0 	andeq	r0, r0, r0, lsr #11
    23e8:	008db814 	addeq	fp, sp, r4, lsl r8
    23ec:	0005b800 	andeq	fp, r5, r0, lsl #16
    23f0:	0003d200 	andeq	sp, r3, r0, lsl #4
    23f4:	50011200 	andpl	r1, r1, r0, lsl #4
    23f8:	12007402 	andne	r7, r0, #33554432	; 0x2000000
    23fc:	30015101 	andcc	r5, r1, r1, lsl #2
    2400:	8dc41400 	cfstrdhi	mvd1, [r4]
    2404:	05b80000 	ldreq	r0, [r8, #0]!
    2408:	03ee0000 	mvneq	r0, #0, 0
    240c:	01120000 	tsteq	r2, r0
    2410:	440c0550 	strmi	r0, [ip], #-1360	; 0xfffffab0
    2414:	12202150 	eorne	r2, r0, #20
    2418:	30015101 	andcc	r5, r1, r1, lsl #2
    241c:	8dd01400 	cfldrdhi	mvd1, [r0]
    2420:	05b80000 	ldreq	r0, [r8, #0]!
    2424:	040a0000 	streq	r0, [sl], #-0
    2428:	01120000 	tsteq	r2, r0
    242c:	4c0c0550 	cfstr32mi	mvfx0, [ip], {80}	; 0x50
    2430:	12202150 	eorne	r2, r0, #20
    2434:	33015101 	movwcc	r5, #4353	; 0x1101
    2438:	8ddc1400 	cfldrdhi	mvd1, [ip]
    243c:	05b80000 	ldreq	r0, [r8, #0]!
    2440:	04260000 	strteq	r0, [r6], #-0
    2444:	01120000 	tsteq	r2, r0
    2448:	500c0550 	andpl	r0, ip, r0, asr r5
    244c:	12202150 	eorne	r2, r0, #20
    2450:	30015101 	andcc	r5, r1, r1, lsl #2
    2454:	8de81400 	cfstrdhi	mvd1, [r8]
    2458:	05b80000 	ldreq	r0, [r8, #0]!
    245c:	04430000 	strbeq	r0, [r3], #-0
    2460:	01120000 	tsteq	r2, r0
    2464:	480c0550 	stmdami	ip, {r4, r6, r8, sl}
    2468:	12202150 	eorne	r2, r0, #20
    246c:	08025101 	stmdaeq	r2, {r0, r8, ip, lr}
    2470:	f41400c7 			; <UNDEFINED> instruction: 0xf41400c7
    2474:	b800008d 	stmdalt	r0, {r0, r2, r3, r7}
    2478:	61000005 	tstvs	r0, r5
    247c:	12000004 	andne	r0, r0, #4, 0
    2480:	0c055001 	stceq	0, cr5, [r5], {1}
    2484:	20215068 	eorcs	r5, r1, r8, rrx
    2488:	03510112 	cmpeq	r1, #-2147483644	; 0x80000004
    248c:	00010e0a 	andeq	r0, r1, sl, lsl #28
    2490:	008e0014 	addeq	r0, lr, r4, lsl r0
    2494:	0005b800 	andeq	fp, r5, r0, lsl #16
    2498:	00047a00 	andeq	r7, r4, r0, lsl #20
    249c:	50011200 	andpl	r1, r1, r0, lsl #4
    24a0:	12007402 	andne	r7, r0, #33554432	; 0x2000000
    24a4:	33015101 	movwcc	r5, #4353	; 0x1101
    24a8:	8e040f00 	cdphi	15, 0, cr0, cr4, cr0, {0}
    24ac:	05a00000 	streq	r0, [r0, #0]!
    24b0:	0e000000 	cdpeq	0, 0, cr0, cr0, cr0, {0}
    24b4:	000009a4 	andeq	r0, r0, r4, lsr #19
    24b8:	04063501 	streq	r3, [r6], #-1281	; 0xfffffaff
    24bc:	2400008f 	strcs	r0, [r0], #-143	; 0xffffff71
    24c0:	01000000 	mrseq	r0, (UNDEF: 0)
    24c4:	0004d39c 	muleq	r4, ip, r3
    24c8:	8f0c0f00 	svchi	0x000c0f00
    24cc:	01940000 	orrseq	r0, r4, r0
    24d0:	100f0000 	andne	r0, pc, r0
    24d4:	a000008f 	andge	r0, r0, pc, lsl #1
    24d8:	14000005 	strne	r0, [r0], #-5
    24dc:	00008f1c 	andeq	r8, r0, ip, lsl pc
    24e0:	000004d3 	ldrdeq	r0, [r0], -r3
    24e4:	000004c9 	andeq	r0, r0, r9, asr #9
    24e8:	05500112 	ldrbeq	r0, [r0, #-274]	; 0xfffffeee
    24ec:	2150040c 	cmpcs	r0, ip, lsl #8
    24f0:	51011220 	tstpl	r1, r0, lsr #4
    24f4:	00fe0902 	rscseq	r0, lr, r2, lsl #18
    24f8:	008f200f 	addeq	r2, pc, pc
    24fc:	0005a000 	andeq	sl, r5, r0
    2500:	e3170000 	tst	r7, #0, 0
    2504:	01000009 	tsteq	r0, r9
    2508:	8d380d31 	ldchi	13, cr0, [r8, #-196]!	; 0xffffff3c
    250c:	00200000 	eoreq	r0, r0, r0
    2510:	9c010000 	stcls	0, cr0, [r1], {-0}
    2514:	00000536 	andeq	r0, r0, r6, lsr r5
    2518:	00085b18 	andeq	r5, r8, r8, lsl fp
    251c:	25310100 	ldrcs	r0, [r1, #-256]!	; 0xffffff00
    2520:	00000536 	andeq	r0, r0, r6, lsr r5
    2524:	00000da1 	andeq	r0, r0, r1, lsr #27
    2528:	00000d9d 	muleq	r0, sp, sp
    252c:	6c617613 	stclvs	6, cr7, [r1], #-76	; 0xffffffb4
    2530:	34310100 	ldrtcc	r0, [r1], #-256	; 0xffffff00
    2534:	0000002c 	andeq	r0, r0, ip, lsr #32
    2538:	00000dc3 	andeq	r0, r0, r3, asr #27
    253c:	00000dbf 			; <UNDEFINED> instruction: 0x00000dbf
    2540:	008d4814 	addeq	r4, sp, r4, lsl r8
    2544:	0005ac00 	andeq	sl, r5, r0, lsl #24
    2548:	00052500 	andeq	r2, r5, r0, lsl #10
    254c:	50011200 	andpl	r1, r1, r0, lsl #4
    2550:	00007402 	andeq	r7, r0, r2, lsl #8
    2554:	008d5411 	addeq	r5, sp, r1, lsl r4
    2558:	0005b800 	andeq	fp, r5, r0, lsl #16
    255c:	50011200 	andpl	r1, r1, r0, lsl #4
    2560:	00007402 	andeq	r7, r0, r2, lsl #8
    2564:	3c040c00 	stccc	12, cr0, [r4], {-0}
    2568:	19000005 	stmdbne	r0, {r0, r2}
    256c:	0009ce17 	andeq	ip, r9, r7, lsl lr
    2570:	0d2e0100 	stfeqs	f0, [lr, #-0]
    2574:	00008d58 	andeq	r8, r0, r8, asr sp
    2578:	00000020 	andeq	r0, r0, r0, lsr #32
    257c:	05a09c01 	streq	r9, [r0, #3073]!	; 0xc01
    2580:	5b180000 	blpl	602588 <__bss_end__+0x5f8cd8>
    2584:	01000008 	tsteq	r0, r8
    2588:	0536242e 	ldreq	r2, [r6, #-1070]!	; 0xfffffbd2
    258c:	0de50000 	stcleq	0, cr0, [r5]
    2590:	0de10000 	stcleq	0, cr0, [r1]
    2594:	76130000 	ldrvc	r0, [r3], -r0
    2598:	01006c61 	tsteq	r0, r1, ror #24
    259c:	002c332e 	eoreq	r3, ip, lr, lsr #6
    25a0:	0e070000 	cdpeq	0, 0, cr0, cr7, cr0, {0}
    25a4:	0e030000 	cdpeq	0, 0, cr0, cr3, cr0, {0}
    25a8:	68140000 	ldmdavs	r4, {}	; <UNPREDICTABLE>
    25ac:	ac00008d 	stcge	0, cr0, [r0], {141}	; 0x8d
    25b0:	8f000005 	svchi	0x00000005
    25b4:	12000005 	andne	r0, r0, #5, 0
    25b8:	74025001 	strvc	r5, [r2], #-1
    25bc:	74110000 	ldrvc	r0, [r1], #-0
    25c0:	b800008d 	stmdalt	r0, {r0, r2, r3, r7}
    25c4:	12000005 	andne	r0, r0, #5, 0
    25c8:	74025001 	strvc	r5, [r2], #-1
    25cc:	1a000000 	bne	25d4 <__code_start__-0x5a2c>
    25d0:	000007ac 	andeq	r0, r0, ip, lsr #15
    25d4:	000007ac 	andeq	r0, r0, ip, lsr #15
    25d8:	1a06a103 	bne	1aa9ec <__bss_end__+0x1a113c>
    25dc:	00000a0e 	andeq	r0, r0, lr, lsl #20
    25e0:	00000a0e 	andeq	r0, r0, lr, lsl #20
    25e4:	1a0bc803 	bne	2f45f8 <__bss_end__+0x2ead48>
    25e8:	00000807 	andeq	r0, r0, r7, lsl #16
    25ec:	00000807 	andeq	r0, r0, r7, lsl #16
    25f0:	1a06b303 	bne	1af204 <__bss_end__+0x1a5954>
    25f4:	000009fc 	strdeq	r0, [r0], -ip
    25f8:	000009fc 	strdeq	r0, [r0], -ip
    25fc:	00061904 	andeq	r1, r6, r4, lsl #18
    2600:	00000137 	andeq	r0, r0, r7, lsr r1
    2604:	0d890004 	stceq	0, cr0, [r9, #16]
    2608:	01040000 	mrseq	r0, (UNDEF: 4)
    260c:	000003fc 	strdeq	r0, [r0], -ip
    2610:	000a190c 	andeq	r1, sl, ip, lsl #18
    2614:	0004cb00 	andeq	ip, r4, r0, lsl #22
    2618:	008f2800 	addeq	r2, pc, r0, lsl #16
    261c:	00003400 	andeq	r3, r0, r0, lsl #8
    2620:	00129e00 	andseq	r9, r2, r0, lsl #28
    2624:	05040200 	streq	r0, [r4, #-512]	; 0xfffffe00
    2628:	00746e69 	rsbseq	r6, r4, r9, ror #28
    262c:	88070403 	stmdahi	r7, {r0, r1, sl}
    2630:	03000001 	movweq	r0, #1
    2634:	01410601 	cmpeq	r1, r1, lsl #12
    2638:	02030000 	andeq	r0, r3, #0, 0
    263c:	00003105 	andeq	r3, r0, r5, lsl #2
    2640:	05040300 	streq	r0, [r4, #-768]	; 0xfffffd00
    2644:	000000d5 	ldrdeq	r0, [r0], -r5
    2648:	d0050803 	andle	r0, r5, r3, lsl #16
    264c:	03000000 	movweq	r0, #0
    2650:	013f0801 	teqeq	pc, r1, lsl #16
    2654:	02030000 	andeq	r0, r3, #0, 0
    2658:	0001cf07 	andeq	ip, r1, r7, lsl #30
    265c:	07040300 	streq	r0, [r4, -r0, lsl #6]
    2660:	00000183 	andeq	r0, r0, r3, lsl #3
    2664:	7e070803 	cdpvc	8, 0, cr0, cr7, cr3, {0}
    2668:	04000001 	streq	r0, [r0], #-1
    266c:	00000025 	andeq	r0, r0, r5, lsr #32
    2670:	0000007a 	andeq	r0, r0, sl, ror r0
    2674:	00002505 	andeq	r2, r0, r5, lsl #10
    2678:	6f060000 	svcvs	0x00060000
    267c:	02000000 	andeq	r0, r0, #0, 0
    2680:	00860e1c 	addeq	r0, r6, ip, lsl lr
    2684:	04070000 	streq	r0, [r7], #-0
    2688:	0000006b 	andeq	r0, r0, fp, rrx
    268c:	00002504 	andeq	r2, r0, r4, lsl #10
    2690:	00009b00 	andeq	r9, r0, r0, lsl #22
    2694:	009b0500 	addseq	r0, fp, r0, lsl #10
    2698:	07000000 	streq	r0, [r0, -r0]
    269c:	0000a804 	andeq	sl, r0, r4, lsl #16
    26a0:	08010300 	stmdaeq	r1, {r8, r9}
    26a4:	00000148 	andeq	r0, r0, r8, asr #2
    26a8:	0000a108 	andeq	sl, r0, r8, lsl #2
    26ac:	057e0600 	ldrbeq	r0, [lr, #-1536]!	; 0xfffffa00
    26b0:	21020000 	mrscs	r0, (UNDEF: 2)
    26b4:	0000b90e 	andeq	fp, r0, lr, lsl #18
    26b8:	8c040700 	stchi	7, cr0, [r4], {-0}
    26bc:	09000000 	stmdbeq	r0, {}	; <UNPREDICTABLE>
    26c0:	00000650 	andeq	r0, r0, r0, asr r6
    26c4:	34070401 	strcc	r0, [r7], #-1025	; 0xfffffbff
    26c8:	28000001 	stmdacs	r0, {r0}
    26cc:	3400008f 	strcc	r0, [r0], #-143	; 0xffffff71
    26d0:	01000000 	mrseq	r0, (UNDEF: 0)
    26d4:	0001349c 	muleq	r1, ip, r4
    26d8:	0a140a00 	beq	504ee0 <__bss_end__+0x4fb630>
    26dc:	04010000 	streq	r0, [r1], #-0
    26e0:	00013415 	andeq	r3, r1, r5, lsl r4
    26e4:	0b500100 	bleq	1402aec <__bss_end__+0x13f923c>
    26e8:	00637273 	rsbeq	r7, r3, r3, ror r2
    26ec:	9b270401 	blls	9c36f8 <__bss_end__+0x9b9e48>
    26f0:	29000000 	stmdbcs	r0, {}	; <UNPREDICTABLE>
    26f4:	2500000e 	strcs	r0, [r0, #-14]
    26f8:	0c00000e 	stceq	0, cr0, [r0], {14}
    26fc:	01003173 	tsteq	r0, r3, ror r1
    2700:	01340b05 	teqeq	r4, r5, lsl #22
    2704:	0e540000 	cdpeq	0, 5, cr0, cr4, cr0, {0}
    2708:	0e4a0000 	cdpeq	0, 4, cr0, cr10, cr0, {0}
    270c:	730c0000 	movwvc	r0, #49152	; 0xc000
    2710:	06010032 			; <UNDEFINED> instruction: 0x06010032
    2714:	00009b11 	andeq	r9, r0, r1, lsl fp
    2718:	000e9900 	andeq	r9, lr, r0, lsl #18
    271c:	000e9500 	andeq	r9, lr, r0, lsl #10
    2720:	00630c00 	rsbeq	r0, r3, r0, lsl #24
    2724:	a10a0701 	tstge	sl, r1, lsl #14
    2728:	bd000000 	stclt	0, cr0, [r0, #-0]
    272c:	b900000e 	stmdblt	r0, {r1, r2, r3}
    2730:	0000000e 	andeq	r0, r0, lr
    2734:	00a10407 	adceq	r0, r1, r7, lsl #8
    2738:	f7000000 			; <UNDEFINED> instruction: 0xf7000000
    273c:	04000000 	streq	r0, [r0], #-0
    2740:	000e3f00 	andeq	r3, lr, r0, lsl #30
    2744:	fc010400 	stc2	4, cr0, [r1], {-0}
    2748:	0c000003 	stceq	0, cr0, [r0], {3}
    274c:	00000a29 	andeq	r0, r0, r9, lsr #20
    2750:	000004cb 	andeq	r0, r0, fp, asr #9
    2754:	00008f5c 	andeq	r8, r0, ip, asr pc
    2758:	0000002c 	andeq	r0, r0, ip, lsr #32
    275c:	0000139e 	muleq	r0, lr, r3
    2760:	69050402 	stmdbvs	r5, {r1, sl}
    2764:	0300746e 	movweq	r7, #1134	; 0x46e
    2768:	01880704 	orreq	r0, r8, r4, lsl #14
    276c:	01030000 	mrseq	r0, (UNDEF: 3)
    2770:	00014106 	andeq	r4, r1, r6, lsl #2
    2774:	05020300 	streq	r0, [r2, #-768]	; 0xfffffd00
    2778:	00000031 	andeq	r0, r0, r1, lsr r0
    277c:	d5050403 	strle	r0, [r5, #-1027]	; 0xfffffbfd
    2780:	03000000 	movweq	r0, #0
    2784:	00d00508 	sbcseq	r0, r0, r8, lsl #10
    2788:	01030000 	mrseq	r0, (UNDEF: 3)
    278c:	00013f08 	andeq	r3, r1, r8, lsl #30
    2790:	07020300 	streq	r0, [r2, -r0, lsl #6]
    2794:	000001cf 	andeq	r0, r0, pc, asr #3
    2798:	83070403 	movwhi	r0, #29699	; 0x7403
    279c:	03000001 	movweq	r0, #1
    27a0:	017e0708 	cmneq	lr, r8, lsl #14
    27a4:	25040000 	strcs	r0, [r4, #-0]
    27a8:	7a000000 	bvc	27b0 <__code_start__-0x5850>
    27ac:	05000000 	streq	r0, [r0, #-0]
    27b0:	00000025 	andeq	r0, r0, r5, lsr #32
    27b4:	006f0600 	rsbeq	r0, pc, r0, lsl #12
    27b8:	1c020000 	stcne	0, cr0, [r2], {-0}
    27bc:	0000860e 	andeq	r8, r0, lr, lsl #12
    27c0:	6b040700 	blvs	1043c8 <__bss_end__+0xfab18>
    27c4:	04000000 	streq	r0, [r0], #-0
    27c8:	00000025 	andeq	r0, r0, r5, lsr #32
    27cc:	0000009b 	muleq	r0, fp, r0
    27d0:	00009b05 	andeq	r9, r0, r5, lsl #22
    27d4:	04070000 	streq	r0, [r7], #-0
    27d8:	000000a8 	andeq	r0, r0, r8, lsr #1
    27dc:	48080103 	stmdami	r8, {r0, r1, r8}
    27e0:	08000001 	stmdaeq	r0, {r0}
    27e4:	000000a1 	andeq	r0, r0, r1, lsr #1
    27e8:	00057e06 	andeq	r7, r5, r6, lsl #28
    27ec:	0e210200 	cdpeq	2, 2, cr0, cr1, cr0, {0}
    27f0:	000000b9 	strheq	r0, [r0], -r9
    27f4:	008c0407 	addeq	r0, ip, r7, lsl #8
    27f8:	57090000 	strpl	r0, [r9, -r0]
    27fc:	01000006 	tsteq	r0, r6
    2800:	00250503 	eoreq	r0, r5, r3, lsl #10
    2804:	8f5c0000 	svchi	0x005c0000
    2808:	002c0000 	eoreq	r0, ip, r0
    280c:	9c010000 	stcls	0, cr0, [r1], {-0}
    2810:	0100610a 	tsteq	r0, sl, lsl #2
    2814:	009b1803 	addseq	r1, fp, r3, lsl #16
    2818:	0edf0000 	cdpeq	0, 13, cr0, cr15, cr0, {0}
    281c:	0edb0000 	cdpeq	0, 13, cr0, cr11, cr0, {0}
    2820:	620a0000 	andvs	r0, sl, #0, 0
    2824:	27030100 	strcs	r0, [r3, -r0, lsl #2]
    2828:	0000009b 	muleq	r0, fp, r0
    282c:	00000f01 	andeq	r0, r0, r1, lsl #30
    2830:	00000efd 	strdeq	r0, [r0], -sp
    2834:	010f0000 	mrseq	r0, CPSR
    2838:	00040000 	andeq	r0, r4, r0
    283c:	00000ece 	andeq	r0, r0, lr, asr #29
    2840:	03fc0104 	mvnseq	r0, #1
    2844:	390c0000 	stmdbcc	ip, {}	; <UNPREDICTABLE>
    2848:	cb00000a 	blgt	2878 <__code_start__-0x5788>
    284c:	88000004 	stmdahi	r0, {r2}
    2850:	2000008f 	andcs	r0, r0, pc, lsl #1
    2854:	57000000 	strpl	r0, [r0, -r0]
    2858:	02000014 	andeq	r0, r0, #20, 0
    285c:	6e690504 	cdpvs	5, 6, cr0, cr9, cr4, {0}
    2860:	04030074 	streq	r0, [r3], #-116	; 0xffffff8c
    2864:	00018807 	andeq	r8, r1, r7, lsl #16
    2868:	06010300 	streq	r0, [r1], -r0, lsl #6
    286c:	00000141 	andeq	r0, r0, r1, asr #2
    2870:	31050203 	tstcc	r5, r3, lsl #4
    2874:	03000000 	movweq	r0, #0
    2878:	00d50504 	sbcseq	r0, r5, r4, lsl #10
    287c:	08030000 	stmdaeq	r3, {}	; <UNPREDICTABLE>
    2880:	0000d005 	andeq	sp, r0, r5
    2884:	08010300 	stmdaeq	r1, {r8, r9}
    2888:	0000013f 	andeq	r0, r0, pc, lsr r1
    288c:	cf070203 	svcgt	0x00070203
    2890:	03000001 	movweq	r0, #1
    2894:	01830704 	orreq	r0, r3, r4, lsl #14
    2898:	08030000 	stmdaeq	r3, {}	; <UNPREDICTABLE>
    289c:	00017e07 	andeq	r7, r1, r7, lsl #28
    28a0:	00250400 	eoreq	r0, r5, r0, lsl #8
    28a4:	007a0000 	rsbseq	r0, sl, r0
    28a8:	25050000 	strcs	r0, [r5, #-0]
    28ac:	00000000 	andeq	r0, r0, r0
    28b0:	00006f06 	andeq	r6, r0, r6, lsl #30
    28b4:	0e1c0200 	cdpeq	2, 1, cr0, cr12, cr0, {0}
    28b8:	00000086 	andeq	r0, r0, r6, lsl #1
    28bc:	006b0407 	rsbeq	r0, fp, r7, lsl #8
    28c0:	25040000 	strcs	r0, [r4, #-0]
    28c4:	9b000000 	blls	28cc <__code_start__-0x5734>
    28c8:	05000000 	streq	r0, [r0, #-0]
    28cc:	0000009b 	muleq	r0, fp, r0
    28d0:	a8040700 	stmdage	r4, {r8, r9, sl}
    28d4:	03000000 	movweq	r0, #0
    28d8:	01480801 	cmpeq	r8, r1, lsl #16
    28dc:	a1080000 	mrsge	r0, (UNDEF: 8)
    28e0:	06000000 	streq	r0, [r0], -r0
    28e4:	0000057e 	andeq	r0, r0, lr, ror r5
    28e8:	b90e2102 	stmdblt	lr, {r1, r8, sp}
    28ec:	07000000 	streq	r0, [r0, -r0]
    28f0:	00008c04 	andeq	r8, r0, r4, lsl #24
    28f4:	06210900 	strteq	r0, [r1], -r0, lsl #18
    28f8:	03010000 	movweq	r0, #4096	; 0x1000
    28fc:	00010c07 	andeq	r0, r1, r7, lsl #24
    2900:	008f8800 	addeq	r8, pc, r0, lsl #16
    2904:	00002000 	andeq	r2, r0, r0
    2908:	0c9c0100 	ldfeqs	f0, [ip], {0}
    290c:	0a000001 	beq	2918 <__code_start__-0x56e8>
    2910:	01003173 	tsteq	r0, r3, ror r1
    2914:	010c1503 	tsteq	ip, r3, lsl #10
    2918:	50010000 	andpl	r0, r1, r0
    291c:	0032730b 	eorseq	r7, r2, fp, lsl #6
    2920:	9b260301 	blls	98352c <__bss_end__+0x979c7c>
    2924:	25000000 	strcs	r0, [r0, #-0]
    2928:	1f00000f 	svcne	0x0000000f
    292c:	0c00000f 	stceq	0, cr0, [r0], {15}
    2930:	04010073 	streq	r0, [r1], #-115	; 0xffffff8d
    2934:	00010c14 	andeq	r0, r1, r4, lsl ip
    2938:	000f5600 	andeq	r5, pc, r0, lsl #12
    293c:	000f5000 	andeq	r5, pc, r0
    2940:	04070000 	streq	r0, [r7], #-0
    2944:	000000a1 	andeq	r0, r0, r1, lsr #1
    2948:	00014e00 	andeq	r4, r1, r0, lsl #28
    294c:	84000400 	strhi	r0, [r0], #-1024	; 0xfffffc00
    2950:	0400000f 	streq	r0, [r0], #-15
    2954:	0003fc01 	andeq	pc, r3, r1, lsl #24
    2958:	0a500c00 	beq	1405960 <__bss_end__+0x13fc0b0>
    295c:	04cb0000 	strbeq	r0, [fp], #0
    2960:	00400000 	subeq	r0, r0, r0
    2964:	00000000 	andeq	r0, r0, r0
    2968:	150e0000 	strne	r0, [lr, #-0]
    296c:	04020000 	streq	r0, [r2], #-0
    2970:	746e6905 	strbtvc	r6, [lr], #-2309	; 0xfffff6fb
    2974:	0a490300 	beq	124357c <__bss_end__+0x1239ccc>
    2978:	d1030000 	mrsle	r0, (UNDEF: 3)
    297c:	00003817 	andeq	r3, r0, r7, lsl r8
    2980:	07040400 	streq	r0, [r4, -r0, lsl #8]
    2984:	00000188 	andeq	r0, r0, r8, lsl #3
    2988:	41060104 	tstmi	r6, r4, lsl #2
    298c:	04000001 	streq	r0, [r0], #-1
    2990:	00310502 	eorseq	r0, r1, r2, lsl #10
    2994:	04040000 	streq	r0, [r4], #-0
    2998:	0000d505 	andeq	sp, r0, r5, lsl #10
    299c:	05080400 	streq	r0, [r8, #-1024]	; 0xfffffc00
    29a0:	000000d0 	ldrdeq	r0, [r0], -r0	; <UNPREDICTABLE>
    29a4:	3f080104 	svccc	0x00080104
    29a8:	05000001 	streq	r0, [r0, #-1]
    29ac:	0000005b 	andeq	r0, r0, fp, asr r0
    29b0:	cf070204 	svcgt	0x00070204
    29b4:	04000001 	streq	r0, [r0], #-1
    29b8:	01830704 	orreq	r0, r3, r4, lsl #14
    29bc:	08040000 	stmdaeq	r4, {}	; <UNPREDICTABLE>
    29c0:	00017e07 	andeq	r7, r1, r7, lsl #28
    29c4:	00250600 	eoreq	r0, r5, r0, lsl #12
    29c8:	008b0000 	addeq	r0, fp, r0
    29cc:	25070000 	strcs	r0, [r7, #-0]
    29d0:	00000000 	andeq	r0, r0, r0
    29d4:	00006f08 	andeq	r6, r0, r8, lsl #30
    29d8:	0e1c0200 	cdpeq	2, 1, cr0, cr12, cr0, {0}
    29dc:	00000097 	muleq	r0, r7, r0
    29e0:	007c0409 	rsbseq	r0, ip, r9, lsl #8
    29e4:	25060000 	strcs	r0, [r6, #-0]
    29e8:	ac000000 	stcge	0, cr0, [r0], {-0}
    29ec:	07000000 	streq	r0, [r0, -r0]
    29f0:	000000ac 	andeq	r0, r0, ip, lsr #1
    29f4:	b9040900 	stmdblt	r4, {r8, fp}
    29f8:	04000000 	streq	r0, [r0], #-0
    29fc:	01480801 	cmpeq	r8, r1, lsl #16
    2a00:	b2050000 	andlt	r0, r5, #0, 0
    2a04:	08000000 	stmdaeq	r0, {}	; <UNPREDICTABLE>
    2a08:	0000057e 	andeq	r0, r0, lr, ror r5
    2a0c:	ca0e2102 	bgt	38ae1c <__bss_end__+0x38156c>
    2a10:	09000000 	stmdbeq	r0, {}	; <UNPREDICTABLE>
    2a14:	00009d04 	andeq	r9, r0, r4, lsl #26
    2a18:	067f0a00 	ldrbteq	r0, [pc], -r0, lsl #20
    2a1c:	04010000 	streq	r0, [r1], #-0
    2a20:	00002505 	andeq	r2, r0, r5, lsl #10
    2a24:	008fa800 	addeq	sl, pc, r0, lsl #16
    2a28:	00002c00 	andeq	r2, r0, r0, lsl #24
    2a2c:	4b9c0100 	blmi	fe702e34 <__bss_end__+0xfe6f9584>
    2a30:	0b000001 	bleq	2a3c <__code_start__-0x55c4>
    2a34:	0031735f 	eorseq	r7, r1, pc, asr r3
    2a38:	ac190401 	cfldrsge	mvf0, [r9], {1}
    2a3c:	85000000 	strhi	r0, [r0, #-0]
    2a40:	8100000f 	tsthi	r0, pc
    2a44:	0b00000f 	bleq	2a88 <__code_start__-0x5578>
    2a48:	0032735f 	eorseq	r7, r2, pc, asr r3
    2a4c:	ac2a0401 	cfstrsge	mvf0, [sl], #-4
    2a50:	aa000000 	bge	2a58 <__code_start__-0x55a8>
    2a54:	a600000f 	strge	r0, [r0], -pc
    2a58:	0b00000f 	bleq	2a9c <__code_start__-0x5564>
    2a5c:	0401006e 	streq	r0, [r1], #-110	; 0xffffff92
    2a60:	00002c36 	andeq	r2, r0, r6, lsr ip
    2a64:	000fd100 	andeq	sp, pc, r0, lsl #2
    2a68:	000fcb00 	andeq	ip, pc, r0, lsl #22
    2a6c:	31730c00 	cmncc	r3, r0, lsl #24
    2a70:	1a050100 	bne	142e78 <__bss_end__+0x1395c8>
    2a74:	0000014b 	andeq	r0, r0, fp, asr #2
    2a78:	00001004 	andeq	r1, r0, r4
    2a7c:	00000ffc 	strdeq	r0, [r0], -ip
    2a80:	0032730c 	eorseq	r7, r2, ip, lsl #6
    2a84:	4b2c0501 	blmi	b03e90 <__bss_end__+0xafa5e0>
    2a88:	40000001 	andmi	r0, r0, r1
    2a8c:	3a000010 	bcc	2ad4 <__code_start__-0x552c>
    2a90:	00000010 	andeq	r0, r0, r0, lsl r0
    2a94:	00620409 	rsbeq	r0, r2, r9, lsl #8
    2a98:	ce000000 	cdpgt	0, 0, cr0, cr0, cr0, {0}
    2a9c:	04000000 	streq	r0, [r0], #-0
    2aa0:	00103800 	andseq	r3, r0, r0, lsl #16
    2aa4:	fc010400 	stc2	4, cr0, [r1], {-0}
    2aa8:	0c000003 	stceq	0, cr0, [r0], {3}
    2aac:	00000a61 	andeq	r0, r0, r1, ror #20
    2ab0:	000004cb 	andeq	r0, r0, fp, asr #9
    2ab4:	00008fd4 	ldrdeq	r8, [r0], -r4
    2ab8:	00000004 	andeq	r0, r0, r4
    2abc:	00001628 	andeq	r1, r0, r8, lsr #12
    2ac0:	69050402 	stmdbvs	r5, {r1, sl}
    2ac4:	0300746e 	movweq	r7, #1134	; 0x46e
    2ac8:	01880704 	orreq	r0, r8, r4, lsl #14
    2acc:	01030000 	mrseq	r0, (UNDEF: 3)
    2ad0:	00014106 	andeq	r4, r1, r6, lsl #2
    2ad4:	05020300 	streq	r0, [r2, #-768]	; 0xfffffd00
    2ad8:	00000031 	andeq	r0, r0, r1, lsr r0
    2adc:	d5050403 	strle	r0, [r5, #-1027]	; 0xfffffbfd
    2ae0:	03000000 	movweq	r0, #0
    2ae4:	00d00508 	sbcseq	r0, r0, r8, lsl #10
    2ae8:	01030000 	mrseq	r0, (UNDEF: 3)
    2aec:	00013f08 	andeq	r3, r1, r8, lsl #30
    2af0:	07020300 	streq	r0, [r2, -r0, lsl #6]
    2af4:	000001cf 	andeq	r0, r0, pc, asr #3
    2af8:	83070403 	movwhi	r0, #29699	; 0x7403
    2afc:	03000001 	movweq	r0, #1
    2b00:	017e0708 	cmneq	lr, r8, lsl #14
    2b04:	25040000 	strcs	r0, [r4, #-0]
    2b08:	7a000000 	bvc	2b10 <__code_start__-0x54f0>
    2b0c:	05000000 	streq	r0, [r0, #-0]
    2b10:	00000025 	andeq	r0, r0, r5, lsr #32
    2b14:	006f0600 	rsbeq	r0, pc, r0, lsl #12
    2b18:	1c020000 	stcne	0, cr0, [r2], {-0}
    2b1c:	0000860e 	andeq	r8, r0, lr, lsl #12
    2b20:	6b040700 	blvs	104728 <__bss_end__+0xfae78>
    2b24:	04000000 	streq	r0, [r0], #-0
    2b28:	00000025 	andeq	r0, r0, r5, lsr #32
    2b2c:	0000009b 	muleq	r0, fp, r0
    2b30:	00009b05 	andeq	r9, r0, r5, lsl #22
    2b34:	04070000 	streq	r0, [r7], #-0
    2b38:	000000a8 	andeq	r0, r0, r8, lsr #1
    2b3c:	48080103 	stmdami	r8, {r0, r1, r8}
    2b40:	08000001 	stmdaeq	r0, {r0}
    2b44:	000000a1 	andeq	r0, r0, r1, lsr #1
    2b48:	00057e06 	andeq	r7, r5, r6, lsl #28
    2b4c:	0e210200 	cdpeq	2, 2, cr0, cr1, cr0, {0}
    2b50:	000000b9 	strheq	r0, [r0], -r9
    2b54:	008c0407 	addeq	r0, ip, r7, lsl #8
    2b58:	2b090000 	blcs	242b60 <__bss_end__+0x2392b0>
    2b5c:	01000007 	tsteq	r0, r7
    2b60:	8fd40603 	svchi	0x00d40603
    2b64:	00040000 	andeq	r0, r4, r0
    2b68:	9c010000 	stcls	0, cr0, [r1], {-0}
    2b6c:	0003a500 	andeq	sl, r3, r0, lsl #10
    2b70:	b1000400 	tstlt	r0, r0, lsl #8
    2b74:	04000010 	streq	r0, [r0], #-16
    2b78:	00090c01 	andeq	r0, r9, r1, lsl #24
    2b7c:	0b050c00 	bleq	145b84 <__bss_end__+0x13c2d4>
    2b80:	08bc0000 	ldmeq	ip!, {}	; <UNPREDICTABLE>
    2b84:	8ff00000 	svchi	0x00f00000	; IMB
    2b88:	011c0000 	tsteq	ip, r0
    2b8c:	16ce0000 	strbne	r0, [lr], r0
    2b90:	04020000 	streq	r0, [r2], #-0
    2b94:	746e6905 	strbtvc	r6, [lr], #-2309	; 0xfffff6fb
    2b98:	07040300 	streq	r0, [r4, -r0, lsl #6]
    2b9c:	00000188 	andeq	r0, r0, r8, lsl #3
    2ba0:	00002c04 	andeq	r2, r0, r4, lsl #24
    2ba4:	06010300 	streq	r0, [r1], -r0, lsl #6
    2ba8:	00000141 	andeq	r0, r0, r1, asr #2
    2bac:	31050203 	tstcc	r5, r3, lsl #4
    2bb0:	03000000 	movweq	r0, #0
    2bb4:	00d50504 	sbcseq	r0, r5, r4, lsl #10
    2bb8:	08030000 	stmdaeq	r3, {}	; <UNPREDICTABLE>
    2bbc:	0000d005 	andeq	sp, r0, r5
    2bc0:	08010300 	stmdaeq	r1, {r8, r9}
    2bc4:	0000013f 	andeq	r0, r0, pc, lsr r1
    2bc8:	cf070203 	svcgt	0x00070203
    2bcc:	05000001 	streq	r0, [r0, #-1]
    2bd0:	0000019c 	muleq	r0, ip, r1
    2bd4:	6e193403 	cfmulsvs	mvf3, mvf9, mvf3
    2bd8:	03000000 	movweq	r0, #0
    2bdc:	01830704 	orreq	r0, r3, r4, lsl #14
    2be0:	08030000 	stmdaeq	r3, {}	; <UNPREDICTABLE>
    2be4:	00017e07 	andeq	r7, r1, r7, lsl #28
    2be8:	08010300 	stmdaeq	r1, {r8, r9}
    2bec:	00000148 	andeq	r0, r0, r8, asr #2
    2bf0:	54010706 	strpl	r0, [r1], #-1798	; 0xfffff8fa
    2bf4:	04000000 	streq	r0, [r0], #-0
    2bf8:	00c20e0c 	sbceq	r0, r2, ip, lsl #28
    2bfc:	ec070000 	stc	0, cr0, [r7], {-0}
    2c00:	00000009 	andeq	r0, r0, r9
    2c04:	00082907 	andeq	r2, r8, r7, lsl #18
    2c08:	71070100 	mrsvc	r0, (UNDEF: 23)
    2c0c:	04000008 	streq	r0, [r0], #-8
    2c10:	00088007 	andeq	r8, r8, r7
    2c14:	8f070500 	svchi	0x00070500
    2c18:	06000008 	streq	r0, [r0], -r8
    2c1c:	00089e07 	andeq	r9, r8, r7, lsl #28
    2c20:	bf070700 	svclt	0x00070700
    2c24:	03000009 	movweq	r0, #9
    2c28:	0008ad07 	andeq	sl, r8, r7, lsl #26
    2c2c:	05000200 	streq	r0, [r0, #-512]	; 0xfffffe00
    2c30:	00000aea 	andeq	r0, r0, sl, ror #21
    2c34:	83031504 	movwhi	r1, #13572	; 0x3504
    2c38:	08000000 	stmdaeq	r0, {}	; <UNPREDICTABLE>
    2c3c:	00000a90 	muleq	r0, r0, sl
    2c40:	33171d01 	tstcc	r7, #64	; 0x40
    2c44:	1c000000 	stcne	0, cr0, [r0], {-0}
    2c48:	08202000 	stmdaeq	r0!, {sp}
    2c4c:	00000a86 	andeq	r0, r0, r6, lsl #21
    2c50:	33171e01 	tstcc	r7, #1, 28
    2c54:	28000000 	stmdacs	r0, {}	; <UNPREDICTABLE>
    2c58:	08202000 	stmdaeq	r0!, {sp}
    2c5c:	00000af6 	strdeq	r0, [r0], -r6
    2c60:	33171f01 	tstcc	r7, #1, 30
    2c64:	34000000 	strcc	r0, [r0], #-0
    2c68:	09202000 	stmdbeq	r0!, {sp}
    2c6c:	00000aaf 	andeq	r0, r0, pc, lsr #21
    2c70:	25055501 	strcs	r5, [r5, #-1281]	; 0xfffffaff
    2c74:	d8000000 	stmdale	r0, {}	; <UNPREDICTABLE>
    2c78:	34000090 	strcc	r0, [r0], #-144	; 0xffffff70
    2c7c:	01000000 	mrseq	r0, (UNDEF: 0)
    2c80:	00016e9c 	muleq	r1, ip, lr
    2c84:	69700a00 	ldmdbvs	r0!, {r9, fp}^
    2c88:	5501006e 	strpl	r0, [r1, #-110]	; 0xffffff92
    2c8c:	00002c18 	andeq	r2, r0, r8, lsl ip
    2c90:	00107300 	andseq	r7, r0, r0, lsl #6
    2c94:	00106b00 	andseq	r6, r0, r0, lsl #22
    2c98:	0b000b00 	bleq	58a0 <__code_start__-0x2760>
    2c9c:	58010000 	stmdapl	r1, {}	; <UNPREDICTABLE>
    2ca0:	00002c0e 	andeq	r2, r0, lr, lsl #24
    2ca4:	0010b300 	andseq	fp, r0, r0, lsl #6
    2ca8:	0010ad00 	andseq	sl, r0, r0, lsl #26
    2cac:	666f0c00 	strbtvs	r0, [pc], -r0, lsl #24
    2cb0:	59010066 	stmdbpl	r1, {r1, r2, r5, r6}
    2cb4:	00002c0e 	andeq	r2, r0, lr, lsl #24
    2cb8:	0010f300 	andseq	pc, r0, r0, lsl #6
    2cbc:	0010f100 	andseq	pc, r0, r0, lsl #2
    2cc0:	90f40d00 	rscsls	r0, r4, r0, lsl #26
    2cc4:	03900000 	orrseq	r0, r0, #0, 0
    2cc8:	010e0000 	mrseq	r0, (UNDEF: 14)
    2ccc:	01f30b50 	mvnseq	r0, r0, asr fp
    2cd0:	23253550 			; <UNDEFINED> instruction: 0x23253550
    2cd4:	818080b4 	strhhi	r8, [r0, r4]
    2cd8:	0f000002 	svceq	0x00000002
    2cdc:	00000a9a 	muleq	r0, sl, sl
    2ce0:	bc064e01 	stclt	14, cr4, [r6], {1}
    2ce4:	1c000090 	stcne	0, cr0, [r0], {144}	; 0x90
    2ce8:	01000000 	mrseq	r0, (UNDEF: 0)
    2cec:	0001c99c 	muleq	r1, ip, r9
    2cf0:	69700a00 	ldmdbvs	r0!, {r9, fp}^
    2cf4:	4e01006e 	cdpmi	0, 0, cr0, cr1, cr14, {3}
    2cf8:	00002c1a 	andeq	r2, r0, sl, lsl ip
    2cfc:	00110e00 	andseq	r0, r1, r0, lsl #28
    2d00:	00110600 	andseq	r0, r1, r0, lsl #12
    2d04:	00760a00 	rsbseq	r0, r6, r0, lsl #20
    2d08:	2c284e01 	stccs	14, cr4, [r8], #-4
    2d0c:	50000000 	andpl	r0, r0, r0
    2d10:	48000011 	stmdami	r0, {r0, r4}
    2d14:	10000011 	andne	r0, r0, r1, lsl r0
    2d18:	000090cc 	andeq	r9, r0, ip, asr #1
    2d1c:	00000251 	andeq	r0, r0, r1, asr r2
    2d20:	000001bf 			; <UNDEFINED> instruction: 0x000001bf
    2d24:	0350010e 	cmpeq	r0, #-2147483645	; 0x80000003
    2d28:	005001f3 	ldrsheq	r0, [r0], #-19	; 0xffffffed
    2d2c:	0090d411 	addseq	sp, r0, r1, lsl r4
    2d30:	00020a00 	andeq	r0, r2, r0, lsl #20
    2d34:	b90f0000 	stmdblt	pc, {}	; <UNPREDICTABLE>
    2d38:	0100000a 	tsteq	r0, sl
    2d3c:	90ac0649 	adcls	r0, ip, r9, asr #12
    2d40:	00100000 	andseq	r0, r0, r0
    2d44:	9c010000 	stcls	0, cr0, [r1], {-0}
    2d48:	0000020a 	andeq	r0, r0, sl, lsl #4
    2d4c:	6e69700a 	cdpvs	0, 6, cr7, cr9, cr10, {0}
    2d50:	1e490100 	dvfnee	f0, f1, f0
    2d54:	0000002c 	andeq	r0, r0, ip, lsr #32
    2d58:	0000118e 	andeq	r1, r0, lr, lsl #3
    2d5c:	0000118a 	andeq	r1, r0, sl, lsl #3
    2d60:	0090b80d 	addseq	fp, r0, sp, lsl #16
    2d64:	0002d900 	andeq	sp, r2, r0, lsl #18
    2d68:	50010e00 	andpl	r0, r1, r0, lsl #28
    2d6c:	5001f303 	andpl	pc, r1, r3, lsl #6
    2d70:	0151010e 	cmpeq	r1, lr, lsl #2
    2d74:	0f000030 	svceq	0x00000030
    2d78:	00000ac8 	andeq	r0, r0, r8, asr #21
    2d7c:	88064201 	stmdahi	r6, {r0, r9, lr}
    2d80:	24000090 	strcs	r0, [r0], #-144	; 0xffffff70
    2d84:	01000000 	mrseq	r0, (UNDEF: 0)
    2d88:	0002519c 	muleq	r2, ip, r1
    2d8c:	69700a00 	ldmdbvs	r0!, {r9, fp}^
    2d90:	4201006e 	andmi	r0, r1, #110, 0	; 0x6e
    2d94:	00002c1c 	andeq	r2, r0, ip, lsl ip
    2d98:	0011b300 	andseq	fp, r1, r0, lsl #6
    2d9c:	0011af00 	andseq	sl, r1, r0, lsl #30
    2da0:	90a40d00 	adcls	r0, r4, r0, lsl #26
    2da4:	039c0000 	orrseq	r0, ip, #0, 0
    2da8:	010e0000 	mrseq	r0, (UNDEF: 14)
    2dac:	280c0550 	stmdacs	ip, {r4, r6, r8, sl}
    2db0:	0e202000 	cdpeq	0, 2, cr2, cr0, cr0, {0}
    2db4:	31055101 	tstcc	r5, r1, lsl #2
    2db8:	245001f3 	ldrbcs	r0, [r0], #-499	; 0xfffffe0d
    2dbc:	0c0f0000 	stceq	0, cr0, [pc], {-0}
    2dc0:	0100000b 	tsteq	r0, fp
    2dc4:	9064063b 	rsbls	r0, r4, fp, lsr r6
    2dc8:	00240000 	eoreq	r0, r4, r0
    2dcc:	9c010000 	stcls	0, cr0, [r1], {-0}
    2dd0:	00000298 	muleq	r0, r8, r2
    2dd4:	6e69700a 	cdpvs	0, 6, cr7, cr9, cr10, {0}
    2dd8:	1b3b0100 	blne	ec31e0 <__bss_end__+0xeb9930>
    2ddc:	0000002c 	andeq	r0, r0, ip, lsr #32
    2de0:	000011d8 	ldrdeq	r1, [r0], -r8
    2de4:	000011d4 	ldrdeq	r1, [r0], -r4
    2de8:	0090800d 	addseq	r8, r0, sp
    2dec:	00039c00 	andeq	r9, r3, r0, lsl #24
    2df0:	50010e00 	andpl	r0, r1, r0, lsl #28
    2df4:	001c0c05 	andseq	r0, ip, r5, lsl #24
    2df8:	010e2020 	tsteq	lr, r0, lsr #32
    2dfc:	f3310551 	vqrshl.u64	q0, <illegal reg q0.5>, <illegal reg q0.5>
    2e00:	00245001 	eoreq	r5, r4, r1
    2e04:	0ad50f00 	beq	ff546a0c <__bss_end__+0xff53d15c>
    2e08:	36010000 	strcc	r0, [r1], -r0
    2e0c:	00905406 	addseq	r5, r0, r6, lsl #8
    2e10:	00001000 	andeq	r1, r0, r0
    2e14:	d99c0100 	ldmible	ip, {r8}
    2e18:	0a000002 	beq	2e28 <__code_start__-0x51d8>
    2e1c:	006e6970 	rsbeq	r6, lr, r0, ror r9
    2e20:	2c1f3601 	ldccs	6, cr3, [pc], {1}
    2e24:	fd000000 	stc2	0, cr0, [r0, #-0]
    2e28:	f9000011 			; <UNDEFINED> instruction: 0xf9000011
    2e2c:	0d000011 	stceq	0, cr0, [r0, #-68]	; 0xffffffbc
    2e30:	00009060 	andeq	r9, r0, r0, rrx
    2e34:	000002d9 	ldrdeq	r0, [r0], -r9
    2e38:	0350010e 	cmpeq	r0, #-2147483645	; 0x80000003
    2e3c:	0e5001f3 	mrceq	1, 2, r0, cr0, cr3, {7}
    2e40:	31015101 	tstcc	r1, r1, lsl #2
    2e44:	fc0f0000 	stc2	0, cr0, [pc], {-0}
    2e48:	01000009 	tsteq	r0, r9
    2e4c:	8ff00628 	svchi	0x00f00628
    2e50:	00640000 	rsbeq	r0, r4, r0
    2e54:	9c010000 	stcls	0, cr0, [r1], {-0}
    2e58:	00000374 	andeq	r0, r0, r4, ror r3
    2e5c:	6e69700a 	cdpvs	0, 6, cr7, cr9, cr10, {0}
    2e60:	21280100 			; <UNDEFINED> instruction: 0x21280100
    2e64:	0000002c 	andeq	r0, r0, ip, lsr #32
    2e68:	00001222 	andeq	r1, r0, r2, lsr #4
    2e6c:	0000121e 	andeq	r1, r0, lr, lsl r2
    2e70:	000ae512 	andeq	lr, sl, r2, lsl r5
    2e74:	32280100 	eorcc	r0, r8, #0
    2e78:	000000c2 	andeq	r0, r0, r2, asr #1
    2e7c:	00001247 	andeq	r1, r0, r7, asr #4
    2e80:	00001243 	andeq	r1, r0, r3, asr #4
    2e84:	66666f0c 	strbtvs	r6, [r6], -ip, lsl #30
    2e88:	0e2d0100 	sufeqe	f0, f5, f0
    2e8c:	0000002c 	andeq	r0, r0, ip, lsr #32
    2e90:	0000126a 	andeq	r1, r0, sl, ror #4
    2e94:	00001268 	andeq	r1, r0, r8, ror #4
    2e98:	0100670c 	tsteq	r0, ip, lsl #14
    2e9c:	002c0e2e 	eoreq	r0, ip, lr, lsr #28
    2ea0:	127f0000 	rsbsne	r0, pc, #0, 0
    2ea4:	127d0000 	rsbsne	r0, sp, #0, 0
    2ea8:	760c0000 	strvc	r0, [ip], -r0
    2eac:	0e300100 	rsfeqs	f0, f0, f0
    2eb0:	0000002c 	andeq	r0, r0, ip, lsr #32
    2eb4:	0000129a 	muleq	r0, sl, r2
    2eb8:	00001292 	muleq	r0, r2, r2
    2ebc:	00903810 	addseq	r3, r0, r0, lsl r8
    2ec0:	00039000 	andeq	r9, r3, r0
    2ec4:	00036300 	andeq	r6, r3, r0, lsl #6
    2ec8:	50010e00 	andpl	r0, r1, r0, lsl #28
    2ecc:	00007602 	andeq	r7, r0, r2, lsl #12
    2ed0:	00904c0d 	addseq	r4, r0, sp, lsl #24
    2ed4:	00039c00 	andeq	r9, r3, r0, lsl #24
    2ed8:	50010e00 	andpl	r0, r1, r0, lsl #28
    2edc:	00007602 	andeq	r7, r0, r2, lsl #12
    2ee0:	0aa51300 	beq	fe947ae8 <__bss_end__+0xfe93e238>
    2ee4:	b6020000 	strlt	r0, [r2], -r0
    2ee8:	00006218 	andeq	r6, r0, r8, lsl r2
    2eec:	03900300 	orrseq	r0, r0, #0, 6
    2ef0:	78140000 	ldmdavc	r4, {}	; <UNPREDICTABLE>
    2ef4:	2bb60200 	blcs	fed836fc <__bss_end__+0xfed79e4c>
    2ef8:	00000062 	andeq	r0, r0, r2, rrx
    2efc:	07d61500 	ldrbeq	r1, [r6, r0, lsl #10]
    2f00:	07d60000 	ldrbeq	r0, [r6, r0]
    2f04:	c7020000 	strgt	r0, [r2, -r0]
    2f08:	0742150a 	strbeq	r1, [r2, -sl, lsl #10]
    2f0c:	07420000 	strbeq	r0, [r2, -r0]
    2f10:	b2020000 	andlt	r0, r2, #0, 0
    2f14:	Address 0x0000000000002f14 is out of bounds.


Disassembly of section .debug_abbrev:

00000000 <.debug_abbrev>:
       0:	25011101 	strcs	r1, [r1, #-257]	; 0xfffffeff
       4:	030b130e 	movweq	r1, #45838	; 0xb30e
       8:	110e1b0e 	tstne	lr, lr, lsl #22
       c:	10061201 	andne	r1, r6, r1, lsl #4
      10:	02000017 	andeq	r0, r0, #23, 0
      14:	0b0b0024 	bleq	2c00ac <__bss_end__+0x2b67fc>
      18:	08030b3e 	stmdaeq	r3, {r1, r2, r3, r4, r5, r8, r9, fp}
      1c:	24030000 	strcs	r0, [r3], #-0
      20:	3e0b0b00 	vmlacc.f64	d0, d11, d0
      24:	000e030b 	andeq	r0, lr, fp, lsl #6
      28:	00350400 	eorseq	r0, r5, r0, lsl #8
      2c:	00001349 	andeq	r1, r0, r9, asr #6
      30:	03001605 	movweq	r1, #1541	; 0x605
      34:	3b0b3a0e 	blcc	2ce874 <__bss_end__+0x2c4fc4>
      38:	490b390b 	stmdbmi	fp, {r0, r1, r3, r8, fp, ip, sp}
      3c:	06000013 			; <UNDEFINED> instruction: 0x06000013
      40:	19270115 	stmdbne	r7!, {r0, r2, r4, r8}
      44:	13011349 	movwne	r1, #4937	; 0x1349
      48:	05070000 	streq	r0, [r7, #-0]
      4c:	00134900 	andseq	r4, r3, r0, lsl #18
      50:	00340800 	eorseq	r0, r4, r0, lsl #16
      54:	0b3a0e03 	bleq	e83868 <__bss_end__+0xe79fb8>
      58:	0b390b3b 	bleq	e42d4c <__bss_end__+0xe3949c>
      5c:	193f1349 	ldmdbne	pc!, {r0, r3, r6, r8, r9, ip}	; <UNPREDICTABLE>
      60:	0000193c 	andeq	r1, r0, ip, lsr r9
      64:	0b000f09 	bleq	3c90 <__code_start__-0x4370>
      68:	0013490b 	andseq	r4, r3, fp, lsl #18
      6c:	00260a00 	eoreq	r0, r6, r0, lsl #20
      70:	00001349 	andeq	r1, r0, r9, asr #6
      74:	3e01040b 	cdpcc	4, 0, cr0, cr1, cr11, {0}
      78:	490b0b0b 	stmdbmi	fp, {r0, r1, r3, r8, r9, fp}
      7c:	3b0b3a13 	blcc	2ce8d0 <__bss_end__+0x2c5020>
      80:	010b390b 	tsteq	fp, fp, lsl #18
      84:	0c000013 	stceq	0, cr0, [r0], {19}
      88:	0e030028 	cdpeq	0, 0, cr0, cr3, cr8, {1}
      8c:	00000b1c 	andeq	r0, r0, ip, lsl fp
      90:	2700150d 	strcs	r1, [r0, -sp, lsl #10]
      94:	0e000019 	mcreq	0, 0, r0, cr0, cr9, {0}
      98:	08030034 	stmdaeq	r3, {r2, r4, r5}
      9c:	0b3b0b3a 	bleq	ec2d8c <__bss_end__+0xeb94dc>
      a0:	13490b39 	movtne	r0, #39737	; 0x9b39
      a4:	00001802 	andeq	r1, r0, r2, lsl #16
      a8:	0300340f 	movweq	r3, #1039	; 0x40f
      ac:	3b0b3a0e 	blcc	2ce8ec <__bss_end__+0x2c503c>
      b0:	490b390b 	stmdbmi	fp, {r0, r1, r3, r8, fp, ip, sp}
      b4:	00180213 	andseq	r0, r8, r3, lsl r2
      b8:	012e1000 			; <UNDEFINED> instruction: 0x012e1000
      bc:	0e03193f 			; <UNDEFINED> instruction: 0x0e03193f
      c0:	0b3b0b3a 	bleq	ec2db0 <__bss_end__+0xeb9500>
      c4:	19270b39 	stmdbne	r7!, {r0, r3, r4, r5, r8, r9, fp}
      c8:	06120111 			; <UNDEFINED> instruction: 0x06120111
      cc:	42971840 	addsmi	r1, r7, #64, 16	; 0x400000
      d0:	00130119 	andseq	r0, r3, r9, lsl r1
      d4:	00341100 	eorseq	r1, r4, r0, lsl #2
      d8:	0b3a0803 	bleq	e820ec <__bss_end__+0xe7883c>
      dc:	0b390b3b 	bleq	e42dd0 <__bss_end__+0xe39520>
      e0:	0b1c1349 	bleq	704e0c <__bss_end__+0x6fb55c>
      e4:	34120000 	ldrcc	r0, [r2], #-0
      e8:	490e0300 	stmdbmi	lr, {r8, r9}
      ec:	02193413 	andseq	r3, r9, #318767104	; 0x13000000
      f0:	13000018 	movwne	r0, #24
      f4:	0111010b 	tsteq	r1, fp, lsl #2
      f8:	13010612 	movwne	r0, #5650	; 0x1612
      fc:	34140000 	ldrcc	r0, [r4], #-0
     100:	3a080300 	bcc	200d08 <__bss_end__+0x1f7458>
     104:	390b3b0b 	stmdbcc	fp, {r0, r1, r3, r8, r9, fp, ip, sp}
     108:	0213490b 	andseq	r4, r3, #180224	; 0x2c000
     10c:	1742b717 	smlaldne	fp, r2, r7, r7
     110:	34150000 	ldrcc	r0, [r5], #-0
     114:	3a0e0300 	bcc	380d1c <__bss_end__+0x37746c>
     118:	390b3b0b 	stmdbcc	fp, {r0, r1, r3, r8, r9, fp, ip, sp}
     11c:	0213490b 	andseq	r4, r3, #180224	; 0x2c000
     120:	1742b717 	smlaldne	fp, r2, r7, r7
     124:	89160000 	ldmdbhi	r6, {}	; <UNPREDICTABLE>
     128:	11010182 	smlabbne	r1, r2, r1, r0
     12c:	01133101 	tsteq	r3, r1, lsl #2
     130:	17000013 	smladne	r0, r3, r0, r0
     134:	0001828a 	andeq	r8, r1, sl, lsl #5
     138:	42911802 	addsmi	r1, r1, #131072	; 0x20000
     13c:	18000018 	stmdane	r0, {r3, r4}
     140:	01018289 	smlabbeq	r1, r9, r2, r8
     144:	13310111 	teqne	r1, #1073741828	; 0x40000004
     148:	89190000 	ldmdbhi	r9, {}	; <UNPREDICTABLE>
     14c:	11000182 	smlabbne	r0, r2, r1, r0
     150:	00133101 	andseq	r3, r3, r1, lsl #2
     154:	01011a00 	tsteq	r1, r0, lsl #20
     158:	13011349 	movwne	r1, #4937	; 0x1349
     15c:	211b0000 	tstcs	fp, r0
     160:	2f134900 	svccs	0x00134900
     164:	1c00000b 	stcne	0, cr0, [r0], {11}
     168:	0e03012e 	adfeqsp	f0, f3, #0.5
     16c:	0b3b0b3a 	bleq	ec2e5c <__bss_end__+0xeb95ac>
     170:	19270b39 	stmdbne	r7!, {r0, r3, r4, r5, r8, r9, fp}
     174:	01111349 	tsteq	r1, r9, asr #6
     178:	18400612 	stmdane	r0, {r1, r4, r9, sl}^
     17c:	01194297 			; <UNDEFINED> instruction: 0x01194297
     180:	1d000013 	stcne	0, cr0, [r0, #-76]	; 0xffffffb4
     184:	0e030005 	cdpeq	0, 0, cr0, cr3, cr5, {0}
     188:	0b3b0b3a 	bleq	ec2e78 <__bss_end__+0xeb95c8>
     18c:	13490b39 	movtne	r0, #39737	; 0x9b39
     190:	42b71702 	adcsmi	r1, r7, #524288	; 0x80000
     194:	1e000017 	mcrne	0, 0, r0, cr0, cr7, {0}
     198:	08030005 	stmdaeq	r3, {r0, r2}
     19c:	0b3b0b3a 	bleq	ec2e8c <__bss_end__+0xeb95dc>
     1a0:	13490b39 	movtne	r0, #39737	; 0x9b39
     1a4:	42b71702 	adcsmi	r1, r7, #524288	; 0x80000
     1a8:	1f000017 	svcne	0x00000017
     1ac:	1755010b 	ldrbne	r0, [r5, -fp, lsl #2]
     1b0:	00001301 	andeq	r1, r0, r1, lsl #6
     1b4:	55010b20 	strpl	r0, [r1, #-2848]	; 0xfffff4e0
     1b8:	21000017 	tstcs	r0, r7, lsl r0
     1bc:	1331011d 	teqne	r1, #1073741831	; 0x40000007
     1c0:	42b80152 	adcsmi	r0, r8, #-2147483628	; 0x80000014
     1c4:	1201110b 	andne	r1, r1, #-1073741822	; 0xc0000002
     1c8:	590b5806 	stmdbpl	fp, {r1, r2, fp, ip, lr}
     1cc:	000b570b 	andeq	r5, fp, fp, lsl #14
     1d0:	00052200 	andeq	r2, r5, r0, lsl #4
     1d4:	17021331 	smladxne	r2, r1, r3, r1
     1d8:	001742b7 			; <UNDEFINED> instruction: 0x001742b7
     1dc:	00342300 	eorseq	r2, r4, r0, lsl #6
     1e0:	17021331 	smladxne	r2, r1, r3, r1
     1e4:	001742b7 			; <UNDEFINED> instruction: 0x001742b7
     1e8:	010b2400 	tsteq	fp, r0, lsl #8
     1ec:	06120111 			; <UNDEFINED> instruction: 0x06120111
     1f0:	0f250000 	svceq	0x00250000
     1f4:	000b0b00 	andeq	r0, fp, r0, lsl #22
     1f8:	012e2600 			; <UNDEFINED> instruction: 0x012e2600
     1fc:	0b3a0e03 	bleq	e83a10 <__bss_end__+0xe7a160>
     200:	0b390b3b 	bleq	e42ef4 <__bss_end__+0xe39644>
     204:	13491927 	movtne	r1, #39207	; 0x9927
     208:	13010b20 	movwne	r0, #6944	; 0x1b20
     20c:	05270000 	streq	r0, [r7, #-0]!
     210:	3a080300 	bcc	200e18 <__bss_end__+0x1f7568>
     214:	390b3b0b 	stmdbcc	fp, {r0, r1, r3, r8, r9, fp, ip, sp}
     218:	0013490b 	andseq	r4, r3, fp, lsl #18
     21c:	00052800 	andeq	r2, r5, r0, lsl #16
     220:	0b3a0e03 	bleq	e83a34 <__bss_end__+0xe7a184>
     224:	0b390b3b 	bleq	e42f18 <__bss_end__+0xe39668>
     228:	00001349 	andeq	r1, r0, r9, asr #6
     22c:	03003429 	movweq	r3, #1065	; 0x429
     230:	3b0b3a08 	blcc	2cea58 <__bss_end__+0x2c51a8>
     234:	490b390b 	stmdbmi	fp, {r0, r1, r3, r8, fp, ip, sp}
     238:	2a000013 	bcs	28c <__code_start__-0x7d74>
     23c:	193f002e 	ldmdbne	pc!, {r1, r2, r3, r5}	; <UNPREDICTABLE>
     240:	0b3a0e03 	bleq	e83a54 <__bss_end__+0xe7a1a4>
     244:	0b390b3b 	bleq	e42f38 <__bss_end__+0xe39688>
     248:	01111927 	tsteq	r1, r7, lsr #18
     24c:	18400612 	stmdane	r0, {r1, r4, r9, sl}^
     250:	00194296 	mulseq	r9, r6, r2
     254:	012e2b00 			; <UNDEFINED> instruction: 0x012e2b00
     258:	0e03193f 			; <UNDEFINED> instruction: 0x0e03193f
     25c:	0b3b0b3a 	bleq	ec2f4c <__bss_end__+0xeb969c>
     260:	19270b39 	stmdbne	r7!, {r0, r3, r4, r5, r8, r9, fp}
     264:	06120111 			; <UNDEFINED> instruction: 0x06120111
     268:	42961840 	addsmi	r1, r6, #64, 16	; 0x400000
     26c:	00130119 	andseq	r0, r3, r9, lsl r1
     270:	002e2c00 	eoreq	r2, lr, r0, lsl #24
     274:	0e03193f 			; <UNDEFINED> instruction: 0x0e03193f
     278:	0b3b0b3a 	bleq	ec2f68 <__bss_end__+0xeb96b8>
     27c:	01110b39 	tsteq	r1, r9, lsr fp
     280:	18400612 	stmdane	r0, {r1, r4, r9, sl}^
     284:	00194297 	mulseq	r9, r7, r2
     288:	002e2d00 	eoreq	r2, lr, r0, lsl #26
     28c:	193c193f 	ldmdbne	ip!, {r0, r1, r2, r3, r4, r5, r8, fp, ip}
     290:	0e030e6e 	cdpeq	14, 0, cr0, cr3, cr14, {3}
     294:	0b3b0b3a 	bleq	ec2f84 <__bss_end__+0xeb96d4>
     298:	00000b39 	andeq	r0, r0, r9, lsr fp
     29c:	01110100 	tsteq	r1, r0, lsl #2
     2a0:	0b130e25 	bleq	4c3b3c <__bss_end__+0x4ba28c>
     2a4:	0e1b0e03 	cdpeq	14, 1, cr0, cr11, cr3, {0}
     2a8:	06120111 			; <UNDEFINED> instruction: 0x06120111
     2ac:	00001710 	andeq	r1, r0, r0, lsl r7
     2b0:	03001602 	movweq	r1, #1538	; 0x602
     2b4:	3b0b3a0e 	blcc	2ceaf4 <__bss_end__+0x2c5244>
     2b8:	490b390b 	stmdbmi	fp, {r0, r1, r3, r8, fp, ip, sp}
     2bc:	03000013 	movweq	r0, #19
     2c0:	0e030113 	mcreq	1, 0, r0, cr3, cr3, {0}
     2c4:	0b3a0b0b 	bleq	e82ef8 <__bss_end__+0xe79648>
     2c8:	13010b3b 	movwne	r0, #6971	; 0x1b3b
     2cc:	0d040000 	stceq	0, cr0, [r4, #-0]
     2d0:	490e0300 	stmdbmi	lr, {r8, r9}
     2d4:	340b3813 	strcc	r3, [fp], #-2067	; 0xfffff7ed
     2d8:	05000019 	streq	r0, [r0, #-25]	; 0xffffffe7
     2dc:	0b0b000f 	bleq	2c0320 <__bss_end__+0x2b6a70>
     2e0:	24060000 	strcs	r0, [r6], #-0
     2e4:	3e0b0b00 	vmlacc.f64	d0, d11, d0
     2e8:	0008030b 	andeq	r0, r8, fp, lsl #6
     2ec:	00240700 	eoreq	r0, r4, r0, lsl #14
     2f0:	0b3e0b0b 	bleq	f82f24 <__bss_end__+0xf79674>
     2f4:	00000e03 	andeq	r0, r0, r3, lsl #28
     2f8:	27011508 	strcs	r1, [r1, -r8, lsl #10]
     2fc:	01134919 	tsteq	r3, r9, lsl r9
     300:	09000013 	stmdbeq	r0, {r0, r1, r4}
     304:	13490005 	movtne	r0, #36869	; 0x9005
     308:	340a0000 	strcc	r0, [sl], #-0
     30c:	3a0e0300 	bcc	380f14 <__bss_end__+0x377664>
     310:	390b3b0b 	stmdbcc	fp, {r0, r1, r3, r8, r9, fp, ip, sp}
     314:	3f13490b 	svccc	0x0013490b
     318:	00193c19 	andseq	r3, r9, r9, lsl ip
     31c:	000f0b00 	andeq	r0, pc, r0, lsl #22
     320:	13490b0b 	movtne	r0, #39691	; 0x9b0b
     324:	260c0000 	strcs	r0, [ip], -r0
     328:	00134900 	andseq	r4, r3, r0, lsl #18
     32c:	012e0d00 			; <UNDEFINED> instruction: 0x012e0d00
     330:	0e03193f 			; <UNDEFINED> instruction: 0x0e03193f
     334:	0b3b0b3a 	bleq	ec3024 <__bss_end__+0xeb9774>
     338:	19270b39 	stmdbne	r7!, {r0, r3, r4, r5, r8, r9, fp}
     33c:	01111349 	tsteq	r1, r9, asr #6
     340:	18400612 	stmdane	r0, {r1, r4, r9, sl}^
     344:	01194297 			; <UNDEFINED> instruction: 0x01194297
     348:	0e000013 	mcreq	0, 0, r0, cr0, cr3, {0}
     34c:	08030005 	stmdaeq	r3, {r0, r2}
     350:	0b3b0b3a 	bleq	ec3040 <__bss_end__+0xeb9790>
     354:	13490b39 	movtne	r0, #39737	; 0x9b39
     358:	00001802 	andeq	r1, r0, r2, lsl #16
     35c:	0000180f 	andeq	r1, r0, pc, lsl #16
     360:	00341000 	eorseq	r1, r4, r0
     364:	0b3a0803 	bleq	e82378 <__bss_end__+0xe78ac8>
     368:	0b390b3b 	bleq	e4305c <__bss_end__+0xe397ac>
     36c:	18021349 	stmdane	r2, {r0, r3, r6, r8, r9, ip}
     370:	34110000 	ldrcc	r0, [r1], #-0
     374:	3a0e0300 	bcc	380f7c <__bss_end__+0x3776cc>
     378:	390b3b0b 	stmdbcc	fp, {r0, r1, r3, r8, r9, fp, ip, sp}
     37c:	0213490b 	andseq	r4, r3, #180224	; 0x2c000
     380:	12000018 	andne	r0, r0, #24, 0
     384:	08030034 	stmdaeq	r3, {r2, r4, r5}
     388:	0b3b0b3a 	bleq	ec3078 <__bss_end__+0xeb97c8>
     38c:	13490b39 	movtne	r0, #39737	; 0x9b39
     390:	42b71702 	adcsmi	r1, r7, #524288	; 0x80000
     394:	13000017 	movwne	r0, #23
     398:	01018289 	smlabbeq	r1, r9, r2, r8
     39c:	13310111 	teqne	r1, #1073741828	; 0x40000004
     3a0:	00001301 	andeq	r1, r0, r1, lsl #6
     3a4:	01828a14 	orreq	r8, r2, r4, lsl sl
     3a8:	91180200 	tstls	r8, r0, lsl #4
     3ac:	00001842 	andeq	r1, r0, r2, asr #16
     3b0:	01828915 	orreq	r8, r2, r5, lsl r9
     3b4:	00011101 	andeq	r1, r1, r1, lsl #2
     3b8:	01011600 	tsteq	r1, r0, lsl #12
     3bc:	13011349 	movwne	r1, #4937	; 0x1349
     3c0:	21170000 	tstcs	r7, r0
     3c4:	2f134900 	svccs	0x00134900
     3c8:	18000005 	stmdane	r0, {r0, r2}
     3cc:	193f002e 	ldmdbne	pc!, {r1, r2, r3, r5}	; <UNPREDICTABLE>
     3d0:	0e6e193c 			; <UNDEFINED> instruction: 0x0e6e193c
     3d4:	0b3a0e03 	bleq	e83be8 <__bss_end__+0xe7a338>
     3d8:	0b390b3b 	bleq	e430cc <__bss_end__+0xe3981c>
     3dc:	01000000 	mrseq	r0, (UNDEF: 0)
     3e0:	0e250111 	mcreq	1, 1, r0, cr5, cr1, {0}
     3e4:	0e030b13 	vmoveq.32	d3[0], r0
     3e8:	01110e1b 	tsteq	r1, fp, lsl lr
     3ec:	17100612 			; <UNDEFINED> instruction: 0x17100612
     3f0:	24020000 	strcs	r0, [r2], #-0
     3f4:	3e0b0b00 	vmlacc.f64	d0, d11, d0
     3f8:	0008030b 	andeq	r0, r8, fp, lsl #6
     3fc:	00240300 	eoreq	r0, r4, r0, lsl #6
     400:	0b3e0b0b 	bleq	f83034 <__bss_end__+0xf79784>
     404:	00000e03 	andeq	r0, r0, r3, lsl #28
     408:	27011504 	strcs	r1, [r1, -r4, lsl #10]
     40c:	01134919 	tsteq	r3, r9, lsl r9
     410:	05000013 	streq	r0, [r0, #-19]	; 0xffffffed
     414:	13490005 	movtne	r0, #36869	; 0x9005
     418:	34060000 	strcc	r0, [r6], #-0
     41c:	3a0e0300 	bcc	381024 <__bss_end__+0x377774>
     420:	390b3b0b 	stmdbcc	fp, {r0, r1, r3, r8, r9, fp, ip, sp}
     424:	3f13490b 	svccc	0x0013490b
     428:	00193c19 	andseq	r3, r9, r9, lsl ip
     42c:	000f0700 	andeq	r0, pc, r0, lsl #14
     430:	13490b0b 	movtne	r0, #39691	; 0x9b0b
     434:	26080000 	strcs	r0, [r8], -r0
     438:	00134900 	andseq	r4, r3, r0, lsl #18
     43c:	00340900 	eorseq	r0, r4, r0, lsl #18
     440:	0b3a1347 	bleq	e85164 <__bss_end__+0xe7b8b4>
     444:	0b390b3b 	bleq	e43138 <__bss_end__+0xe39888>
     448:	00001802 	andeq	r1, r0, r2, lsl #16
     44c:	3f012e0a 	svccc	0x00012e0a
     450:	3a0e0319 	bcc	3810bc <__bss_end__+0x37780c>
     454:	390b3b0b 	stmdbcc	fp, {r0, r1, r3, r8, r9, fp, ip, sp}
     458:	1119270b 	tstne	r9, fp, lsl #14
     45c:	40061201 	andmi	r1, r6, r1, lsl #4
     460:	19429718 	stmdbne	r2, {r3, r4, r8, r9, sl, ip, pc}^
     464:	00001301 	andeq	r1, r0, r1, lsl #6
     468:	0300050b 	movweq	r0, #1291	; 0x50b
     46c:	3b0b3a08 	blcc	2cec94 <__bss_end__+0x2c53e4>
     470:	490b390b 	stmdbmi	fp, {r0, r1, r3, r8, fp, ip, sp}
     474:	00180213 	andseq	r0, r8, r3, lsl r2
     478:	002e0c00 	eoreq	r0, lr, r0, lsl #24
     47c:	0e03193f 			; <UNDEFINED> instruction: 0x0e03193f
     480:	0b3b0b3a 	bleq	ec3170 <__bss_end__+0xeb98c0>
     484:	19270b39 	stmdbne	r7!, {r0, r3, r4, r5, r8, r9, fp}
     488:	06120111 			; <UNDEFINED> instruction: 0x06120111
     48c:	42971840 	addsmi	r1, r7, #64, 16	; 0x400000
     490:	0d000019 	stceq	0, cr0, [r0, #-100]	; 0xffffff9c
     494:	0e03012e 	adfeqsp	f0, f3, #0.5
     498:	0b3b0b3a 	bleq	ec3188 <__bss_end__+0xeb98d8>
     49c:	19270b39 	stmdbne	r7!, {r0, r3, r4, r5, r8, r9, fp}
     4a0:	01111349 	tsteq	r1, r9, asr #6
     4a4:	18400612 	stmdane	r0, {r1, r4, r9, sl}^
     4a8:	01194297 			; <UNDEFINED> instruction: 0x01194297
     4ac:	0e000013 	mcreq	0, 0, r0, cr0, cr3, {0}
     4b0:	08030005 	stmdaeq	r3, {r0, r2}
     4b4:	0b3b0b3a 	bleq	ec31a4 <__bss_end__+0xeb98f4>
     4b8:	13490b39 	movtne	r0, #39737	; 0x9b39
     4bc:	42b71702 	adcsmi	r1, r7, #524288	; 0x80000
     4c0:	0f000017 	svceq	0x00000017
     4c4:	01018289 	smlabbeq	r1, r9, r2, r8
     4c8:	13310111 	teqne	r1, #1073741828	; 0x40000004
     4cc:	8a100000 	bhi	4004d4 <__bss_end__+0x3f6c24>
     4d0:	02000182 	andeq	r0, r0, #-2147483616	; 0x80000020
     4d4:	18429118 	stmdane	r2, {r3, r4, r8, ip, pc}^
     4d8:	2e110000 	cdpcs	0, 1, cr0, cr1, cr0, {0}
     4dc:	3c193f00 	ldccc	15, cr3, [r9], {-0}
     4e0:	030e6e19 	movweq	r6, #60953	; 0xee19
     4e4:	3b0b3a0e 	blcc	2ced24 <__bss_end__+0x2c5474>
     4e8:	000b390b 	andeq	r3, fp, fp, lsl #18
     4ec:	11010000 	mrsne	r0, (UNDEF: 1)
     4f0:	130e2501 	movwne	r2, #58625	; 0xe501
     4f4:	1b0e030b 	blne	381128 <__bss_end__+0x377878>
     4f8:	1201110e 	andne	r1, r1, #-2147483645	; 0x80000003
     4fc:	00171006 	andseq	r1, r7, r6
     500:	00240200 	eoreq	r0, r4, r0, lsl #4
     504:	0b3e0b0b 	bleq	f83138 <__bss_end__+0xf79888>
     508:	00000803 	andeq	r0, r0, r3, lsl #16
     50c:	0b002403 	bleq	9520 <buf.3948+0x70>
     510:	030b3e0b 	movweq	r3, #48651	; 0xbe0b
     514:	0400000e 	streq	r0, [r0], #-14
     518:	19270115 	stmdbne	r7!, {r0, r2, r4, r8}
     51c:	13011349 	movwne	r1, #4937	; 0x1349
     520:	05050000 	streq	r0, [r5, #-0]
     524:	00134900 	andseq	r4, r3, r0, lsl #18
     528:	00340600 	eorseq	r0, r4, r0, lsl #12
     52c:	0b3a0e03 	bleq	e83d40 <__bss_end__+0xe7a490>
     530:	0b390b3b 	bleq	e43224 <__bss_end__+0xe39974>
     534:	193f1349 	ldmdbne	pc!, {r0, r3, r6, r8, r9, ip}	; <UNPREDICTABLE>
     538:	0000193c 	andeq	r1, r0, ip, lsr r9
     53c:	0b000f07 	bleq	4160 <__code_start__-0x3ea0>
     540:	0013490b 	andseq	r4, r3, fp, lsl #18
     544:	00260800 	eoreq	r0, r6, r0, lsl #16
     548:	00001349 	andeq	r1, r0, r9, asr #6
     54c:	47003409 	strmi	r3, [r0, -r9, lsl #8]
     550:	3b0b3a13 	blcc	2ceda4 <__bss_end__+0x2c54f4>
     554:	020b390b 	andeq	r3, fp, #180224	; 0x2c000
     558:	0a000018 	beq	5c0 <__code_start__-0x7a40>
     55c:	193f012e 	ldmdbne	pc!, {r1, r2, r3, r5, r8}	; <UNPREDICTABLE>
     560:	0b3a0e03 	bleq	e83d74 <__bss_end__+0xe7a4c4>
     564:	0b390b3b 	bleq	e43258 <__bss_end__+0xe399a8>
     568:	13491927 	movtne	r1, #39207	; 0x9927
     56c:	06120111 			; <UNDEFINED> instruction: 0x06120111
     570:	42961840 	addsmi	r1, r6, #64, 16	; 0x400000
     574:	0b000019 	bleq	5e0 <__code_start__-0x7a20>
     578:	08030005 	stmdaeq	r3, {r0, r2}
     57c:	0b3b0b3a 	bleq	ec326c <__bss_end__+0xeb99bc>
     580:	13490b39 	movtne	r0, #39737	; 0x9b39
     584:	42b71702 	adcsmi	r1, r7, #524288	; 0x80000
     588:	00000017 	andeq	r0, r0, r7, lsl r0
     58c:	25011101 	strcs	r1, [r1, #-257]	; 0xfffffeff
     590:	030b130e 	movweq	r1, #45838	; 0xb30e
     594:	110e1b0e 	tstne	lr, lr, lsl #22
     598:	10061201 	andne	r1, r6, r1, lsl #4
     59c:	02000017 	andeq	r0, r0, #23, 0
     5a0:	0b0b0024 	bleq	2c0638 <__bss_end__+0x2b6d88>
     5a4:	08030b3e 	stmdaeq	r3, {r1, r2, r3, r4, r5, r8, r9, fp}
     5a8:	24030000 	strcs	r0, [r3], #-0
     5ac:	3e0b0b00 	vmlacc.f64	d0, d11, d0
     5b0:	000e030b 	andeq	r0, lr, fp, lsl #6
     5b4:	00160400 	andseq	r0, r6, r0, lsl #8
     5b8:	0b3a0e03 	bleq	e83dcc <__bss_end__+0xe7a51c>
     5bc:	0b390b3b 	bleq	e432b0 <__bss_end__+0xe39a00>
     5c0:	00001349 	andeq	r1, r0, r9, asr #6
     5c4:	27011505 	strcs	r1, [r1, -r5, lsl #10]
     5c8:	01134919 	tsteq	r3, r9, lsl r9
     5cc:	06000013 			; <UNDEFINED> instruction: 0x06000013
     5d0:	13490005 	movtne	r0, #36869	; 0x9005
     5d4:	34070000 	strcc	r0, [r7], #-0
     5d8:	3a0e0300 	bcc	3811e0 <__bss_end__+0x377930>
     5dc:	390b3b0b 	stmdbcc	fp, {r0, r1, r3, r8, r9, fp, ip, sp}
     5e0:	3f13490b 	svccc	0x0013490b
     5e4:	00193c19 	andseq	r3, r9, r9, lsl ip
     5e8:	000f0800 	andeq	r0, pc, r0, lsl #16
     5ec:	13490b0b 	movtne	r0, #39691	; 0x9b0b
     5f0:	26090000 	strcs	r0, [r9], -r0
     5f4:	00134900 	andseq	r4, r3, r0, lsl #18
     5f8:	01130a00 	tsteq	r3, r0, lsl #20
     5fc:	0b0b0e03 	bleq	2c3e10 <__bss_end__+0x2ba560>
     600:	0b3b0b3a 	bleq	ec32f0 <__bss_end__+0xeb9a40>
     604:	00001301 	andeq	r1, r0, r1, lsl #6
     608:	03000d0b 	movweq	r0, #3339	; 0xd0b
     60c:	3813490e 	ldmdacc	r3, {r1, r2, r3, r8, fp, lr}
     610:	0019340b 	andseq	r3, r9, fp, lsl #8
     614:	000f0c00 	andeq	r0, pc, r0, lsl #24
     618:	00000b0b 	andeq	r0, r0, fp, lsl #22
     61c:	3f012e0d 	svccc	0x00012e0d
     620:	3a0e0319 	bcc	38128c <__bss_end__+0x3779dc>
     624:	390b3b0b 	stmdbcc	fp, {r0, r1, r3, r8, r9, fp, ip, sp}
     628:	4919270b 	ldmdbmi	r9, {r0, r1, r3, r8, r9, sl, sp}
     62c:	12011113 	andne	r1, r1, #-1073741820	; 0xc0000004
     630:	97184006 	ldrls	r4, [r8, -r6]
     634:	13011942 	movwne	r1, #6466	; 0x1942
     638:	050e0000 	streq	r0, [lr, #-0]
     63c:	3a080300 	bcc	201244 <__bss_end__+0x1f7994>
     640:	390b3b0b 	stmdbcc	fp, {r0, r1, r3, r8, r9, fp, ip, sp}
     644:	0213490b 	andseq	r4, r3, #180224	; 0x2c000
     648:	1742b717 	smlaldne	fp, r2, r7, r7
     64c:	050f0000 	streq	r0, [pc, #-0]	; 654 <__code_start__-0x79ac>
     650:	3a0e0300 	bcc	381258 <__bss_end__+0x3779a8>
     654:	390b3b0b 	stmdbcc	fp, {r0, r1, r3, r8, r9, fp, ip, sp}
     658:	0213490b 	andseq	r4, r3, #180224	; 0x2c000
     65c:	10000018 	andne	r0, r0, r8, lsl r0
     660:	08030034 	stmdaeq	r3, {r2, r4, r5}
     664:	0b3b0b3a 	bleq	ec3354 <__bss_end__+0xeb9aa4>
     668:	13490b39 	movtne	r0, #39737	; 0x9b39
     66c:	42b71702 	adcsmi	r1, r7, #524288	; 0x80000
     670:	11000017 	tstne	r0, r7, lsl r0
     674:	0e030034 	mcreq	0, 0, r0, cr3, cr4, {1}
     678:	0b3b0b3a 	bleq	ec3368 <__bss_end__+0xeb9ab8>
     67c:	13490b39 	movtne	r0, #39737	; 0x9b39
     680:	42b71702 	adcsmi	r1, r7, #524288	; 0x80000
     684:	12000017 	andne	r0, r0, #23, 0
     688:	0e030034 	mcreq	0, 0, r0, cr3, cr4, {1}
     68c:	19341349 	ldmdbne	r4!, {r0, r3, r6, r8, r9, ip}
     690:	00001802 	andeq	r1, r0, r2, lsl #16
     694:	11010b13 	tstne	r1, r3, lsl fp
     698:	00061201 	andeq	r1, r6, r1, lsl #4
     69c:	00341400 	eorseq	r1, r4, r0, lsl #8
     6a0:	0b3a0803 	bleq	e826b4 <__bss_end__+0xe78e04>
     6a4:	0b390b3b 	bleq	e43398 <__bss_end__+0xe39ae8>
     6a8:	18021349 	stmdane	r2, {r0, r3, r6, r8, r9, ip}
     6ac:	34150000 	ldrcc	r0, [r5], #-0
     6b0:	3a0e0300 	bcc	3812b8 <__bss_end__+0x377a08>
     6b4:	390b3b0b 	stmdbcc	fp, {r0, r1, r3, r8, r9, fp, ip, sp}
     6b8:	0213490b 	andseq	r4, r3, #180224	; 0x2c000
     6bc:	16000018 			; <UNDEFINED> instruction: 0x16000018
     6c0:	0111010b 	tsteq	r1, fp, lsl #2
     6c4:	13010612 	movwne	r0, #5650	; 0x1612
     6c8:	34170000 	ldrcc	r0, [r7], #-0
     6cc:	3a080300 	bcc	2012d4 <__bss_end__+0x1f7a24>
     6d0:	390b3b0b 	stmdbcc	fp, {r0, r1, r3, r8, r9, fp, ip, sp}
     6d4:	0013490b 	andseq	r4, r3, fp, lsl #18
     6d8:	82891800 	addhi	r1, r9, #0, 16
     6dc:	01110101 	tsteq	r1, r1, lsl #2
     6e0:	13011331 	movwne	r1, #4913	; 0x1331
     6e4:	8a190000 	bhi	6406ec <__bss_end__+0x636e3c>
     6e8:	02000182 	andeq	r0, r0, #-2147483616	; 0x80000020
     6ec:	18429118 	stmdane	r2, {r3, r4, r8, ip, pc}^
     6f0:	891a0000 	ldmdbhi	sl, {}	; <UNPREDICTABLE>
     6f4:	11000182 	smlabbne	r0, r2, r1, r0
     6f8:	00133101 	andseq	r3, r3, r1, lsl #2
     6fc:	82891b00 	addhi	r1, r9, #0, 22
     700:	01110101 	tsteq	r1, r1, lsl #2
     704:	00001301 	andeq	r1, r0, r1, lsl #6
     708:	4901011c 	stmdbmi	r1, {r2, r3, r4, r8}
     70c:	00130113 	andseq	r0, r3, r3, lsl r1
     710:	00211d00 	eoreq	r1, r1, r0, lsl #26
     714:	0b2f1349 	bleq	bc5440 <__bss_end__+0xbbbb90>
     718:	2e1e0000 	cdpcs	0, 1, cr0, cr14, cr0, {0}
     71c:	3a0e0301 	bcc	381328 <__bss_end__+0x377a78>
     720:	390b3b0b 	stmdbcc	fp, {r0, r1, r3, r8, r9, fp, ip, sp}
     724:	4919270b 	ldmdbmi	r9, {r0, r1, r3, r8, r9, sl, sp}
     728:	12011113 	andne	r1, r1, #-1073741820	; 0xc0000004
     72c:	97184006 	ldrls	r4, [r8, -r6]
     730:	13011942 	movwne	r1, #6466	; 0x1942
     734:	051f0000 	ldreq	r0, [pc, #-0]	; 73c <__code_start__-0x78c4>
     738:	3a0e0300 	bcc	381340 <__bss_end__+0x377a90>
     73c:	390b3b0b 	stmdbcc	fp, {r0, r1, r3, r8, r9, fp, ip, sp}
     740:	0213490b 	andseq	r4, r3, #180224	; 0x2c000
     744:	1742b717 	smlaldne	fp, r2, r7, r7
     748:	2e200000 	cdpcs	0, 2, cr0, cr0, cr0, {0}
     74c:	3a080301 	bcc	201358 <__bss_end__+0x1f7aa8>
     750:	390b3b0b 	stmdbcc	fp, {r0, r1, r3, r8, r9, fp, ip, sp}
     754:	4919270b 	ldmdbmi	r9, {r0, r1, r3, r8, r9, sl, sp}
     758:	12011113 	andne	r1, r1, #-1073741820	; 0xc0000004
     75c:	97184006 	ldrls	r4, [r8, -r6]
     760:	13011942 	movwne	r1, #6466	; 0x1942
     764:	2e210000 	cdpcs	0, 2, cr0, cr1, cr0, {0}
     768:	03193f01 	tsteq	r9, #1, 30
     76c:	3b0b3a0e 	blcc	2cefac <__bss_end__+0x2c56fc>
     770:	270b390b 	strcs	r3, [fp, -fp, lsl #18]
     774:	12011119 	andne	r1, r1, #1073741830	; 0x40000006
     778:	97184006 	ldrls	r4, [r8, -r6]
     77c:	13011942 	movwne	r1, #6466	; 0x1942
     780:	2e220000 	cdpcs	0, 2, cr0, cr2, cr0, {0}
     784:	3c193f00 	ldccc	15, cr3, [r9], {-0}
     788:	030e6e19 	movweq	r6, #60953	; 0xee19
     78c:	3b0b3a0e 	blcc	2cefcc <__bss_end__+0x2c571c>
     790:	000b390b 	andeq	r3, fp, fp, lsl #18
     794:	11010000 	mrsne	r0, (UNDEF: 1)
     798:	130e2501 	movwne	r2, #58625	; 0xe501
     79c:	1b0e030b 	blne	3813d0 <__bss_end__+0x377b20>
     7a0:	1201110e 	andne	r1, r1, #-2147483645	; 0x80000003
     7a4:	00171006 	andseq	r1, r7, r6
     7a8:	00240200 	eoreq	r0, r4, r0, lsl #4
     7ac:	0b3e0b0b 	bleq	f833e0 <__bss_end__+0xf79b30>
     7b0:	00000803 	andeq	r0, r0, r3, lsl #16
     7b4:	0b002403 	bleq	97c8 <buf.3948+0x318>
     7b8:	030b3e0b 	movweq	r3, #48651	; 0xbe0b
     7bc:	0400000e 	streq	r0, [r0], #-14
     7c0:	19270115 	stmdbne	r7!, {r0, r2, r4, r8}
     7c4:	13011349 	movwne	r1, #4937	; 0x1349
     7c8:	05050000 	streq	r0, [r5, #-0]
     7cc:	00134900 	andseq	r4, r3, r0, lsl #18
     7d0:	00340600 	eorseq	r0, r4, r0, lsl #12
     7d4:	0b3a0e03 	bleq	e83fe8 <__bss_end__+0xe7a738>
     7d8:	0b390b3b 	bleq	e434cc <__bss_end__+0xe39c1c>
     7dc:	193f1349 	ldmdbne	pc!, {r0, r3, r6, r8, r9, ip}	; <UNPREDICTABLE>
     7e0:	0000193c 	andeq	r1, r0, ip, lsr r9
     7e4:	0b000f07 	bleq	4408 <__code_start__-0x3bf8>
     7e8:	0013490b 	andseq	r4, r3, fp, lsl #18
     7ec:	00260800 	eoreq	r0, r6, r0, lsl #16
     7f0:	00001349 	andeq	r1, r0, r9, asr #6
     7f4:	3f012e09 	svccc	0x00012e09
     7f8:	3a0e0319 	bcc	381464 <__bss_end__+0x377bb4>
     7fc:	390b3b0b 	stmdbcc	fp, {r0, r1, r3, r8, r9, fp, ip, sp}
     800:	8719270b 	ldrhi	r2, [r9, -fp, lsl #14]
     804:	01111901 	tsteq	r1, r1, lsl #18
     808:	18400612 	stmdane	r0, {r1, r4, r9, sl}^
     80c:	01194297 			; <UNDEFINED> instruction: 0x01194297
     810:	0a000013 	beq	864 <__code_start__-0x779c>
     814:	01018289 	smlabbeq	r1, r9, r2, r8
     818:	13010111 	movwne	r0, #4369	; 0x1111
     81c:	8a0b0000 	bhi	2c0824 <__bss_end__+0x2b6f74>
     820:	02000182 	andeq	r0, r0, #-2147483616	; 0x80000020
     824:	18429118 	stmdane	r2, {r3, r4, r8, ip, pc}^
     828:	890c0000 	stmdbhi	ip, {}	; <UNPREDICTABLE>
     82c:	11000182 	smlabbne	r0, r2, r1, r0
     830:	00133101 	andseq	r3, r3, r1, lsl #2
     834:	82890d00 	addhi	r0, r9, #0, 26
     838:	01110101 	tsteq	r1, r1, lsl #2
     83c:	13011331 	movwne	r1, #4913	; 0x1331
     840:	2e0e0000 	cdpcs	0, 0, cr0, cr14, cr0, {0}
     844:	3c193f00 	ldccc	15, cr3, [r9], {-0}
     848:	030e6e19 	movweq	r6, #60953	; 0xee19
     84c:	3b0b3a0e 	blcc	2cf08c <__bss_end__+0x2c57dc>
     850:	000b390b 	andeq	r3, fp, fp, lsl #18
     854:	11010000 	mrsne	r0, (UNDEF: 1)
     858:	130e2501 	movwne	r2, #58625	; 0xe501
     85c:	1b0e030b 	blne	381490 <__bss_end__+0x377be0>
     860:	1201110e 	andne	r1, r1, #-2147483645	; 0x80000003
     864:	00171006 	andseq	r1, r7, r6
     868:	00240200 	eoreq	r0, r4, r0, lsl #4
     86c:	0b3e0b0b 	bleq	f834a0 <__bss_end__+0xf79bf0>
     870:	00000803 	andeq	r0, r0, r3, lsl #16
     874:	0b002403 	bleq	9888 <buf.3948+0x3d8>
     878:	030b3e0b 	movweq	r3, #48651	; 0xbe0b
     87c:	0400000e 	streq	r0, [r0], #-14
     880:	19270115 	stmdbne	r7!, {r0, r2, r4, r8}
     884:	13011349 	movwne	r1, #4937	; 0x1349
     888:	05050000 	streq	r0, [r5, #-0]
     88c:	00134900 	andseq	r4, r3, r0, lsl #18
     890:	00340600 	eorseq	r0, r4, r0, lsl #12
     894:	0b3a0e03 	bleq	e840a8 <__bss_end__+0xe7a7f8>
     898:	0b390b3b 	bleq	e4358c <__bss_end__+0xe39cdc>
     89c:	193f1349 	ldmdbne	pc!, {r0, r3, r6, r8, r9, ip}	; <UNPREDICTABLE>
     8a0:	0000193c 	andeq	r1, r0, ip, lsr r9
     8a4:	0b000f07 	bleq	44c8 <__code_start__-0x3b38>
     8a8:	0013490b 	andseq	r4, r3, fp, lsl #18
     8ac:	00260800 	eoreq	r0, r6, r0, lsl #16
     8b0:	00001349 	andeq	r1, r0, r9, asr #6
     8b4:	3f012e09 	svccc	0x00012e09
     8b8:	3a0e0319 	bcc	381524 <__bss_end__+0x377c74>
     8bc:	390b3b0b 	stmdbcc	fp, {r0, r1, r3, r8, r9, fp, ip, sp}
     8c0:	1201110b 	andne	r1, r1, #-1073741822	; 0xc0000002
     8c4:	97184006 	ldrls	r4, [r8, -r6]
     8c8:	13011942 	movwne	r1, #6466	; 0x1942
     8cc:	2e0a0000 	cdpcs	0, 0, cr0, cr10, cr0, {0}
     8d0:	03193f00 	tsteq	r9, #0, 30
     8d4:	3b0b3a0e 	blcc	2cf114 <__bss_end__+0x2c5864>
     8d8:	270b390b 	strcs	r3, [fp, -fp, lsl #18]
     8dc:	00193c19 	andseq	r3, r9, r9, lsl ip
     8e0:	00340b00 	eorseq	r0, r4, r0, lsl #22
     8e4:	0b3a0803 	bleq	e828f8 <__bss_end__+0xe79048>
     8e8:	0b390b3b 	bleq	e435dc <__bss_end__+0xe39d2c>
     8ec:	17021349 	strne	r1, [r2, -r9, asr #6]
     8f0:	001742b7 			; <UNDEFINED> instruction: 0x001742b7
     8f4:	00340c00 	eorseq	r0, r4, r0, lsl #24
     8f8:	0b3a0e03 	bleq	e8410c <__bss_end__+0xe7a85c>
     8fc:	0b390b3b 	bleq	e435f0 <__bss_end__+0xe39d40>
     900:	00001349 	andeq	r1, r0, r9, asr #6
     904:	11010b0d 	tstne	r1, sp, lsl #22
     908:	01061201 	tsteq	r6, r1, lsl #4
     90c:	0e000013 	mcreq	0, 0, r0, cr0, cr3, {0}
     910:	08030034 	stmdaeq	r3, {r2, r4, r5}
     914:	0b3b0b3a 	bleq	ec3604 <__bss_end__+0xeb9d54>
     918:	13490b39 	movtne	r0, #39737	; 0x9b39
     91c:	00000b1c 	andeq	r0, r0, ip, lsl fp
     920:	0182890f 	orreq	r8, r2, pc, lsl #18
     924:	31011100 	mrscc	r1, (UNDEF: 17)
     928:	10000013 	andne	r0, r0, r3, lsl r0
     92c:	193f002e 	ldmdbne	pc!, {r1, r2, r3, r5}	; <UNPREDICTABLE>
     930:	0e6e193c 			; <UNDEFINED> instruction: 0x0e6e193c
     934:	0b3a0e03 	bleq	e84148 <__bss_end__+0xe7a898>
     938:	0b39053b 	bleq	e41e2c <__bss_end__+0xe3857c>
     93c:	2e110000 	cdpcs	0, 1, cr0, cr1, cr0, {0}
     940:	3c193f00 	ldccc	15, cr3, [r9], {-0}
     944:	030e6e19 	movweq	r6, #60953	; 0xee19
     948:	3b0b3a0e 	blcc	2cf188 <__bss_end__+0x2c58d8>
     94c:	000b390b 	andeq	r3, fp, fp, lsl #18
     950:	11010000 	mrsne	r0, (UNDEF: 1)
     954:	130e2501 	movwne	r2, #58625	; 0xe501
     958:	1b0e030b 	blne	38158c <__bss_end__+0x377cdc>
     95c:	1201110e 	andne	r1, r1, #-2147483645	; 0x80000003
     960:	00171006 	andseq	r1, r7, r6
     964:	00240200 	eoreq	r0, r4, r0, lsl #4
     968:	0b3e0b0b 	bleq	f8359c <__bss_end__+0xf79cec>
     96c:	00000803 	andeq	r0, r0, r3, lsl #16
     970:	0b002403 	bleq	9984 <__bss_end__+0xd4>
     974:	030b3e0b 	movweq	r3, #48651	; 0xbe0b
     978:	0400000e 	streq	r0, [r0], #-14
     97c:	19270115 	stmdbne	r7!, {r0, r2, r4, r8}
     980:	13011349 	movwne	r1, #4937	; 0x1349
     984:	05050000 	streq	r0, [r5, #-0]
     988:	00134900 	andseq	r4, r3, r0, lsl #18
     98c:	00340600 	eorseq	r0, r4, r0, lsl #12
     990:	0b3a0e03 	bleq	e841a4 <__bss_end__+0xe7a8f4>
     994:	0b390b3b 	bleq	e43688 <__bss_end__+0xe39dd8>
     998:	193f1349 	ldmdbne	pc!, {r0, r3, r6, r8, r9, ip}	; <UNPREDICTABLE>
     99c:	0000193c 	andeq	r1, r0, ip, lsr r9
     9a0:	0b000f07 	bleq	45c4 <__code_start__-0x3a3c>
     9a4:	0013490b 	andseq	r4, r3, fp, lsl #18
     9a8:	00260800 	eoreq	r0, r6, r0, lsl #16
     9ac:	00001349 	andeq	r1, r0, r9, asr #6
     9b0:	3f002e09 	svccc	0x00002e09
     9b4:	3a0e0319 	bcc	381620 <__bss_end__+0x377d70>
     9b8:	390b3b0b 	stmdbcc	fp, {r0, r1, r3, r8, r9, fp, ip, sp}
     9bc:	1119270b 	tstne	r9, fp, lsl #14
     9c0:	40061201 	andmi	r1, r6, r1, lsl #4
     9c4:	19429718 	stmdbne	r2, {r3, r4, r8, r9, sl, ip, pc}^
     9c8:	01000000 	mrseq	r0, (UNDEF: 0)
     9cc:	0e250111 	mcreq	1, 1, r0, cr5, cr1, {0}
     9d0:	0e030b13 	vmoveq.32	d3[0], r0
     9d4:	17550e1b 	smmlane	r5, fp, lr, r0
     9d8:	17100111 			; <UNDEFINED> instruction: 0x17100111
     9dc:	24020000 	strcs	r0, [r2], #-0
     9e0:	3e0b0b00 	vmlacc.f64	d0, d11, d0
     9e4:	0008030b 	andeq	r0, r8, fp, lsl #6
     9e8:	00260300 	eoreq	r0, r6, r0, lsl #6
     9ec:	00001349 	andeq	r1, r0, r9, asr #6
     9f0:	0b002404 	bleq	9a08 <__bss_end__+0x158>
     9f4:	030b3e0b 	movweq	r3, #48651	; 0xbe0b
     9f8:	0500000e 	streq	r0, [r0, #-14]
     9fc:	19270115 	stmdbne	r7!, {r0, r2, r4, r8}
     a00:	13011349 	movwne	r1, #4937	; 0x1349
     a04:	05060000 	streq	r0, [r6, #-0]
     a08:	00134900 	andseq	r4, r3, r0, lsl #18
     a0c:	00340700 	eorseq	r0, r4, r0, lsl #14
     a10:	0b3a0e03 	bleq	e84224 <__bss_end__+0xe7a974>
     a14:	0b390b3b 	bleq	e43708 <__bss_end__+0xe39e58>
     a18:	193f1349 	ldmdbne	pc!, {r0, r3, r6, r8, r9, ip}	; <UNPREDICTABLE>
     a1c:	0000193c 	andeq	r1, r0, ip, lsr r9
     a20:	0b000f08 	bleq	4648 <__code_start__-0x39b8>
     a24:	0013490b 	andseq	r4, r3, fp, lsl #18
     a28:	00340900 	eorseq	r0, r4, r0, lsl #18
     a2c:	0b3a0e03 	bleq	e84240 <__bss_end__+0xe7a990>
     a30:	0b390b3b 	bleq	e43724 <__bss_end__+0xe39e74>
     a34:	00001349 	andeq	r1, r0, r9, asr #6
     a38:	3f012e0a 	svccc	0x00012e0a
     a3c:	3a0e0319 	bcc	3816a8 <__bss_end__+0x377df8>
     a40:	390b3b0b 	stmdbcc	fp, {r0, r1, r3, r8, r9, fp, ip, sp}
     a44:	8719270b 	ldrhi	r2, [r9, -fp, lsl #14]
     a48:	01111901 	tsteq	r1, r1, lsl #18
     a4c:	18400612 	stmdane	r0, {r1, r4, r9, sl}^
     a50:	01194297 			; <UNDEFINED> instruction: 0x01194297
     a54:	0b000013 	bleq	aa8 <__code_start__-0x7558>
     a58:	0e030034 	mcreq	0, 0, r0, cr3, cr4, {1}
     a5c:	0b3b0b3a 	bleq	ec374c <__bss_end__+0xeb9e9c>
     a60:	13490b39 	movtne	r0, #39737	; 0x9b39
     a64:	42b71702 	adcsmi	r1, r7, #524288	; 0x80000
     a68:	0c000017 	stceq	0, cr0, [r0], {23}
     a6c:	00018289 	andeq	r8, r1, r9, lsl #5
     a70:	13310111 	teqne	r1, #1073741828	; 0x40000004
     a74:	890d0000 	stmdbhi	sp, {}	; <UNPREDICTABLE>
     a78:	11010182 	smlabbne	r1, r2, r1, r0
     a7c:	01133101 	tsteq	r3, r1, lsl #2
     a80:	0e000013 	mcreq	0, 0, r0, cr0, cr3, {0}
     a84:	0001828a 	andeq	r8, r1, sl, lsl #5
     a88:	42911802 	addsmi	r1, r1, #131072	; 0x20000
     a8c:	0f000018 	svceq	0x00000018
     a90:	193f012e 	ldmdbne	pc!, {r1, r2, r3, r5, r8}	; <UNPREDICTABLE>
     a94:	0b3a0e03 	bleq	e842a8 <__bss_end__+0xe7a9f8>
     a98:	0b390b3b 	bleq	e4378c <__bss_end__+0xe39edc>
     a9c:	01111927 	tsteq	r1, r7, lsr #18
     aa0:	18400612 	stmdane	r0, {r1, r4, r9, sl}^
     aa4:	01194297 			; <UNDEFINED> instruction: 0x01194297
     aa8:	10000013 	andne	r0, r0, r3, lsl r0
     aac:	193f012e 	ldmdbne	pc!, {r1, r2, r3, r5, r8}	; <UNPREDICTABLE>
     ab0:	0b3a0e03 	bleq	e842c4 <__bss_end__+0xe7aa14>
     ab4:	0b390b3b 	bleq	e437a8 <__bss_end__+0xe39ef8>
     ab8:	13491927 	movtne	r1, #39207	; 0x9927
     abc:	06120111 			; <UNDEFINED> instruction: 0x06120111
     ac0:	42971840 	addsmi	r1, r7, #64, 16	; 0x400000
     ac4:	00130119 	andseq	r0, r3, r9, lsl r1
     ac8:	002e1100 	eoreq	r1, lr, r0, lsl #2
     acc:	193c193f 	ldmdbne	ip!, {r0, r1, r2, r3, r4, r5, r8, fp, ip}
     ad0:	0e030e6e 	cdpeq	14, 0, cr0, cr3, cr14, {3}
     ad4:	053b0b3a 	ldreq	r0, [fp, #-2874]!	; 0xfffff4c6
     ad8:	00000b39 	andeq	r0, r0, r9, lsr fp
     adc:	3f002e12 	svccc	0x00002e12
     ae0:	6e193c19 	mrcvs	12, 0, r3, cr9, cr9, {0}
     ae4:	3a0e030e 	bcc	381724 <__bss_end__+0x377e74>
     ae8:	390b3b0b 	stmdbcc	fp, {r0, r1, r3, r8, r9, fp, ip, sp}
     aec:	0000000b 	andeq	r0, r0, fp
     af0:	25011101 	strcs	r1, [r1, #-257]	; 0xfffffeff
     af4:	030b130e 	movweq	r1, #45838	; 0xb30e
     af8:	110e1b0e 	tstne	lr, lr, lsl #22
     afc:	10061201 	andne	r1, r6, r1, lsl #4
     b00:	02000017 	andeq	r0, r0, #23, 0
     b04:	0b0b0024 	bleq	2c0b9c <__bss_end__+0x2b72ec>
     b08:	08030b3e 	stmdaeq	r3, {r1, r2, r3, r4, r5, r8, r9, fp}
     b0c:	24030000 	strcs	r0, [r3], #-0
     b10:	3e0b0b00 	vmlacc.f64	d0, d11, d0
     b14:	000e030b 	andeq	r0, lr, fp, lsl #6
     b18:	01150400 	tsteq	r5, r0, lsl #8
     b1c:	13491927 	movtne	r1, #39207	; 0x9927
     b20:	00001301 	andeq	r1, r0, r1, lsl #6
     b24:	49000505 	stmdbmi	r0, {r0, r2, r8, sl}
     b28:	06000013 			; <UNDEFINED> instruction: 0x06000013
     b2c:	0e030034 	mcreq	0, 0, r0, cr3, cr4, {1}
     b30:	0b3b0b3a 	bleq	ec3820 <__bss_end__+0xeb9f70>
     b34:	13490b39 	movtne	r0, #39737	; 0x9b39
     b38:	193c193f 	ldmdbne	ip!, {r0, r1, r2, r3, r4, r5, r8, fp, ip}
     b3c:	0f070000 	svceq	0x00070000
     b40:	490b0b00 	stmdbmi	fp, {r8, r9, fp}
     b44:	08000013 	stmdaeq	r0, {r0, r1, r4}
     b48:	13490026 	movtne	r0, #36902	; 0x9026
     b4c:	2e090000 	cdpcs	0, 0, cr0, cr9, cr0, {0}
     b50:	03193f01 	tsteq	r9, #1, 30
     b54:	3b0b3a0e 	blcc	2cf394 <__bss_end__+0x2c5ae4>
     b58:	270b390b 	strcs	r3, [fp, -fp, lsl #18]
     b5c:	12011119 	andne	r1, r1, #1073741830	; 0x40000006
     b60:	97184006 	ldrls	r4, [r8, -r6]
     b64:	13011942 	movwne	r1, #6466	; 0x1942
     b68:	050a0000 	streq	r0, [sl, #-0]
     b6c:	3a080300 	bcc	201774 <__bss_end__+0x1f7ec4>
     b70:	390b3b0b 	stmdbcc	fp, {r0, r1, r3, r8, r9, fp, ip, sp}
     b74:	0213490b 	andseq	r4, r3, #180224	; 0x2c000
     b78:	1742b717 	smlaldne	fp, r2, r7, r7
     b7c:	890b0000 	stmdbhi	fp, {}	; <UNPREDICTABLE>
     b80:	11010182 	smlabbne	r1, r2, r1, r0
     b84:	00133101 	andseq	r3, r3, r1, lsl #2
     b88:	828a0c00 	addhi	r0, sl, #0, 24
     b8c:	18020001 	stmdane	r2, {r0}
     b90:	00184291 	mulseq	r8, r1, r2
     b94:	00340d00 	eorseq	r0, r4, r0, lsl #26
     b98:	0b3a0803 	bleq	e82bac <__bss_end__+0xe792fc>
     b9c:	0b390b3b 	bleq	e43890 <__bss_end__+0xe39fe0>
     ba0:	17021349 	strne	r1, [r2, -r9, asr #6]
     ba4:	001742b7 			; <UNDEFINED> instruction: 0x001742b7
     ba8:	010b0e00 	tsteq	fp, r0, lsl #28
     bac:	06120111 			; <UNDEFINED> instruction: 0x06120111
     bb0:	00001301 	andeq	r1, r0, r1, lsl #6
     bb4:	0182890f 	orreq	r8, r2, pc, lsl #18
     bb8:	31011100 	mrscc	r1, (UNDEF: 17)
     bbc:	10000013 	andne	r0, r0, r3, lsl r0
     bc0:	193f012e 	ldmdbne	pc!, {r1, r2, r3, r5, r8}	; <UNPREDICTABLE>
     bc4:	0b3a0e03 	bleq	e843d8 <__bss_end__+0xe7ab28>
     bc8:	0b390b3b 	bleq	e438bc <__bss_end__+0xe3a00c>
     bcc:	13491927 	movtne	r1, #39207	; 0x9927
     bd0:	06120111 			; <UNDEFINED> instruction: 0x06120111
     bd4:	42971840 	addsmi	r1, r7, #64, 16	; 0x400000
     bd8:	00130119 	andseq	r0, r3, r9, lsl r1
     bdc:	002e1100 	eoreq	r1, lr, r0, lsl #2
     be0:	193c193f 	ldmdbne	ip!, {r0, r1, r2, r3, r4, r5, r8, fp, ip}
     be4:	0e030e6e 	cdpeq	14, 0, cr0, cr3, cr14, {3}
     be8:	0b3b0b3a 	bleq	ec38d8 <__bss_end__+0xeba028>
     bec:	00000b39 	andeq	r0, r0, r9, lsr fp
     bf0:	01110100 	tsteq	r1, r0, lsl #2
     bf4:	0b130e25 	bleq	4c4490 <__bss_end__+0x4babe0>
     bf8:	0e1b0e03 	cdpeq	14, 1, cr0, cr11, cr3, {0}
     bfc:	06120111 			; <UNDEFINED> instruction: 0x06120111
     c00:	00001710 	andeq	r1, r0, r0, lsl r7
     c04:	0b002402 	bleq	9c14 <__bss_end__+0x364>
     c08:	030b3e0b 	movweq	r3, #48651	; 0xbe0b
     c0c:	03000008 	movweq	r0, #8
     c10:	0b0b0024 	bleq	2c0ca8 <__bss_end__+0x2b73f8>
     c14:	0e030b3e 	vmoveq.16	d3[0], r0
     c18:	35040000 	strcc	r0, [r4, #-0]
     c1c:	00134900 	andseq	r4, r3, r0, lsl #18
     c20:	00160500 	andseq	r0, r6, r0, lsl #10
     c24:	0b3a0e03 	bleq	e84438 <__bss_end__+0xe7ab88>
     c28:	0b390b3b 	bleq	e4391c <__bss_end__+0xe3a06c>
     c2c:	00001349 	andeq	r1, r0, r9, asr #6
     c30:	3e010406 	cdpcc	4, 0, cr0, cr1, cr6, {0}
     c34:	490b0b0b 	stmdbmi	fp, {r0, r1, r3, r8, r9, fp}
     c38:	3b0b3a13 	blcc	2cf48c <__bss_end__+0x2c5bdc>
     c3c:	010b390b 	tsteq	fp, fp, lsl #18
     c40:	07000013 	smladeq	r0, r3, r0, r0
     c44:	0e030028 	cdpeq	0, 0, cr0, cr3, cr8, {1}
     c48:	00000b1c 	andeq	r0, r0, ip, lsl fp
     c4c:	03011308 	movweq	r1, #4872	; 0x1308
     c50:	3a0b0b0e 	bcc	2c3890 <__bss_end__+0x2b9fe0>
     c54:	390b3b0b 	stmdbcc	fp, {r0, r1, r3, r8, r9, fp, ip, sp}
     c58:	0013010b 	andseq	r0, r3, fp, lsl #2
     c5c:	000d0900 	andeq	r0, sp, r0, lsl #18
     c60:	0b3a0803 	bleq	e82c74 <__bss_end__+0xe793c4>
     c64:	0b390b3b 	bleq	e43958 <__bss_end__+0xe3a0a8>
     c68:	0b381349 	bleq	e05994 <__bss_end__+0xdfc0e4>
     c6c:	0d0a0000 	stceq	0, cr0, [sl, #-0]
     c70:	3a0e0300 	bcc	381878 <__bss_end__+0x377fc8>
     c74:	390b3b0b 	stmdbcc	fp, {r0, r1, r3, r8, r9, fp, ip, sp}
     c78:	3813490b 	ldmdacc	r3, {r0, r1, r3, r8, fp, lr}
     c7c:	0b00000b 	bleq	cb0 <__code_start__-0x7350>
     c80:	0e030034 	mcreq	0, 0, r0, cr3, cr4, {1}
     c84:	0b3b0b3a 	bleq	ec3974 <__bss_end__+0xeba0c4>
     c88:	13490b39 	movtne	r0, #39737	; 0x9b39
     c8c:	0000061c 	andeq	r0, r0, ip, lsl r6
     c90:	0b000f0c 	bleq	48c8 <__code_start__-0x3738>
     c94:	0013490b 	andseq	r4, r3, fp, lsl #18
     c98:	00260d00 	eoreq	r0, r6, r0, lsl #26
     c9c:	00001349 	andeq	r1, r0, r9, asr #6
     ca0:	3f012e0e 	svccc	0x00012e0e
     ca4:	3a0e0319 	bcc	381910 <__bss_end__+0x378060>
     ca8:	390b3b0b 	stmdbcc	fp, {r0, r1, r3, r8, r9, fp, ip, sp}
     cac:	1119270b 	tstne	r9, fp, lsl #14
     cb0:	40061201 	andmi	r1, r6, r1, lsl #4
     cb4:	19429718 	stmdbne	r2, {r3, r4, r8, r9, sl, ip, pc}^
     cb8:	00001301 	andeq	r1, r0, r1, lsl #6
     cbc:	0182890f 	orreq	r8, r2, pc, lsl #18
     cc0:	31011100 	mrscc	r1, (UNDEF: 17)
     cc4:	10000013 	andne	r0, r0, r3, lsl r0
     cc8:	193f012e 	ldmdbne	pc!, {r1, r2, r3, r5, r8}	; <UNPREDICTABLE>
     ccc:	0b3a0e03 	bleq	e844e0 <__bss_end__+0xe7ac30>
     cd0:	0b390b3b 	bleq	e439c4 <__bss_end__+0xe3a114>
     cd4:	13491927 	movtne	r1, #39207	; 0x9927
     cd8:	06120111 			; <UNDEFINED> instruction: 0x06120111
     cdc:	42971840 	addsmi	r1, r7, #64, 16	; 0x400000
     ce0:	00130119 	andseq	r0, r3, r9, lsl r1
     ce4:	82891100 	addhi	r1, r9, #0
     ce8:	01110101 	tsteq	r1, r1, lsl #2
     cec:	00001331 	andeq	r1, r0, r1, lsr r3
     cf0:	01828a12 	orreq	r8, r2, r2, lsl sl
     cf4:	91180200 	tstls	r8, r0, lsl #4
     cf8:	00001842 	andeq	r1, r0, r2, asr #16
     cfc:	03000513 	movweq	r0, #1299	; 0x513
     d00:	3b0b3a08 	blcc	2cf528 <__bss_end__+0x2c5c78>
     d04:	490b390b 	stmdbmi	fp, {r0, r1, r3, r8, fp, ip, sp}
     d08:	b7170213 			; <UNDEFINED> instruction: 0xb7170213
     d0c:	00001742 	andeq	r1, r0, r2, asr #14
     d10:	01828914 	orreq	r8, r2, r4, lsl r9
     d14:	31011101 	tstcc	r1, r1, lsl #2
     d18:	00130113 	andseq	r0, r3, r3, lsl r1
     d1c:	00341500 	eorseq	r1, r4, r0, lsl #10
     d20:	0b3a0803 	bleq	e82d34 <__bss_end__+0xe79484>
     d24:	0b390b3b 	bleq	e43a18 <__bss_end__+0xe3a168>
     d28:	17021349 	strne	r1, [r2, -r9, asr #6]
     d2c:	001742b7 			; <UNDEFINED> instruction: 0x001742b7
     d30:	00341600 	eorseq	r1, r4, r0, lsl #12
     d34:	0b3a0e03 	bleq	e84548 <__bss_end__+0xe7ac98>
     d38:	0b390b3b 	bleq	e43a2c <__bss_end__+0xe3a17c>
     d3c:	051c1349 	ldreq	r1, [ip, #-841]	; 0xfffffcb7
     d40:	2e170000 	cdpcs	0, 1, cr0, cr7, cr0, {0}
     d44:	3a0e0301 	bcc	381950 <__bss_end__+0x3780a0>
     d48:	390b3b0b 	stmdbcc	fp, {r0, r1, r3, r8, r9, fp, ip, sp}
     d4c:	1119270b 	tstne	r9, fp, lsl #14
     d50:	40061201 	andmi	r1, r6, r1, lsl #4
     d54:	19429718 	stmdbne	r2, {r3, r4, r8, r9, sl, ip, pc}^
     d58:	00001301 	andeq	r1, r0, r1, lsl #6
     d5c:	03000518 	movweq	r0, #1304	; 0x518
     d60:	3b0b3a0e 	blcc	2cf5a0 <__bss_end__+0x2c5cf0>
     d64:	490b390b 	stmdbmi	fp, {r0, r1, r3, r8, fp, ip, sp}
     d68:	b7170213 			; <UNDEFINED> instruction: 0xb7170213
     d6c:	00001742 	andeq	r1, r0, r2, asr #14
     d70:	00003519 	andeq	r3, r0, r9, lsl r5
     d74:	002e1a00 	eoreq	r1, lr, r0, lsl #20
     d78:	193c193f 	ldmdbne	ip!, {r0, r1, r2, r3, r4, r5, r8, fp, ip}
     d7c:	0e030e6e 	cdpeq	14, 0, cr0, cr3, cr14, {3}
     d80:	0b3b0b3a 	bleq	ec3a70 <__bss_end__+0xeba1c0>
     d84:	00000b39 	andeq	r0, r0, r9, lsr fp
     d88:	01110100 	tsteq	r1, r0, lsl #2
     d8c:	0b130e25 	bleq	4c4628 <__bss_end__+0x4bad78>
     d90:	0e1b0e03 	cdpeq	14, 1, cr0, cr11, cr3, {0}
     d94:	06120111 			; <UNDEFINED> instruction: 0x06120111
     d98:	00001710 	andeq	r1, r0, r0, lsl r7
     d9c:	0b002402 	bleq	9dac <__bss_end__+0x4fc>
     da0:	030b3e0b 	movweq	r3, #48651	; 0xbe0b
     da4:	03000008 	movweq	r0, #8
     da8:	0b0b0024 	bleq	2c0e40 <__bss_end__+0x2b7590>
     dac:	0e030b3e 	vmoveq.16	d3[0], r0
     db0:	15040000 	strne	r0, [r4, #-0]
     db4:	49192701 	ldmdbmi	r9, {r0, r8, r9, sl, sp}
     db8:	00130113 	andseq	r0, r3, r3, lsl r1
     dbc:	00050500 	andeq	r0, r5, r0, lsl #10
     dc0:	00001349 	andeq	r1, r0, r9, asr #6
     dc4:	03003406 	movweq	r3, #1030	; 0x406
     dc8:	3b0b3a0e 	blcc	2cf608 <__bss_end__+0x2c5d58>
     dcc:	490b390b 	stmdbmi	fp, {r0, r1, r3, r8, fp, ip, sp}
     dd0:	3c193f13 	ldccc	15, cr3, [r9], {19}
     dd4:	07000019 	smladeq	r0, r9, r0, r0
     dd8:	0b0b000f 	bleq	2c0e1c <__bss_end__+0x2b756c>
     ddc:	00001349 	andeq	r1, r0, r9, asr #6
     de0:	49002608 	stmdbmi	r0, {r3, r9, sl, sp}
     de4:	09000013 	stmdbeq	r0, {r0, r1, r4}
     de8:	193f012e 	ldmdbne	pc!, {r1, r2, r3, r5, r8}	; <UNPREDICTABLE>
     dec:	0b3a0e03 	bleq	e84600 <__bss_end__+0xe7ad50>
     df0:	0b390b3b 	bleq	e43ae4 <__bss_end__+0xe3a234>
     df4:	13491927 	movtne	r1, #39207	; 0x9927
     df8:	06120111 			; <UNDEFINED> instruction: 0x06120111
     dfc:	42971840 	addsmi	r1, r7, #64, 16	; 0x400000
     e00:	00130119 	andseq	r0, r3, r9, lsl r1
     e04:	00050a00 	andeq	r0, r5, r0, lsl #20
     e08:	0b3a0e03 	bleq	e8461c <__bss_end__+0xe7ad6c>
     e0c:	0b390b3b 	bleq	e43b00 <__bss_end__+0xe3a250>
     e10:	18021349 	stmdane	r2, {r0, r3, r6, r8, r9, ip}
     e14:	050b0000 	streq	r0, [fp, #-0]
     e18:	3a080300 	bcc	201a20 <__bss_end__+0x1f8170>
     e1c:	390b3b0b 	stmdbcc	fp, {r0, r1, r3, r8, r9, fp, ip, sp}
     e20:	0213490b 	andseq	r4, r3, #180224	; 0x2c000
     e24:	1742b717 	smlaldne	fp, r2, r7, r7
     e28:	340c0000 	strcc	r0, [ip], #-0
     e2c:	3a080300 	bcc	201a34 <__bss_end__+0x1f8184>
     e30:	390b3b0b 	stmdbcc	fp, {r0, r1, r3, r8, r9, fp, ip, sp}
     e34:	0213490b 	andseq	r4, r3, #180224	; 0x2c000
     e38:	1742b717 	smlaldne	fp, r2, r7, r7
     e3c:	01000000 	mrseq	r0, (UNDEF: 0)
     e40:	0e250111 	mcreq	1, 1, r0, cr5, cr1, {0}
     e44:	0e030b13 	vmoveq.32	d3[0], r0
     e48:	01110e1b 	tsteq	r1, fp, lsl lr
     e4c:	17100612 			; <UNDEFINED> instruction: 0x17100612
     e50:	24020000 	strcs	r0, [r2], #-0
     e54:	3e0b0b00 	vmlacc.f64	d0, d11, d0
     e58:	0008030b 	andeq	r0, r8, fp, lsl #6
     e5c:	00240300 	eoreq	r0, r4, r0, lsl #6
     e60:	0b3e0b0b 	bleq	f83a94 <__bss_end__+0xf7a1e4>
     e64:	00000e03 	andeq	r0, r0, r3, lsl #28
     e68:	27011504 	strcs	r1, [r1, -r4, lsl #10]
     e6c:	01134919 	tsteq	r3, r9, lsl r9
     e70:	05000013 	streq	r0, [r0, #-19]	; 0xffffffed
     e74:	13490005 	movtne	r0, #36869	; 0x9005
     e78:	34060000 	strcc	r0, [r6], #-0
     e7c:	3a0e0300 	bcc	381a84 <__bss_end__+0x3781d4>
     e80:	390b3b0b 	stmdbcc	fp, {r0, r1, r3, r8, r9, fp, ip, sp}
     e84:	3f13490b 	svccc	0x0013490b
     e88:	00193c19 	andseq	r3, r9, r9, lsl ip
     e8c:	000f0700 	andeq	r0, pc, r0, lsl #14
     e90:	13490b0b 	movtne	r0, #39691	; 0x9b0b
     e94:	26080000 	strcs	r0, [r8], -r0
     e98:	00134900 	andseq	r4, r3, r0, lsl #18
     e9c:	012e0900 			; <UNDEFINED> instruction: 0x012e0900
     ea0:	0e03193f 			; <UNDEFINED> instruction: 0x0e03193f
     ea4:	0b3b0b3a 	bleq	ec3b94 <__bss_end__+0xeba2e4>
     ea8:	19270b39 	stmdbne	r7!, {r0, r3, r4, r5, r8, r9, fp}
     eac:	01111349 	tsteq	r1, r9, asr #6
     eb0:	18400612 	stmdane	r0, {r1, r4, r9, sl}^
     eb4:	00194297 	mulseq	r9, r7, r2
     eb8:	00050a00 	andeq	r0, r5, r0, lsl #20
     ebc:	0b3a0803 	bleq	e82ed0 <__bss_end__+0xe79620>
     ec0:	0b390b3b 	bleq	e43bb4 <__bss_end__+0xe3a304>
     ec4:	17021349 	strne	r1, [r2, -r9, asr #6]
     ec8:	001742b7 			; <UNDEFINED> instruction: 0x001742b7
     ecc:	11010000 	mrsne	r0, (UNDEF: 1)
     ed0:	130e2501 	movwne	r2, #58625	; 0xe501
     ed4:	1b0e030b 	blne	381b08 <__bss_end__+0x378258>
     ed8:	1201110e 	andne	r1, r1, #-2147483645	; 0x80000003
     edc:	00171006 	andseq	r1, r7, r6
     ee0:	00240200 	eoreq	r0, r4, r0, lsl #4
     ee4:	0b3e0b0b 	bleq	f83b18 <__bss_end__+0xf7a268>
     ee8:	00000803 	andeq	r0, r0, r3, lsl #16
     eec:	0b002403 	bleq	9f00 <__bss_end__+0x650>
     ef0:	030b3e0b 	movweq	r3, #48651	; 0xbe0b
     ef4:	0400000e 	streq	r0, [r0], #-14
     ef8:	19270115 	stmdbne	r7!, {r0, r2, r4, r8}
     efc:	13011349 	movwne	r1, #4937	; 0x1349
     f00:	05050000 	streq	r0, [r5, #-0]
     f04:	00134900 	andseq	r4, r3, r0, lsl #18
     f08:	00340600 	eorseq	r0, r4, r0, lsl #12
     f0c:	0b3a0e03 	bleq	e84720 <__bss_end__+0xe7ae70>
     f10:	0b390b3b 	bleq	e43c04 <__bss_end__+0xe3a354>
     f14:	193f1349 	ldmdbne	pc!, {r0, r3, r6, r8, r9, ip}	; <UNPREDICTABLE>
     f18:	0000193c 	andeq	r1, r0, ip, lsr r9
     f1c:	0b000f07 	bleq	4b40 <__code_start__-0x34c0>
     f20:	0013490b 	andseq	r4, r3, fp, lsl #18
     f24:	00260800 	eoreq	r0, r6, r0, lsl #16
     f28:	00001349 	andeq	r1, r0, r9, asr #6
     f2c:	3f012e09 	svccc	0x00012e09
     f30:	3a0e0319 	bcc	381b9c <__bss_end__+0x3782ec>
     f34:	390b3b0b 	stmdbcc	fp, {r0, r1, r3, r8, r9, fp, ip, sp}
     f38:	4919270b 	ldmdbmi	r9, {r0, r1, r3, r8, r9, sl, sp}
     f3c:	12011113 	andne	r1, r1, #-1073741820	; 0xc0000004
     f40:	97184006 	ldrls	r4, [r8, -r6]
     f44:	13011942 	movwne	r1, #6466	; 0x1942
     f48:	050a0000 	streq	r0, [sl, #-0]
     f4c:	3a080300 	bcc	201b54 <__bss_end__+0x1f82a4>
     f50:	390b3b0b 	stmdbcc	fp, {r0, r1, r3, r8, r9, fp, ip, sp}
     f54:	0213490b 	andseq	r4, r3, #180224	; 0x2c000
     f58:	0b000018 	bleq	fc0 <__code_start__-0x7040>
     f5c:	08030005 	stmdaeq	r3, {r0, r2}
     f60:	0b3b0b3a 	bleq	ec3c50 <__bss_end__+0xeba3a0>
     f64:	13490b39 	movtne	r0, #39737	; 0x9b39
     f68:	42b71702 	adcsmi	r1, r7, #524288	; 0x80000
     f6c:	0c000017 	stceq	0, cr0, [r0], {23}
     f70:	08030034 	stmdaeq	r3, {r2, r4, r5}
     f74:	0b3b0b3a 	bleq	ec3c64 <__bss_end__+0xeba3b4>
     f78:	13490b39 	movtne	r0, #39737	; 0x9b39
     f7c:	42b71702 	adcsmi	r1, r7, #524288	; 0x80000
     f80:	00000017 	andeq	r0, r0, r7, lsl r0
     f84:	25011101 	strcs	r1, [r1, #-257]	; 0xfffffeff
     f88:	030b130e 	movweq	r1, #45838	; 0xb30e
     f8c:	550e1b0e 	strpl	r1, [lr, #-2830]	; 0xfffff4f2
     f90:	10011117 	andne	r1, r1, r7, lsl r1
     f94:	02000017 	andeq	r0, r0, #23, 0
     f98:	0b0b0024 	bleq	2c1030 <__bss_end__+0x2b7780>
     f9c:	08030b3e 	stmdaeq	r3, {r1, r2, r3, r4, r5, r8, r9, fp}
     fa0:	16030000 	strne	r0, [r3], -r0
     fa4:	3a0e0300 	bcc	381bac <__bss_end__+0x3782fc>
     fa8:	390b3b0b 	stmdbcc	fp, {r0, r1, r3, r8, r9, fp, ip, sp}
     fac:	0013490b 	andseq	r4, r3, fp, lsl #18
     fb0:	00240400 	eoreq	r0, r4, r0, lsl #8
     fb4:	0b3e0b0b 	bleq	f83be8 <__bss_end__+0xf7a338>
     fb8:	00000e03 	andeq	r0, r0, r3, lsl #28
     fbc:	49002605 	stmdbmi	r0, {r0, r2, r9, sl, sp}
     fc0:	06000013 			; <UNDEFINED> instruction: 0x06000013
     fc4:	19270115 	stmdbne	r7!, {r0, r2, r4, r8}
     fc8:	13011349 	movwne	r1, #4937	; 0x1349
     fcc:	05070000 	streq	r0, [r7, #-0]
     fd0:	00134900 	andseq	r4, r3, r0, lsl #18
     fd4:	00340800 	eorseq	r0, r4, r0, lsl #16
     fd8:	0b3a0e03 	bleq	e847ec <__bss_end__+0xe7af3c>
     fdc:	0b390b3b 	bleq	e43cd0 <__bss_end__+0xe3a420>
     fe0:	193f1349 	ldmdbne	pc!, {r0, r3, r6, r8, r9, ip}	; <UNPREDICTABLE>
     fe4:	0000193c 	andeq	r1, r0, ip, lsr r9
     fe8:	0b000f09 	bleq	4c14 <__code_start__-0x33ec>
     fec:	0013490b 	andseq	r4, r3, fp, lsl #18
     ff0:	012e0a00 			; <UNDEFINED> instruction: 0x012e0a00
     ff4:	0e03193f 			; <UNDEFINED> instruction: 0x0e03193f
     ff8:	0b3b0b3a 	bleq	ec3ce8 <__bss_end__+0xeba438>
     ffc:	19270b39 	stmdbne	r7!, {r0, r3, r4, r5, r8, r9, fp}
    1000:	01111349 	tsteq	r1, r9, asr #6
    1004:	18400612 	stmdane	r0, {r1, r4, r9, sl}^
    1008:	01194297 			; <UNDEFINED> instruction: 0x01194297
    100c:	0b000013 	bleq	1060 <__code_start__-0x6fa0>
    1010:	08030005 	stmdaeq	r3, {r0, r2}
    1014:	0b3b0b3a 	bleq	ec3d04 <__bss_end__+0xeba454>
    1018:	13490b39 	movtne	r0, #39737	; 0x9b39
    101c:	42b71702 	adcsmi	r1, r7, #524288	; 0x80000
    1020:	0c000017 	stceq	0, cr0, [r0], {23}
    1024:	08030034 	stmdaeq	r3, {r2, r4, r5}
    1028:	0b3b0b3a 	bleq	ec3d18 <__bss_end__+0xeba468>
    102c:	13490b39 	movtne	r0, #39737	; 0x9b39
    1030:	42b71702 	adcsmi	r1, r7, #524288	; 0x80000
    1034:	00000017 	andeq	r0, r0, r7, lsl r0
    1038:	25011101 	strcs	r1, [r1, #-257]	; 0xfffffeff
    103c:	030b130e 	movweq	r1, #45838	; 0xb30e
    1040:	110e1b0e 	tstne	lr, lr, lsl #22
    1044:	10061201 	andne	r1, r6, r1, lsl #4
    1048:	02000017 	andeq	r0, r0, #23, 0
    104c:	0b0b0024 	bleq	2c10e4 <__bss_end__+0x2b7834>
    1050:	08030b3e 	stmdaeq	r3, {r1, r2, r3, r4, r5, r8, r9, fp}
    1054:	24030000 	strcs	r0, [r3], #-0
    1058:	3e0b0b00 	vmlacc.f64	d0, d11, d0
    105c:	000e030b 	andeq	r0, lr, fp, lsl #6
    1060:	01150400 	tsteq	r5, r0, lsl #8
    1064:	13491927 	movtne	r1, #39207	; 0x9927
    1068:	00001301 	andeq	r1, r0, r1, lsl #6
    106c:	49000505 	stmdbmi	r0, {r0, r2, r8, sl}
    1070:	06000013 			; <UNDEFINED> instruction: 0x06000013
    1074:	0e030034 	mcreq	0, 0, r0, cr3, cr4, {1}
    1078:	0b3b0b3a 	bleq	ec3d68 <__bss_end__+0xeba4b8>
    107c:	13490b39 	movtne	r0, #39737	; 0x9b39
    1080:	193c193f 	ldmdbne	ip!, {r0, r1, r2, r3, r4, r5, r8, fp, ip}
    1084:	0f070000 	svceq	0x00070000
    1088:	490b0b00 	stmdbmi	fp, {r8, r9, fp}
    108c:	08000013 	stmdaeq	r0, {r0, r1, r4}
    1090:	13490026 	movtne	r0, #36902	; 0x9026
    1094:	2e090000 	cdpcs	0, 0, cr0, cr9, cr0, {0}
    1098:	03193f00 	tsteq	r9, #0, 30
    109c:	3b0b3a0e 	blcc	2cf8dc <__bss_end__+0x2c602c>
    10a0:	270b390b 	strcs	r3, [fp, -fp, lsl #18]
    10a4:	12011119 	andne	r1, r1, #1073741830	; 0x40000006
    10a8:	97184006 	ldrls	r4, [r8, -r6]
    10ac:	00001942 	andeq	r1, r0, r2, asr #18
    10b0:	01110100 	tsteq	r1, r0, lsl #2
    10b4:	0b130e25 	bleq	4c4950 <__bss_end__+0x4bb0a0>
    10b8:	0e1b0e03 	cdpeq	14, 1, cr0, cr11, cr3, {0}
    10bc:	06120111 			; <UNDEFINED> instruction: 0x06120111
    10c0:	00001710 	andeq	r1, r0, r0, lsl r7
    10c4:	0b002402 	bleq	a0d4 <__bss_end__+0x824>
    10c8:	030b3e0b 	movweq	r3, #48651	; 0xbe0b
    10cc:	03000008 	movweq	r0, #8
    10d0:	0b0b0024 	bleq	2c1168 <__bss_end__+0x2b78b8>
    10d4:	0e030b3e 	vmoveq.16	d3[0], r0
    10d8:	26040000 	strcs	r0, [r4], -r0
    10dc:	00134900 	andseq	r4, r3, r0, lsl #18
    10e0:	00160500 	andseq	r0, r6, r0, lsl #10
    10e4:	0b3a0e03 	bleq	e848f8 <__bss_end__+0xe7b048>
    10e8:	0b390b3b 	bleq	e43ddc <__bss_end__+0xe3a52c>
    10ec:	00001349 	andeq	r1, r0, r9, asr #6
    10f0:	3e010406 	cdpcc	4, 0, cr0, cr1, cr6, {0}
    10f4:	490b0b0b 	stmdbmi	fp, {r0, r1, r3, r8, r9, fp}
    10f8:	3b0b3a13 	blcc	2cf94c <__bss_end__+0x2c609c>
    10fc:	010b390b 	tsteq	fp, fp, lsl #18
    1100:	07000013 	smladeq	r0, r3, r0, r0
    1104:	0e030028 	cdpeq	0, 0, cr0, cr3, cr8, {1}
    1108:	00000b1c 	andeq	r0, r0, ip, lsl fp
    110c:	03003408 	movweq	r3, #1032	; 0x408
    1110:	3b0b3a0e 	blcc	2cf950 <__bss_end__+0x2c60a0>
    1114:	490b390b 	stmdbmi	fp, {r0, r1, r3, r8, fp, ip, sp}
    1118:	00061c13 	andeq	r1, r6, r3, lsl ip
    111c:	012e0900 			; <UNDEFINED> instruction: 0x012e0900
    1120:	0e03193f 			; <UNDEFINED> instruction: 0x0e03193f
    1124:	0b3b0b3a 	bleq	ec3e14 <__bss_end__+0xeba564>
    1128:	19270b39 	stmdbne	r7!, {r0, r3, r4, r5, r8, r9, fp}
    112c:	01111349 	tsteq	r1, r9, asr #6
    1130:	18400612 	stmdane	r0, {r1, r4, r9, sl}^
    1134:	01194297 			; <UNDEFINED> instruction: 0x01194297
    1138:	0a000013 	beq	118c <__code_start__-0x6e74>
    113c:	08030005 	stmdaeq	r3, {r0, r2}
    1140:	0b3b0b3a 	bleq	ec3e30 <__bss_end__+0xeba580>
    1144:	13490b39 	movtne	r0, #39737	; 0x9b39
    1148:	42b71702 	adcsmi	r1, r7, #524288	; 0x80000
    114c:	0b000017 	bleq	11b0 <__code_start__-0x6e50>
    1150:	0e030034 	mcreq	0, 0, r0, cr3, cr4, {1}
    1154:	0b3b0b3a 	bleq	ec3e44 <__bss_end__+0xeba594>
    1158:	13490b39 	movtne	r0, #39737	; 0x9b39
    115c:	42b71702 	adcsmi	r1, r7, #524288	; 0x80000
    1160:	0c000017 	stceq	0, cr0, [r0], {23}
    1164:	08030034 	stmdaeq	r3, {r2, r4, r5}
    1168:	0b3b0b3a 	bleq	ec3e58 <__bss_end__+0xeba5a8>
    116c:	13490b39 	movtne	r0, #39737	; 0x9b39
    1170:	42b71702 	adcsmi	r1, r7, #524288	; 0x80000
    1174:	0d000017 	stceq	0, cr0, [r0, #-92]	; 0xffffffa4
    1178:	01018289 	smlabbeq	r1, r9, r2, r8
    117c:	13310111 	teqne	r1, #1073741828	; 0x40000004
    1180:	8a0e0000 	bhi	381188 <__bss_end__+0x3778d8>
    1184:	02000182 	andeq	r0, r0, #-2147483616	; 0x80000020
    1188:	18429118 	stmdane	r2, {r3, r4, r8, ip, pc}^
    118c:	2e0f0000 	cdpcs	0, 0, cr0, cr15, cr0, {0}
    1190:	03193f01 	tsteq	r9, #1, 30
    1194:	3b0b3a0e 	blcc	2cf9d4 <__bss_end__+0x2c6124>
    1198:	270b390b 	strcs	r3, [fp, -fp, lsl #18]
    119c:	12011119 	andne	r1, r1, #1073741830	; 0x40000006
    11a0:	97184006 	ldrls	r4, [r8, -r6]
    11a4:	13011942 	movwne	r1, #6466	; 0x1942
    11a8:	89100000 	ldmdbhi	r0, {}	; <UNPREDICTABLE>
    11ac:	11010182 	smlabbne	r1, r2, r1, r0
    11b0:	01133101 	tsteq	r3, r1, lsl #2
    11b4:	11000013 	tstne	r0, r3, lsl r0
    11b8:	00018289 	andeq	r8, r1, r9, lsl #5
    11bc:	13310111 	teqne	r1, #1073741828	; 0x40000004
    11c0:	05120000 	ldreq	r0, [r2, #-0]
    11c4:	3a0e0300 	bcc	381dcc <__bss_end__+0x37851c>
    11c8:	390b3b0b 	stmdbcc	fp, {r0, r1, r3, r8, r9, fp, ip, sp}
    11cc:	0213490b 	andseq	r4, r3, #180224	; 0x2c000
    11d0:	1742b717 	smlaldne	fp, r2, r7, r7
    11d4:	2e130000 	cdpcs	0, 1, cr0, cr3, cr0, {0}
    11d8:	3a0e0301 	bcc	381de4 <__bss_end__+0x378534>
    11dc:	390b3b0b 	stmdbcc	fp, {r0, r1, r3, r8, r9, fp, ip, sp}
    11e0:	4919270b 	ldmdbmi	r9, {r0, r1, r3, r8, r9, sl, sp}
    11e4:	010b2013 	tsteq	fp, r3, lsl r0
    11e8:	14000013 	strne	r0, [r0], #-19	; 0xffffffed
    11ec:	08030005 	stmdaeq	r3, {r0, r2}
    11f0:	0b3b0b3a 	bleq	ec3ee0 <__bss_end__+0xeba630>
    11f4:	13490b39 	movtne	r0, #39737	; 0x9b39
    11f8:	2e150000 	cdpcs	0, 1, cr0, cr5, cr0, {0}
    11fc:	3c193f00 	ldccc	15, cr3, [r9], {-0}
    1200:	030e6e19 	movweq	r6, #60953	; 0xee19
    1204:	3b0b3a0e 	blcc	2cfa44 <__bss_end__+0x2c6194>
    1208:	000b390b 	andeq	r3, fp, fp, lsl #18
	...

Disassembly of section .debug_loc:

00000000 <.debug_loc>:
       0:	00000003 	andeq	r0, r0, r3
       4:	00000264 	andeq	r0, r0, r4, ror #4
       8:	0000026c 	andeq	r0, r0, ip, ror #4
       c:	00720006 	rsbseq	r0, r2, r6
      10:	9f1c0075 	svcls	0x001c0075
      14:	0000026c 	andeq	r0, r0, ip, ror #4
      18:	00000277 	andeq	r0, r0, r7, ror r2
      1c:	00520001 	subseq	r0, r2, r1
      20:	00000000 	andeq	r0, r0, r0
      24:	01000000 	mrseq	r0, (UNDEF: 0)
      28:	0001e800 	andeq	lr, r1, r0, lsl #16
      2c:	0002d800 	andeq	sp, r2, r0, lsl #16
      30:	55000100 	strpl	r0, [r0, #-256]	; 0xffffff00
	...
      3c:	02640001 	rsbeq	r0, r4, #1, 0
      40:	026c0000 	rsbeq	r0, ip, #0, 0
      44:	00010000 	andeq	r0, r1, r0
      48:	00000052 	andeq	r0, r0, r2, asr r0
      4c:	00000000 	andeq	r0, r0, r0
      50:	e8000000 	stmda	r0, {}	; <UNPREDICTABLE>
      54:	d8000001 	stmdale	r0, {r0}
      58:	01000002 	tsteq	r0, r2
      5c:	00005500 	andeq	r5, r0, r0, lsl #10
	...
      68:	00000264 	andeq	r0, r0, r4, ror #4
      6c:	0000026c 	andeq	r0, r0, ip, ror #4
      70:	00520001 	subseq	r0, r2, r1
      74:	00000000 	andeq	r0, r0, r0
      78:	03000000 	movweq	r0, #0
      7c:	04000000 	streq	r0, [r0], #-0
      80:	0c000003 	stceq	0, cr0, [r0], {3}
      84:	06000003 	streq	r0, [r0], -r3
      88:	75007200 	strvc	r7, [r0, #-512]	; 0xfffffe00
      8c:	0c9f1c00 	ldceq	12, cr1, [pc], {0}
      90:	17000003 	strne	r0, [r0, -r3]
      94:	01000003 	tsteq	r0, r3
      98:	00005200 	andeq	r5, r0, r0, lsl #4
      9c:	00000000 	andeq	r0, r0, r0
      a0:	00010000 	andeq	r0, r1, r0
      a4:	000002d8 	ldrdeq	r0, [r0], -r8
      a8:	00000388 	andeq	r0, r0, r8, lsl #7
      ac:	00550001 	subseq	r0, r5, r1
      b0:	00000000 	andeq	r0, r0, r0
      b4:	01000000 	mrseq	r0, (UNDEF: 0)
      b8:	00030400 	andeq	r0, r3, r0, lsl #8
      bc:	00030c00 	andeq	r0, r3, r0, lsl #24
      c0:	52000100 	andpl	r0, r0, #0
	...
      cc:	02d80000 	sbcseq	r0, r8, #0, 0
      d0:	03880000 	orreq	r0, r8, #0, 0
      d4:	00010000 	andeq	r0, r1, r0
      d8:	00000055 	andeq	r0, r0, r5, asr r0
      dc:	00000000 	andeq	r0, r0, r0
      e0:	04000000 	streq	r0, [r0], #-0
      e4:	0c000003 	stceq	0, cr0, [r0], {3}
      e8:	01000003 	tsteq	r0, r3
      ec:	00005200 	andeq	r5, r0, r0, lsl #4
	...
      f8:	00c00000 	sbceq	r0, r0, r0
      fc:	01380000 	teqeq	r8, r0
     100:	00010000 	andeq	r0, r1, r0
     104:	00013850 	andeq	r3, r1, r0, asr r8
     108:	00017000 	andeq	r7, r1, r0
     10c:	55000100 	strpl	r0, [r0, #-256]	; 0xffffff00
	...
     11c:	000000c0 	andeq	r0, r0, r0, asr #1
     120:	00000140 	andeq	r0, r0, r0, asr #2
     124:	40510001 	subsmi	r0, r1, r1
     128:	70000001 	andvc	r0, r0, r1
     12c:	07000001 	streq	r0, [r0, -r1]
     130:	80817100 	addhi	r7, r1, r0, lsl #2
     134:	9f7c8080 	svcls	0x007c8080
	...
     140:	00030302 	andeq	r0, r3, r2, lsl #6
     144:	00000000 	andeq	r0, r0, r0
     148:	00c80000 	sbceq	r0, r8, r0
     14c:	00c80000 	sbceq	r0, r8, r0
     150:	00020000 	andeq	r0, r2, r0
     154:	00c89f30 	sbceq	r9, r8, r0, lsr pc
     158:	00dc0000 	sbcseq	r0, ip, r0
     15c:	00020000 	andeq	r0, r2, r0
     160:	00f89f31 	rscseq	r9, r8, r1, lsr pc
     164:	011c0000 	tsteq	ip, r0
     168:	00030000 	andeq	r0, r3, r0
     16c:	1c9f017c 	ldfnes	f0, [pc], {124}	; 0x7c
     170:	20000001 	andcs	r0, r0, r1
     174:	01000001 	tsteq	r0, r1
     178:	01245c00 			; <UNDEFINED> instruction: 0x01245c00
     17c:	01440000 	mrseq	r0, (UNDEF: 68)
     180:	00010000 	andeq	r0, r1, r0
     184:	0000005e 	andeq	r0, r0, lr, asr r0
     188:	00000000 	andeq	r0, r0, r0
     18c:	00000200 	andeq	r0, r0, r0, lsl #4
     190:	0000d400 	andeq	sp, r0, r0, lsl #8
     194:	0000dc00 	andeq	sp, r0, r0, lsl #24
     198:	30000200 	andcc	r0, r0, r0, lsl #4
     19c:	0000dc9f 	muleq	r0, pc, ip	; <UNPREDICTABLE>
     1a0:	00012400 	andeq	r2, r1, r0, lsl #8
     1a4:	5e000100 	adfpls	f0, f0, f0
	...
     1b0:	00f40000 	rscseq	r0, r4, r0
     1b4:	01200000 			; <UNDEFINED> instruction: 0x01200000
     1b8:	00010000 	andeq	r0, r1, r0
     1bc:	00000054 	andeq	r0, r0, r4, asr r0
	...
     1c8:	0000f800 	andeq	pc, r0, r0, lsl #16
     1cc:	0000fc00 	andeq	pc, r0, r0, lsl #24
     1d0:	53000100 	movwpl	r0, #256	; 0x100
     1d4:	000000fc 	strdeq	r0, [r0], -ip
     1d8:	0000010c 	andeq	r0, r0, ip, lsl #2
     1dc:	007e0007 	rsbseq	r0, lr, r7
     1e0:	00702432 	rsbseq	r2, r0, r2, lsr r4
     1e4:	00000022 	andeq	r0, r0, r2, lsr #32
     1e8:	00000000 	andeq	r0, r0, r0
     1ec:	f8000000 			; <UNDEFINED> instruction: 0xf8000000
     1f0:	0c000000 	stceq	0, cr0, [r0], {-0}
     1f4:	01000001 	tsteq	r0, r1
     1f8:	00005400 	andeq	r5, r0, r0, lsl #8
	...
     204:	01040000 	mrseq	r0, (UNDEF: 4)
     208:	01080000 	mrseq	r0, (UNDEF: 8)
     20c:	00010000 	andeq	r0, r1, r0
     210:	00010853 	andeq	r0, r1, r3, asr r8
     214:	00010c00 	andeq	r0, r1, r0, lsl #24
     218:	7e001000 	cdpvc	0, 0, cr1, cr0, cr0, {0}
     21c:	70243200 	eorvc	r3, r4, r0, lsl #4
     220:	74062200 	strvc	r2, [r6], #-512	; 0xfffffe00
     224:	1c381c00 	ldcne	12, cr1, [r8], #-0
     228:	009f2632 	addseq	r2, pc, r2, lsr r6	; <UNPREDICTABLE>
	...
     234:	00013c00 	andeq	r3, r1, r0, lsl #24
     238:	00017000 	andeq	r7, r1, r0
     23c:	5c000100 	stfpls	f0, [r0], {-0}
	...
     24c:	00000144 	andeq	r0, r0, r4, asr #2
     250:	00000148 	andeq	r0, r0, r8, asr #2
     254:	48530001 	ldmdami	r3, {r0}^
     258:	58000001 	stmdapl	r0, {r0}
     25c:	07000001 	streq	r0, [r0, -r1]
     260:	32007100 	andcc	r7, r0, #0
     264:	22007524 	andcs	r7, r0, #36, 10	; 0x9000000
	...
     270:	01440000 	mrseq	r0, (UNDEF: 68)
     274:	01580000 	cmpeq	r8, r0
     278:	00010000 	andeq	r0, r1, r0
     27c:	0000005c 	andeq	r0, r0, ip, asr r0
	...
     288:	00015000 	andeq	r5, r1, r0
     28c:	00015400 	andeq	r5, r1, r0, lsl #8
     290:	53000100 	movwpl	r0, #256	; 0x100
     294:	00000154 	andeq	r0, r0, r4, asr r1
     298:	00000158 	andeq	r0, r0, r8, asr r1
     29c:	00710010 	rsbseq	r0, r1, r0, lsl r0
     2a0:	00752432 	rsbseq	r2, r5, r2, lsr r4
     2a4:	007c0622 	rsbseq	r0, ip, r2, lsr #12
     2a8:	321c381c 	andscc	r3, ip, #28, 16	; 0x1c0000
     2ac:	00009f26 	andeq	r9, r0, r6, lsr #30
	...
     2b8:	01700000 	cmneq	r0, r0
     2bc:	01800000 	orreq	r0, r0, r0
     2c0:	00010000 	andeq	r0, r1, r0
     2c4:	00018050 	andeq	r8, r1, r0, asr r0
     2c8:	00019800 	andeq	r9, r1, r0, lsl #16
     2cc:	56000100 	strpl	r0, [r0], -r0, lsl #2
	...
     2dc:	00000170 	andeq	r0, r0, r0, ror r1
     2e0:	00000180 	andeq	r0, r0, r0, lsl #3
     2e4:	80510001 	subshi	r0, r1, r1
     2e8:	98000001 	stmdals	r0, {r0}
     2ec:	01000001 	tsteq	r0, r1
     2f0:	00005500 	andeq	r5, r0, r0, lsl #10
     2f4:	00000000 	andeq	r0, r0, r0
     2f8:	00020000 	andeq	r0, r2, r0
     2fc:	017c0000 	cmneq	ip, r0
     300:	01800000 	orreq	r0, r0, r0
     304:	00020000 	andeq	r0, r2, r0
     308:	01809f30 	orreq	r9, r0, r0, lsr pc
     30c:	01980000 	orrseq	r0, r8, r0
     310:	00010000 	andeq	r0, r1, r0
     314:	00000054 	andeq	r0, r0, r4, asr r0
	...
     320:	2c000000 	stccs	0, cr0, [r0], {-0}
     324:	38000000 	stmdacc	r0, {}	; <UNPREDICTABLE>
     328:	01000000 	mrseq	r0, (UNDEF: 0)
     32c:	00385000 	eorseq	r5, r8, r0
     330:	00480000 	subeq	r0, r8, r0
     334:	00010000 	andeq	r0, r1, r0
     338:	00004854 	andeq	r4, r0, r4, asr r8
     33c:	00005800 	andeq	r5, r0, r0, lsl #16
     340:	50000100 	andpl	r0, r0, r0, lsl #2
	...
     354:	0000000b 	andeq	r0, r0, fp
     358:	0b500001 	bleq	1400364 <__bss_end__+0x13f6ab4>
     35c:	14000000 	strne	r0, [r0], #-0
     360:	01000000 	mrseq	r0, (UNDEF: 0)
     364:	00005400 	andeq	r5, r0, r0, lsl #8
     368:	00000000 	andeq	r0, r0, r0
     36c:	01000000 	mrseq	r0, (UNDEF: 0)
     370:	00000001 	andeq	r0, r0, r1
     374:	00080000 	andeq	r0, r8, r0
     378:	00010000 	andeq	r0, r1, r0
     37c:	00000850 	andeq	r0, r0, r0, asr r8
     380:	00003400 	andeq	r3, r0, r0, lsl #8
     384:	54000100 	strpl	r0, [r0], #-256	; 0xffffff00
	...
     394:	02880000 	addeq	r0, r8, #0, 0
     398:	02b80000 	adcseq	r0, r8, #0, 0
     39c:	00010000 	andeq	r0, r1, r0
     3a0:	0002b850 	andeq	fp, r2, r0, asr r8
     3a4:	00070400 	andeq	r0, r7, r0, lsl #8
     3a8:	59000100 	stmdbpl	r0, {r8}
     3ac:	00000704 	andeq	r0, r0, r4, lsl #14
     3b0:	00000740 	andeq	r0, r0, r0, asr #14
     3b4:	01f30004 	mvnseq	r0, r4
     3b8:	00009f50 	andeq	r9, r0, r0, asr pc
	...
     3c8:	00000288 	andeq	r0, r0, r8, lsl #5
     3cc:	000002a0 	andeq	r0, r0, r0, lsr #5
     3d0:	a0510001 	subsge	r0, r1, r1
     3d4:	b8000002 	stmdalt	r0, {r1}
     3d8:	03000002 	movweq	r0, #2
     3dc:	9f017100 	svcls	0x00017100
     3e0:	000002b8 			; <UNDEFINED> instruction: 0x000002b8
     3e4:	00000740 	andeq	r0, r0, r0, asr #14
     3e8:	01f30004 	mvnseq	r0, r4
     3ec:	00009f51 	andeq	r9, r0, r1, asr pc
	...
     400:	02880000 	addeq	r0, r8, #0, 0
     404:	02b80000 	adcseq	r0, r8, #0, 0
     408:	00010000 	andeq	r0, r1, r0
     40c:	0002b852 	andeq	fp, r2, r2, asr r8
     410:	0003ec00 	andeq	lr, r3, r0, lsl #24
     414:	56000100 	strpl	r0, [r0], -r0, lsl #2
     418:	000003ec 	andeq	r0, r0, ip, ror #7
     41c:	000004b8 			; <UNDEFINED> instruction: 0x000004b8
     420:	b85b0001 	ldmdalt	fp, {r0}^
     424:	d8000004 	stmdale	r0, {r2}
     428:	01000004 	tsteq	r0, r4
     42c:	04d85600 	ldrbeq	r5, [r8], #1536	; 0x600
     430:	055c0000 	ldrbeq	r0, [ip, #-0]
     434:	00010000 	andeq	r0, r1, r0
     438:	00055c5b 	andeq	r5, r5, fp, asr ip
     43c:	00070400 	andeq	r0, r7, r0, lsl #8
     440:	56000100 	strpl	r0, [r0], -r0, lsl #2
	...
     44c:	00000001 	andeq	r0, r0, r1
     450:	01000000 	mrseq	r0, (UNDEF: 0)
     454:	00000001 	andeq	r0, r0, r1
     458:	02000000 	andeq	r0, r0, #0, 0
     45c:	00000002 	andeq	r0, r0, r2
     460:	0000029c 	muleq	r0, ip, r2
     464:	000002b8 			; <UNDEFINED> instruction: 0x000002b8
     468:	b8500001 	ldmdalt	r0, {r0}^
     46c:	bc000002 	stclt	0, cr0, [r0], {2}
     470:	01000002 	tsteq	r0, r2
     474:	02bc5400 	adcseq	r5, ip, #0, 8
     478:	02c00000 	sbceq	r0, r0, #0, 0
     47c:	00030000 	andeq	r0, r3, r0
     480:	c09f0174 	addsgt	r0, pc, r4, ror r1	; <UNPREDICTABLE>
     484:	e4000002 	str	r0, [r0], #-2
     488:	01000002 	tsteq	r0, r2
     48c:	02e45400 	rsceq	r5, r4, #0, 8
     490:	02e80000 	rsceq	r0, r8, #0, 0
     494:	00030000 	andeq	r0, r3, r0
     498:	e89f0174 	ldm	pc, {r2, r4, r5, r6, r8}	; <UNPREDICTABLE>
     49c:	d4000002 	strle	r0, [r0], #-2
     4a0:	01000006 	tsteq	r0, r6
     4a4:	06d45400 	ldrbeq	r5, [r4], r0, lsl #8
     4a8:	06d80000 	ldrbeq	r0, [r8], r0
     4ac:	00030000 	andeq	r0, r3, r0
     4b0:	d89f0174 	ldmle	pc, {r2, r4, r5, r6, r8}	; <UNPREDICTABLE>
     4b4:	f0000006 			; <UNDEFINED> instruction: 0xf0000006
     4b8:	01000006 	tsteq	r0, r6
     4bc:	06f05400 	ldrbteq	r5, [r0], r0, lsl #8
     4c0:	06f80000 	ldrbteq	r0, [r8], r0
     4c4:	00030000 	andeq	r0, r3, r0
     4c8:	f89f0174 			; <UNDEFINED> instruction: 0xf89f0174
     4cc:	04000006 	streq	r0, [r0], #-6
     4d0:	01000007 	tsteq	r0, r7
     4d4:	00005400 	andeq	r5, r0, r0, lsl #8
	...
     4e0:	02a40000 	adceq	r0, r4, #0, 0
     4e4:	07040000 	streq	r0, [r4, -r0]
     4e8:	00010000 	andeq	r0, r1, r0
     4ec:	00070458 	andeq	r0, r7, r8, asr r4
     4f0:	00074000 	andeq	r4, r7, r0
     4f4:	f3000a00 	vpmax.u8	d0, d0, d0
     4f8:	01f35101 	mvnseq	r5, r1, lsl #2
     4fc:	1c312250 	lfmne	f2, 4, [r1], #-320	; 0xfffffec0
     500:	0000009f 	muleq	r0, pc, r0	; <UNPREDICTABLE>
     504:	00000000 	andeq	r0, r0, r0
     508:	00000100 	andeq	r0, r0, r0, lsl #2
     50c:	08000000 	stmdaeq	r0, {}	; <UNPREDICTABLE>
     510:	74000004 	strvc	r0, [r0], #-4
     514:	01000004 	tsteq	r0, r4
     518:	04d85700 	ldrbeq	r5, [r8], #1792	; 0x700
     51c:	04fc0000 	ldrbteq	r0, [ip], #0
     520:	00010000 	andeq	r0, r1, r0
     524:	00054057 	andeq	r4, r5, r7, asr r0
     528:	00055c00 	andeq	r5, r5, r0, lsl #24
     52c:	57000100 	strpl	r0, [r0, -r0, lsl #2]
	...
     538:	00000002 	andeq	r0, r0, r2
     53c:	00000408 	andeq	r0, r0, r8, lsl #8
     540:	000004b8 			; <UNDEFINED> instruction: 0x000004b8
     544:	d85a0001 	ldmdale	sl, {r0}^
     548:	5c000004 	stcpl	0, cr0, [r0], {4}
     54c:	01000005 	tsteq	r0, r5
     550:	00005a00 	andeq	r5, r0, r0, lsl #20
     554:	00000000 	andeq	r0, r0, r0
     558:	00010000 	andeq	r0, r1, r0
     55c:	02ac0000 	adceq	r0, ip, #0, 0
     560:	02b80000 	adcseq	r0, r8, #0, 0
     564:	00010000 	andeq	r0, r1, r0
     568:	0002b852 	andeq	fp, r2, r2, asr r8
     56c:	00074000 	andeq	r4, r7, r0
     570:	91000300 	mrsls	r0, LR_irq
     574:	00007dc8 	andeq	r7, r0, r8, asr #27
	...
     584:	01000000 	mrseq	r0, (UNDEF: 0)
     588:	00000001 	andeq	r0, r0, r1
	...
     594:	00000474 	andeq	r0, r0, r4, ror r4
     598:	0000048c 	andeq	r0, r0, ip, lsl #9
     59c:	8c500001 	mrrchi	0, 0, r0, r0, cr1	; <UNPREDICTABLE>
     5a0:	b8000004 	stmdalt	r0, {r2}
     5a4:	01000004 	tsteq	r0, r4
     5a8:	04fc5700 	ldrbteq	r5, [ip], #1792	; 0x700
     5ac:	05140000 	ldreq	r0, [r4, #-0]
     5b0:	00010000 	andeq	r0, r1, r0
     5b4:	00051450 	andeq	r1, r5, r0, asr r4
     5b8:	00054000 	andeq	r4, r5, r0
     5bc:	57000100 	strpl	r0, [r0, -r0, lsl #2]
     5c0:	000005a4 	andeq	r0, r0, r4, lsr #11
     5c4:	000005a4 	andeq	r0, r0, r4, lsr #11
     5c8:	a4500001 	ldrbge	r0, [r0], #-1
     5cc:	ac000005 	stcge	0, cr0, [r0], {5}
     5d0:	01000005 	tsteq	r0, r5
     5d4:	05dc5700 	ldrbeq	r5, [ip, #1792]	; 0x700
     5d8:	05e00000 	strbeq	r0, [r0, #0]!
     5dc:	00010000 	andeq	r0, r1, r0
     5e0:	00061050 	andeq	r1, r6, r0, asr r0
     5e4:	00061400 	andeq	r1, r6, r0, lsl #8
     5e8:	50000100 	andpl	r0, r0, r0, lsl #2
     5ec:	00000644 	andeq	r0, r0, r4, asr #12
     5f0:	00000648 	andeq	r0, r0, r8, asr #12
     5f4:	8c500001 	mrrchi	0, 0, r0, r0, cr1	; <UNPREDICTABLE>
     5f8:	90000006 	andls	r0, r0, r6
     5fc:	01000006 	tsteq	r0, r6
     600:	06d05000 	ldrbeq	r5, [r0], r0
     604:	06f00000 	ldrbteq	r0, [r0], r0
     608:	00010000 	andeq	r0, r1, r0
     60c:	00000057 	andeq	r0, r0, r7, asr r0
     610:	00000000 	andeq	r0, r0, r0
     614:	00000200 	andeq	r0, r0, r0, lsl #4
     618:	f4000000 	vst4.8	{d0-d3}, [r0], r0
     61c:	f8000002 			; <UNDEFINED> instruction: 0xf8000002
     620:	02000002 	andeq	r0, r0, #2, 0
     624:	f89f3000 			; <UNDEFINED> instruction: 0xf89f3000
     628:	14000002 	strne	r0, [r0], #-2
     62c:	01000003 	tsteq	r0, r3
     630:	031c5500 	tsteq	ip, #0, 10
     634:	06f00000 	ldrbteq	r0, [r0], r0
     638:	00010000 	andeq	r0, r1, r0
     63c:	00000055 	andeq	r0, r0, r5, asr r0
     640:	00000000 	andeq	r0, r0, r0
     644:	00000100 	andeq	r0, r0, r0, lsl #2
     648:	00000000 	andeq	r0, r0, r0
     64c:	b8000000 	stmdalt	r0, {}	; <UNPREDICTABLE>
     650:	54000003 	strpl	r0, [r0], #-3
     654:	01000004 	tsteq	r0, r4
     658:	04545600 	ldrbeq	r5, [r4], #-1536	; 0xfffffa00
     65c:	04b80000 	ldrteq	r0, [r8], #0
     660:	00030000 	andeq	r0, r3, r0
     664:	b89f7e7b 	ldmlt	pc, {r0, r1, r3, r4, r5, r6, r9, sl, fp, ip, sp, lr}	; <UNPREDICTABLE>
     668:	dc000004 	stcle	0, cr0, [r0], {4}
     66c:	01000004 	tsteq	r0, r4
     670:	04dc5600 	ldrbeq	r5, [ip], #1536	; 0x600
     674:	05400000 	strbeq	r0, [r0, #-0]
     678:	00030000 	andeq	r0, r3, r0
     67c:	409f7e7b 	addsmi	r7, pc, fp, ror lr	; <UNPREDICTABLE>
     680:	5c000005 	stcpl	0, cr0, [r0], {5}
     684:	01000005 	tsteq	r0, r5
     688:	00005600 	andeq	r5, r0, r0, lsl #12
	...
     698:	00000070 	andeq	r0, r0, r0, ror r0
     69c:	00000094 	muleq	r0, r4, r0
     6a0:	94500001 	ldrbls	r0, [r0], #-1
     6a4:	fc000000 	stc2	0, cr0, [r0], {-0}
     6a8:	03000000 	movweq	r0, #0
     6ac:	9f027000 	svcls	0x00027000
     6b0:	000000fc 	strdeq	r0, [r0], -ip
     6b4:	00000224 	andeq	r0, r0, r4, lsr #4
     6b8:	01f30004 	mvnseq	r0, r4
     6bc:	00009f50 	andeq	r9, r0, r0, asr pc
	...
     6d4:	00700000 	rsbseq	r0, r0, r0
     6d8:	00e00000 	rsceq	r0, r0, r0
     6dc:	00010000 	andeq	r0, r1, r0
     6e0:	0000e051 	andeq	lr, r0, r1, asr r0
     6e4:	00015400 	andeq	r5, r1, r0, lsl #8
     6e8:	55000100 	strpl	r0, [r0, #-256]	; 0xffffff00
     6ec:	00000154 	andeq	r0, r0, r4, asr r1
     6f0:	00000158 	andeq	r0, r0, r8, asr r1
     6f4:	58510001 	ldmdapl	r1, {r0}^
     6f8:	b0000001 	andlt	r0, r0, r1
     6fc:	01000001 	tsteq	r0, r1
     700:	01b05500 	lslseq	r5, r0, #10
     704:	01c00000 	biceq	r0, r0, r0
     708:	00010000 	andeq	r0, r1, r0
     70c:	0001c051 	andeq	ip, r1, r1, asr r0
     710:	0001e400 	andeq	lr, r1, r0, lsl #8
     714:	55000100 	strpl	r0, [r0, #-256]	; 0xffffff00
     718:	000001e4 	andeq	r0, r0, r4, ror #3
     71c:	000001f8 	strdeq	r0, [r0], -r8
     720:	f8510001 			; <UNDEFINED> instruction: 0xf8510001
     724:	24000001 	strcs	r0, [r0], #-1
     728:	01000002 	tsteq	r0, r2
     72c:	00005500 	andeq	r5, r0, r0, lsl #10
	...
     738:	00700000 	rsbseq	r0, r0, r0
     73c:	00840000 	addeq	r0, r4, r0
     740:	00010000 	andeq	r0, r1, r0
     744:	00008452 	andeq	r8, r0, r2, asr r4
     748:	00022400 	andeq	r2, r2, r0, lsl #8
     74c:	54000100 	strpl	r0, [r0], #-256	; 0xffffff00
	...
     75c:	00000100 	andeq	r0, r0, r0, lsl #2
     760:	00000000 	andeq	r0, r0, r0
     764:	00000070 	andeq	r0, r0, r0, ror r0
     768:	000000f4 	strdeq	r0, [r0], -r4
     76c:	4c530001 	mrrcmi	0, 0, r0, r3, cr1
     770:	80000001 	andhi	r0, r0, r1
     774:	01000001 	tsteq	r0, r1
     778:	01805300 	orreq	r5, r0, r0, lsl #6
     77c:	018c0000 	orreq	r0, ip, r0
     780:	00040000 	andeq	r0, r4, r0
     784:	9f5301f3 	svcls	0x005301f3
     788:	000001b0 			; <UNDEFINED> instruction: 0x000001b0
     78c:	000001e8 	andeq	r0, r0, r8, ror #3
     790:	e8530001 	ldmda	r3, {r0}^
     794:	ff000001 			; <UNDEFINED> instruction: 0xff000001
     798:	01000001 	tsteq	r0, r1
     79c:	01ff5c00 	mvnseq	r5, r0, lsl #24
     7a0:	02240000 	eoreq	r0, r4, #0, 0
     7a4:	00040000 	andeq	r0, r4, r0
     7a8:	9f5301f3 	svcls	0x005301f3
	...
     7b8:	00700000 	rsbseq	r0, r0, r0
     7bc:	008c0000 	addeq	r0, ip, r0
     7c0:	00020000 	andeq	r0, r2, r0
     7c4:	008c0091 	umulleq	r0, ip, r1, r0
     7c8:	01930000 	orrseq	r0, r3, r0
     7cc:	00010000 	andeq	r0, r1, r0
     7d0:	0001b052 	andeq	fp, r1, r2, asr r0
     7d4:	0001f400 	andeq	pc, r1, r0, lsl #8
     7d8:	52000100 	andpl	r0, r0, #0
	...
     7e4:	01000001 	tsteq	r0, r1
     7e8:	00000001 	andeq	r0, r0, r1
     7ec:	00000000 	andeq	r0, r0, r0
     7f0:	01010100 	mrseq	r0, (UNDEF: 17)
     7f4:	01000001 	tsteq	r0, r1
     7f8:	00000001 	andeq	r0, r0, r1
	...
     804:	0000008c 	andeq	r0, r0, ip, lsl #1
     808:	000000fc 	strdeq	r0, [r0], -ip
     80c:	a0910004 	addsge	r0, r1, r4
     810:	00fc9f7f 	rscseq	r9, ip, pc, ror pc
     814:	013c0000 	teqeq	ip, r0
     818:	00010000 	andeq	r0, r1, r0
     81c:	00013c50 	andeq	r3, r1, r0, asr ip
     820:	00014800 	andeq	r4, r1, r0, lsl #16
     824:	71000300 	mrsvc	r0, LR_irq
     828:	01489f02 	cmpeq	r8, r2, lsl #30
     82c:	014c0000 	mrseq	r0, (UNDEF: 76)
     830:	00010000 	andeq	r0, r1, r0
     834:	00014c50 	andeq	r4, r1, r0, asr ip
     838:	00015800 	andeq	r5, r1, r0, lsl #16
     83c:	91000400 	tstls	r0, r0, lsl #8
     840:	589f7fa0 	ldmpl	pc, {r5, r7, r8, r9, sl, fp, ip, sp, lr}	; <UNPREDICTABLE>
     844:	6c000001 	stcvs	0, cr0, [r0], {1}
     848:	01000001 	tsteq	r0, r1
     84c:	016c5100 	cmneq	ip, r0, lsl #2
     850:	01780000 	cmneq	r8, r0
     854:	00030000 	andeq	r0, r3, r0
     858:	789f7f71 	ldmvc	pc, {r0, r4, r5, r6, r8, r9, sl, fp, ip, sp, lr}	; <UNPREDICTABLE>
     85c:	84000001 	strhi	r0, [r0], #-1
     860:	03000001 	movweq	r0, #1
     864:	9f017100 	svcls	0x00017100
     868:	00000184 	andeq	r0, r0, r4, lsl #3
     86c:	00000193 	muleq	r0, r3, r1
     870:	b0500001 	subslt	r0, r0, r1
     874:	b0000001 	andlt	r0, r0, r1
     878:	04000001 	streq	r0, [r0], #-1
     87c:	7fa09100 	svcvc	0x00a09100
     880:	0001b09f 	muleq	r1, pc, r0	; <UNPREDICTABLE>
     884:	0001b800 	andeq	fp, r1, r0, lsl #16
     888:	91000400 	tstls	r0, r0, lsl #8
     88c:	b89f7fa1 	ldmlt	pc, {r0, r5, r7, r8, r9, sl, fp, ip, sp, lr}	; <UNPREDICTABLE>
     890:	bc000001 	stclt	0, cr0, [r0], {1}
     894:	01000001 	tsteq	r0, r1
     898:	01bc5000 			; <UNDEFINED> instruction: 0x01bc5000
     89c:	01c00000 	biceq	r0, r0, r0
     8a0:	00040000 	andeq	r0, r4, r0
     8a4:	9f7fa091 	svcls	0x007fa091
     8a8:	000001c0 	andeq	r0, r0, r0, asr #3
     8ac:	000001d4 	ldrdeq	r0, [r0], -r4
     8b0:	d4500001 	ldrble	r0, [r0], #-1
     8b4:	e4000001 	str	r0, [r0], #-1
     8b8:	03000001 	movweq	r0, #1
     8bc:	9f7f7000 	svcls	0x007f7000
     8c0:	000001e4 	andeq	r0, r0, r4, ror #3
     8c4:	00000224 	andeq	r0, r0, r4, lsr #4
     8c8:	a0910004 	addsge	r0, r1, r4
     8cc:	00009f7f 	andeq	r9, r0, pc, ror pc
	...
     8d8:	00010100 	andeq	r0, r1, r0, lsl #2
	...
     8e8:	00900000 	addseq	r0, r0, r0
     8ec:	00dc0000 	sbcseq	r0, ip, r0
     8f0:	00010000 	andeq	r0, r1, r0
     8f4:	0000dc5c 	andeq	sp, r0, ip, asr ip
     8f8:	0000f400 	andeq	pc, r0, r0, lsl #8
     8fc:	53000100 	movwpl	r0, #256	; 0x100
     900:	000000f4 	strdeq	r0, [r0], -r4
     904:	0000014c 	andeq	r0, r0, ip, asr #2
     908:	4c5c0001 	mrrcmi	0, 0, r0, ip, cr1
     90c:	58000001 	stmdapl	r0, {r0}
     910:	01000001 	tsteq	r0, r1
     914:	01585300 	cmpeq	r8, r0, lsl #6
     918:	01740000 	cmneq	r4, r0
     91c:	00010000 	andeq	r0, r1, r0
     920:	0001b05c 	andeq	fp, r1, ip, asr r0
     924:	0001c000 	andeq	ip, r1, r0
     928:	53000100 	movwpl	r0, #256	; 0x100
     92c:	000001c0 	andeq	r0, r0, r0, asr #3
     930:	000001dc 	ldrdeq	r0, [r0], -ip
     934:	e45c0001 	ldrb	r0, [ip], #-1
     938:	e8000001 	stmda	r0, {r0}
     93c:	01000001 	tsteq	r0, r1
     940:	01e85300 	mvneq	r5, r0, lsl #6
     944:	01ff0000 	mvnseq	r0, r0
     948:	00010000 	andeq	r0, r1, r0
     94c:	0001ff5c 	andeq	pc, r1, ip, asr pc	; <UNPREDICTABLE>
     950:	00022400 	andeq	r2, r2, r0, lsl #8
     954:	f3000400 	vshl.u8	d0, d0, d0
     958:	009f5301 	addseq	r5, pc, r1, lsl #6
     95c:	00000000 	andeq	r0, r0, r0
     960:	01000000 	mrseq	r0, (UNDEF: 0)
     964:	00000101 	andeq	r0, r0, r1, lsl #2
     968:	dc000000 	stcle	0, cr0, [r0], {-0}
     96c:	f0000000 			; <UNDEFINED> instruction: 0xf0000000
     970:	02000000 	andeq	r0, r0, #0, 0
     974:	f09f3000 			; <UNDEFINED> instruction: 0xf09f3000
     978:	f8000000 			; <UNDEFINED> instruction: 0xf8000000
     97c:	02000000 	andeq	r0, r0, #0, 0
     980:	fc9f3100 	ldc2	1, cr3, [pc], {0}
     984:	4c000000 	stcmi	0, cr0, [r0], {-0}
     988:	01000001 	tsteq	r0, r1
     98c:	014c5600 	cmpeq	ip, r0, lsl #12
     990:	01540000 	cmpeq	r4, r0
     994:	00020000 	andeq	r0, r2, r0
     998:	00009f30 	andeq	r9, r0, r0, lsr pc
	...
     9a4:	00010100 	andeq	r0, r1, r0, lsl #2
     9a8:	00010100 	andeq	r0, r1, r0, lsl #2
     9ac:	00000038 	andeq	r0, r0, r8, lsr r0
     9b0:	00000054 	andeq	r0, r0, r4, asr r0
     9b4:	54500001 	ldrbpl	r0, [r0], #-1
     9b8:	58000000 	stmdapl	r0, {}	; <UNPREDICTABLE>
     9bc:	01000000 	mrseq	r0, (UNDEF: 0)
     9c0:	00585200 	subseq	r5, r8, r0, lsl #4
     9c4:	00600000 	rsbeq	r0, r0, r0
     9c8:	00030000 	andeq	r0, r3, r0
     9cc:	609f0172 	addsvs	r0, pc, r2, ror r1	; <UNPREDICTABLE>
     9d0:	64000000 	strvs	r0, [r0], #-0
     9d4:	01000000 	mrseq	r0, (UNDEF: 0)
     9d8:	00645200 	rsbeq	r5, r4, r0, lsl #4
     9dc:	00700000 	rsbseq	r0, r0, r0
     9e0:	00030000 	andeq	r0, r3, r0
     9e4:	009f0172 	addseq	r0, pc, r2, ror r1	; <UNPREDICTABLE>
	...
     9f0:	38000000 	stmdacc	r0, {}	; <UNPREDICTABLE>
     9f4:	50000000 	andpl	r0, r0, r0
     9f8:	01000000 	mrseq	r0, (UNDEF: 0)
     9fc:	00505100 	subseq	r5, r0, r0, lsl #2
     a00:	00700000 	rsbseq	r0, r0, r0
     a04:	00040000 	andeq	r0, r4, r0
     a08:	9f5101f3 	svcls	0x005101f3
	...
     a18:	00010100 	andeq	r0, r1, r0, lsl #2
     a1c:	00000038 	andeq	r0, r0, r8, lsr r0
     a20:	00000050 	andeq	r0, r0, r0, asr r0
     a24:	50520001 	subspl	r0, r2, r1
     a28:	5c000000 	stcpl	0, cr0, [r0], {-0}
     a2c:	01000000 	mrseq	r0, (UNDEF: 0)
     a30:	005c5100 	subseq	r5, ip, r0, lsl #2
     a34:	00600000 	rsbeq	r0, r0, r0
     a38:	00030000 	andeq	r0, r3, r0
     a3c:	609f0171 	addsvs	r0, pc, r1, ror r1	; <UNPREDICTABLE>
     a40:	70000000 	andvc	r0, r0, r0
     a44:	01000000 	mrseq	r0, (UNDEF: 0)
     a48:	00005100 	andeq	r5, r0, r0, lsl #2
	...
     a54:	00380000 	eorseq	r0, r8, r0
     a58:	004c0000 	subeq	r0, ip, r0
     a5c:	00010000 	andeq	r0, r1, r0
     a60:	00004c53 	andeq	r4, r0, r3, asr ip
     a64:	00006800 	andeq	r6, r0, r0, lsl #16
     a68:	53000100 	movwpl	r0, #256	; 0x100
	...
     a7c:	00000040 	andeq	r0, r0, r0, asr #32
     a80:	00000048 	andeq	r0, r0, r8, asr #32
     a84:	485c0001 	ldmdami	ip, {r0}^
     a88:	4c000000 	stcmi	0, cr0, [r0], {-0}
     a8c:	08000000 	stmdaeq	r0, {}	; <UNPREDICTABLE>
     a90:	73007200 	movwvc	r7, #512	; 0x200
     a94:	01231c00 			; <UNDEFINED> instruction: 0x01231c00
     a98:	00004c9f 	muleq	r0, pc, ip	; <UNPREDICTABLE>
     a9c:	00005400 	andeq	r5, r0, r0, lsl #8
     aa0:	72000900 	andvc	r0, r0, #0, 18
     aa4:	5301f300 	movwpl	pc, #4864	; 0x1300	; <UNPREDICTABLE>
     aa8:	9f01231c 	svcls	0x0001231c
     aac:	00000054 	andeq	r0, r0, r4, asr r0
     ab0:	00000070 	andeq	r0, r0, r0, ror r0
     ab4:	01f3000a 	mvnseq	r0, sl
     ab8:	5301f352 	movwpl	pc, #4946	; 0x1352	; <UNPREDICTABLE>
     abc:	9f01231c 	svcls	0x0001231c
	...
     ac8:	004c0001 	subeq	r0, ip, r1
     acc:	00700000 	rsbseq	r0, r0, r0
     ad0:	00010000 	andeq	r0, r1, r0
     ad4:	00000050 	andeq	r0, r0, r0, asr r0
     ad8:	00000000 	andeq	r0, r0, r0
     adc:	01010000 	mrseq	r0, (UNDEF: 1)
     ae0:	14000000 	strne	r0, [r0], #-0
     ae4:	1c000000 	stcne	0, cr0, [r0], {-0}
     ae8:	01000000 	mrseq	r0, (UNDEF: 0)
     aec:	001c5000 	andseq	r5, ip, r0
     af0:	00240000 	eoreq	r0, r4, r0
     af4:	00030000 	andeq	r0, r3, r0
     af8:	249f0170 	ldrcs	r0, [pc], #368	; b00 <__code_start__-0x7500>
     afc:	38000000 	stmdacc	r0, {}	; <UNPREDICTABLE>
     b00:	01000000 	mrseq	r0, (UNDEF: 0)
     b04:	00005000 	andeq	r5, r0, r0
	...
     b10:	00140000 	andseq	r0, r4, r0
     b14:	00180000 	andseq	r0, r8, r0
     b18:	00010000 	andeq	r0, r1, r0
     b1c:	00001851 	andeq	r1, r0, r1, asr r8
     b20:	00003800 	andeq	r3, r0, r0, lsl #16
     b24:	f3000400 	vshl.u8	d0, d0, d0
     b28:	009f5101 	addseq	r5, pc, r1, lsl #2
	...
     b34:	00001800 	andeq	r1, r0, r0, lsl #16
     b38:	00003800 	andeq	r3, r0, r0, lsl #16
     b3c:	51000100 	mrspl	r0, (UNDEF: 16)
	...
     b50:	00040000 	andeq	r0, r4, r0
     b54:	00010000 	andeq	r0, r1, r0
     b58:	00000450 	andeq	r0, r0, r0, asr r4
     b5c:	00000c00 	andeq	r0, r0, r0, lsl #24
     b60:	70000300 	andvc	r0, r0, r0, lsl #6
     b64:	000c9f30 	andeq	r9, ip, r0, lsr pc
     b68:	00140000 	andseq	r0, r4, r0
     b6c:	00040000 	andeq	r0, r4, r0
     b70:	9f5001f3 	svcls	0x005001f3
	...
     b80:	00000224 	andeq	r0, r0, r4, lsr #4
     b84:	00000268 	andeq	r0, r0, r8, ror #4
     b88:	68500001 	ldmdavs	r0, {r0}^
     b8c:	88000002 	stmdahi	r0, {r1}
     b90:	04000002 	streq	r0, [r0], #-2
     b94:	5001f300 	andpl	pc, r1, r0, lsl #6
     b98:	0000009f 	muleq	r0, pc, r0	; <UNPREDICTABLE>
	...
     ba4:	00022400 	andeq	r2, r2, r0, lsl #8
     ba8:	00026400 	andeq	r6, r2, r0, lsl #8
     bac:	51000100 	mrspl	r0, (UNDEF: 16)
     bb0:	00000264 	andeq	r0, r0, r4, ror #4
     bb4:	00000288 	andeq	r0, r0, r8, lsl #5
     bb8:	01f30004 	mvnseq	r0, r4
     bbc:	00009f51 	andeq	r9, r0, r1, asr pc
     bc0:	00000000 	andeq	r0, r0, r0
     bc4:	01000000 	mrseq	r0, (UNDEF: 0)
     bc8:	00000001 	andeq	r0, r0, r1
     bcc:	0000000c 	andeq	r0, r0, ip
     bd0:	00000014 	andeq	r0, r0, r4, lsl r0
     bd4:	14530001 	ldrbne	r0, [r3], #-1
     bd8:	1c000000 	stcne	0, cr0, [r0], {-0}
     bdc:	03000000 	movweq	r0, #0
     be0:	9f047300 	svcls	0x00047300
     be4:	0000001c 	andeq	r0, r0, ip, lsl r0
     be8:	00000023 	andeq	r0, r0, r3, lsr #32
     bec:	00530001 	subseq	r0, r3, r1
     bf0:	00000000 	andeq	r0, r0, r0
     bf4:	01000000 	mrseq	r0, (UNDEF: 0)
     bf8:	008c8000 	addeq	r8, ip, r0
     bfc:	008c9c00 	addeq	r9, ip, r0, lsl #24
     c00:	0c000600 	stceq	6, cr0, [r0], {-0}
     c04:	2010001c 	andscs	r0, r0, ip, lsl r0
     c08:	0000009f 	muleq	r0, pc, r0	; <UNPREDICTABLE>
     c0c:	00000000 	andeq	r0, r0, r0
     c10:	80000200 	andhi	r0, r0, r0, lsl #4
     c14:	9c00008c 	stcls	0, cr0, [r0], {140}	; 0x8c
     c18:	0600008c 	streq	r0, [r0], -ip, lsl #1
     c1c:	00240c00 	eoreq	r0, r4, r0, lsl #24
     c20:	009f2010 	addseq	r2, pc, r0, lsl r0	; <UNPREDICTABLE>
     c24:	00000000 	andeq	r0, r0, r0
     c28:	03000000 	movweq	r0, #0
     c2c:	008c8000 	addeq	r8, ip, r0
     c30:	008c9c00 	addeq	r9, ip, r0, lsl #24
     c34:	08000500 	stmdaeq	r0, {r8, sl}
     c38:	9f2447b4 	svcls	0x002447b4
	...
     c44:	8c800004 	stchi	0, cr0, [r0], {4}
     c48:	8c9c0000 	ldchi	0, cr0, [ip], {0}
     c4c:	00030000 	andeq	r0, r3, r0
     c50:	009f2008 	addseq	r2, pc, r8
     c54:	00000000 	andeq	r0, r0, r0
     c58:	02000000 	andeq	r0, r0, #0, 0
     c5c:	00000000 	andeq	r0, r0, r0
     c60:	008c4c00 	addeq	r4, ip, r0, lsl #24
     c64:	008c5000 	addeq	r5, ip, r0
     c68:	30000200 	andcc	r0, r0, r0, lsl #4
     c6c:	008c509f 	umulleq	r5, ip, pc, r0	; <UNPREDICTABLE>
     c70:	008c5400 	addeq	r5, ip, r0, lsl #8
     c74:	53000100 	movwpl	r0, #256	; 0x100
     c78:	00008c58 	andeq	r8, r0, r8, asr ip
     c7c:	00008c60 	andeq	r8, r0, r0, ror #24
     c80:	00530001 	subseq	r0, r3, r1
     c84:	00000000 	andeq	r0, r0, r0
     c88:	02000000 	andeq	r0, r0, #0, 0
     c8c:	34000000 	strcc	r0, [r0], #-0
     c90:	3800008c 	stmdacc	r0, {r2, r3, r7}
     c94:	0200008c 	andeq	r0, r0, #140, 0	; 0x8c
     c98:	389f3000 	ldmcc	pc, {ip, sp}	; <UNPREDICTABLE>
     c9c:	3c00008c 	stccc	0, cr0, [r0], {140}	; 0x8c
     ca0:	0100008c 	smlabbeq	r0, ip, r0, r0
     ca4:	00005000 	andeq	r5, r0, r0
	...
     cb0:	006c0000 	rsbeq	r0, ip, r0
     cb4:	00780000 	rsbseq	r0, r8, r0
     cb8:	00010000 	andeq	r0, r1, r0
     cbc:	00007850 	andeq	r7, r0, r0, asr r8
     cc0:	00008400 	andeq	r8, r0, r0, lsl #8
     cc4:	f3000400 	vshl.u8	d0, d0, d0
     cc8:	009f5001 	addseq	r5, pc, r1
	...
     cd4:	54000000 	strpl	r0, [r0], #-0
     cd8:	60000000 	andvs	r0, r0, r0
     cdc:	01000000 	mrseq	r0, (UNDEF: 0)
     ce0:	00605000 	rsbeq	r5, r0, r0
     ce4:	006c0000 	rsbeq	r0, ip, r0
     ce8:	00040000 	andeq	r0, r4, r0
     cec:	9f5001f3 	svcls	0x005001f3
	...
     cfc:	00000030 	andeq	r0, r0, r0, lsr r0
     d00:	0000003b 	andeq	r0, r0, fp, lsr r0
     d04:	3b500001 	blcc	1400d10 <__bss_end__+0x13f7460>
     d08:	54000000 	strpl	r0, [r0], #-0
     d0c:	01000000 	mrseq	r0, (UNDEF: 0)
     d10:	00005500 	andeq	r5, r0, r0, lsl #10
	...
     d1c:	00000040 	andeq	r0, r0, r0, asr #32
     d20:	00000054 	andeq	r0, r0, r4, asr r0
     d24:	00540001 	subseq	r0, r4, r1
	...
     d30:	00004400 	andeq	r4, r0, r0, lsl #8
     d34:	00004800 	andeq	r4, r0, r0, lsl #16
     d38:	50000100 	andpl	r0, r0, r0, lsl #2
	...
     d48:	00000024 	andeq	r0, r0, r4, lsr #32
     d4c:	00000027 	andeq	r0, r0, r7, lsr #32
     d50:	27500001 	ldrbcs	r0, [r0, -r1]
     d54:	30000000 	andcc	r0, r0, r0
     d58:	01000000 	mrseq	r0, (UNDEF: 0)
     d5c:	00005400 	andeq	r5, r0, r0, lsl #8
	...
     d68:	01580000 	cmpeq	r8, r0
     d6c:	01630000 	cmneq	r3, r0
     d70:	00010000 	andeq	r0, r1, r0
     d74:	00016350 	andeq	r6, r1, r0, asr r3
     d78:	00018800 	andeq	r8, r1, r0, lsl #16
     d7c:	54000100 	strpl	r0, [r0], #-256	; 0xffffff00
	...
     d88:	01480000 	mrseq	r0, (UNDEF: 72)
     d8c:	01580000 	cmpeq	r8, r0
     d90:	00010000 	andeq	r0, r1, r0
     d94:	00000054 	andeq	r0, r0, r4, asr r0
	...
     da4:	00000f00 	andeq	r0, r0, r0, lsl #30
     da8:	50000100 	andpl	r0, r0, r0, lsl #2
     dac:	0000000f 	andeq	r0, r0, pc
     db0:	00000020 	andeq	r0, r0, r0, lsr #32
     db4:	00540001 	subseq	r0, r4, r1
	...
     dc4:	0f000000 	svceq	0x00000000
     dc8:	01000000 	mrseq	r0, (UNDEF: 0)
     dcc:	000f5100 	andeq	r5, pc, r0, lsl #2
     dd0:	00200000 	eoreq	r0, r0, r0
     dd4:	00010000 	andeq	r0, r1, r0
     dd8:	00000055 	andeq	r0, r0, r5, asr r0
	...
     de4:	00002000 	andeq	r2, r0, r0
     de8:	00002f00 	andeq	r2, r0, r0, lsl #30
     dec:	50000100 	andpl	r0, r0, r0, lsl #2
     df0:	0000002f 	andeq	r0, r0, pc, lsr #32
     df4:	00000040 	andeq	r0, r0, r0, asr #32
     df8:	00540001 	subseq	r0, r4, r1
	...
     e04:	20000000 	andcs	r0, r0, r0
     e08:	2f000000 	svccs	0x00000000
     e0c:	01000000 	mrseq	r0, (UNDEF: 0)
     e10:	002f5100 	eoreq	r5, pc, r0, lsl #2
     e14:	00400000 	subeq	r0, r0, r0
     e18:	00010000 	andeq	r0, r1, r0
     e1c:	00000055 	andeq	r0, r0, r5, asr r0
	...
     e2c:	00001c00 	andeq	r1, r0, r0, lsl #24
     e30:	51000100 	mrspl	r0, (UNDEF: 16)
     e34:	0000001c 	andeq	r0, r0, ip, lsl r0
     e38:	00000034 	andeq	r0, r0, r4, lsr r0
     e3c:	01f30004 	mvnseq	r0, r4
     e40:	00009f51 	andeq	r9, r0, r1, asr pc
     e44:	00000000 	andeq	r0, r0, r0
     e48:	00020000 	andeq	r0, r2, r0
     e4c:	01000000 	mrseq	r0, (UNDEF: 0)
     e50:	00000001 	andeq	r0, r0, r1
     e54:	00000000 	andeq	r0, r0, r0
     e58:	00000004 	andeq	r0, r0, r4
     e5c:	04500001 	ldrbeq	r0, [r0], #-1
     e60:	1c000000 	stcne	0, cr0, [r0], {-0}
     e64:	01000000 	mrseq	r0, (UNDEF: 0)
     e68:	001c5200 	andseq	r5, ip, r0, lsl #4
     e6c:	00240000 	eoreq	r0, r4, r0
     e70:	00010000 	andeq	r0, r1, r0
     e74:	00002453 	andeq	r2, r0, r3, asr r4
     e78:	00002800 	andeq	r2, r0, r0, lsl #16
     e7c:	73000300 	movwvc	r0, #768	; 0x300
     e80:	00289f01 	eoreq	r9, r8, r1, lsl #30
     e84:	00340000 	eorseq	r0, r4, r0
     e88:	00010000 	andeq	r0, r1, r0
     e8c:	00000053 	andeq	r0, r0, r3, asr r0
     e90:	00000000 	andeq	r0, r0, r0
     e94:	00000300 	andeq	r0, r0, r0, lsl #6
     e98:	00000000 	andeq	r0, r0, r0
     e9c:	00002400 	andeq	r2, r0, r0, lsl #8
     ea0:	51000100 	mrspl	r0, (UNDEF: 16)
     ea4:	00000024 	andeq	r0, r0, r4, lsr #32
     ea8:	00000034 	andeq	r0, r0, r4, lsr r0
     eac:	7f710003 	svcvc	0x00710003
     eb0:	0000009f 	muleq	r0, pc, r0	; <UNPREDICTABLE>
	...
     ebc:	00001000 	andeq	r1, r0, r0
     ec0:	00001c00 	andeq	r1, r0, r0, lsl #24
     ec4:	5c000100 	stfpls	f0, [r0], {-0}
     ec8:	00000024 	andeq	r0, r0, r4, lsr #32
     ecc:	00000034 	andeq	r0, r0, r4, lsr r0
     ed0:	00520001 	subseq	r0, r2, r1
	...
     ee0:	18000000 	stmdane	r0, {}	; <UNPREDICTABLE>
     ee4:	01000000 	mrseq	r0, (UNDEF: 0)
     ee8:	00185000 	andseq	r5, r8, r0
     eec:	00240000 	eoreq	r0, r4, r0
     ef0:	00010000 	andeq	r0, r1, r0
     ef4:	00000050 	andeq	r0, r0, r0, asr r0
	...
     f04:	00001c00 	andeq	r1, r0, r0, lsl #24
     f08:	51000100 	mrspl	r0, (UNDEF: 16)
     f0c:	0000001c 	andeq	r0, r0, ip, lsl r0
     f10:	0000002c 	andeq	r0, r0, ip, lsr #32
     f14:	00510001 	subseq	r0, r1, r1
	...
     f28:	00000400 	andeq	r0, r0, r0, lsl #8
     f2c:	51000100 	mrspl	r0, (UNDEF: 16)
     f30:	00000004 	andeq	r0, r0, r4
     f34:	0000000c 	andeq	r0, r0, ip
     f38:	0c510001 	mrrceq	0, 0, r0, r1, cr1
     f3c:	20000000 	andcs	r0, r0, r0
     f40:	03000000 	movweq	r0, #0
     f44:	9f7f7100 	svcls	0x007f7100
	...
     f50:	00000002 	andeq	r0, r0, r2
     f54:	00000000 	andeq	r0, r0, r0
     f58:	00040000 	andeq	r0, r4, r0
     f5c:	00010000 	andeq	r0, r1, r0
     f60:	00000450 	andeq	r0, r0, r0, asr r4
     f64:	00001400 	andeq	r1, r0, r0, lsl #8
     f68:	5c000100 	stfpls	f0, [r0], {-0}
     f6c:	00000014 	andeq	r0, r0, r4, lsl r0
     f70:	00000020 	andeq	r0, r0, r0, lsr #32
     f74:	7f7c0003 	svcvc	0x007c0003
     f78:	0000009f 	muleq	r0, pc, r0	; <UNPREDICTABLE>
     f7c:	00000000 	andeq	r0, r0, r0
     f80:	03030000 	movweq	r0, #12288	; 0x3000
     f84:	008fa800 	addeq	sl, pc, r0, lsl #16
     f88:	008fa800 	addeq	sl, pc, r0, lsl #16
     f8c:	50000100 	andpl	r0, r0, r0, lsl #2
     f90:	00008fa8 	andeq	r8, r0, r8, lsr #31
     f94:	00008fd4 	ldrdeq	r8, [r0], -r4
     f98:	01f30004 	mvnseq	r0, r4
     f9c:	00009f50 	andeq	r9, r0, r0, asr pc
     fa0:	00000000 	andeq	r0, r0, r0
     fa4:	03000000 	movweq	r0, #0
     fa8:	8fa80003 	svchi	0x00a80003
     fac:	8fa80000 	svchi	0x00a80000
     fb0:	00010000 	andeq	r0, r1, r0
     fb4:	008fa851 	addeq	sl, pc, r1, asr r8	; <UNPREDICTABLE>
     fb8:	008fd400 	addeq	sp, pc, r0, lsl #8
     fbc:	f3000400 	vshl.u8	d0, d0, d0
     fc0:	009f5101 	addseq	r5, pc, r1, lsl #2
	...
     fcc:	00000303 	andeq	r0, r0, r3, lsl #6
     fd0:	008fa800 	addeq	sl, pc, r0, lsl #16
     fd4:	008fa800 	addeq	sl, pc, r0, lsl #16
     fd8:	52000100 	andpl	r0, r0, #0
     fdc:	00008fa8 	andeq	r8, r0, r8, lsr #31
     fe0:	00008fb0 			; <UNDEFINED> instruction: 0x00008fb0
     fe4:	b0520001 	subslt	r0, r2, r1
     fe8:	d400008f 	strle	r0, [r0], #-143	; 0xffffff71
     fec:	0300008f 	movweq	r0, #143	; 0x8f
     ff0:	9f017200 	svcls	0x00017200
	...
     ffc:	00010102 	andeq	r0, r1, r2, lsl #2
    1000:	00000000 	andeq	r0, r0, r0
    1004:	00008fa8 	andeq	r8, r0, r8, lsr #31
    1008:	00008fb4 			; <UNDEFINED> instruction: 0x00008fb4
    100c:	b4500001 	ldrblt	r0, [r0], #-1
    1010:	b800008f 	stmdalt	r0, {r0, r1, r2, r3, r7}
    1014:	0300008f 	movweq	r0, #143	; 0x8f
    1018:	9f017000 	svcls	0x00017000
    101c:	00008fb8 			; <UNDEFINED> instruction: 0x00008fb8
    1020:	00008fc8 	andeq	r8, r0, r8, asr #31
    1024:	cc500001 	mrrcgt	0, 0, r0, r0, cr1	; <UNPREDICTABLE>
    1028:	d000008f 	andle	r0, r0, pc, lsl #1
    102c:	0100008f 	smlabbeq	r0, pc, r0, r0	; <UNPREDICTABLE>
    1030:	00005000 	andeq	r5, r0, r0
    1034:	00000000 	andeq	r0, r0, r0
    1038:	00020000 	andeq	r0, r2, r0
    103c:	00000000 	andeq	r0, r0, r0
    1040:	00008fa8 	andeq	r8, r0, r8, lsr #31
    1044:	00008fb8 			; <UNDEFINED> instruction: 0x00008fb8
    1048:	b8510001 	ldmdalt	r1, {r0}^
    104c:	bc00008f 	stclt	0, cr0, [r0], {143}	; 0x8f
    1050:	0300008f 	movweq	r0, #143	; 0x8f
    1054:	9f017100 	svcls	0x00017100
    1058:	00008fbc 			; <UNDEFINED> instruction: 0x00008fbc
    105c:	00008fd4 	ldrdeq	r8, [r0], -r4
    1060:	00510001 	subseq	r0, r1, r1
	...
    1070:	e8000000 	stmda	r0, {}	; <UNPREDICTABLE>
    1074:	00000000 	andeq	r0, r0, r0
    1078:	01000001 	tsteq	r0, r1
    107c:	01005000 	mrseq	r5, (UNDEF: 0)
    1080:	01100000 	tsteq	r0, r0
    1084:	00040000 	andeq	r0, r4, r0
    1088:	9f5001f3 	svcls	0x005001f3
    108c:	00000110 	andeq	r0, r0, r0, lsl r1
    1090:	00000114 	andeq	r0, r0, r4, lsl r1
    1094:	14500001 	ldrbne	r0, [r0], #-1
    1098:	1c000001 	stcne	0, cr0, [r0], {1}
    109c:	04000001 	streq	r0, [r0], #-1
    10a0:	5001f300 	andpl	pc, r1, r0, lsl #6
    10a4:	0000009f 	muleq	r0, pc, r0	; <UNPREDICTABLE>
    10a8:	00000000 	andeq	r0, r0, r0
    10ac:	00000100 	andeq	r0, r0, r0, lsl #2
    10b0:	f4000000 	vst4.8	{d0-d3}, [r0], r0
    10b4:	00000000 	andeq	r0, r0, r0
    10b8:	0b000001 	bleq	10c4 <__code_start__-0x6f3c>
    10bc:	35007000 	strcc	r7, [r0, #-0]
    10c0:	80b42325 	adcshi	r2, r4, r5, lsr #6
    10c4:	9f028180 	svcls	0x00028180
    10c8:	00000100 	andeq	r0, r0, r0, lsl #2
    10cc:	00000103 	andeq	r0, r0, r3, lsl #2
    10d0:	03500001 	cmpeq	r0, #1, 0
    10d4:	10000001 	andne	r0, r0, r1
    10d8:	0c000001 	stceq	0, cr0, [r0], {1}
    10dc:	5001f300 	andpl	pc, r1, r0, lsl #6
    10e0:	b4232535 	strtlt	r2, [r3], #-1333	; 0xfffffacb
    10e4:	02818080 	addeq	r8, r1, #128, 0	; 0x80
    10e8:	0000009f 	muleq	r0, pc, r0	; <UNPREDICTABLE>
    10ec:	00000000 	andeq	r0, r0, r0
    10f0:	f8000000 			; <UNDEFINED> instruction: 0xf8000000
    10f4:	10000000 	andne	r0, r0, r0
    10f8:	01000001 	tsteq	r0, r1
    10fc:	00005400 	andeq	r5, r0, r0, lsl #8
	...
    110c:	00cc0000 	sbceq	r0, ip, r0
    1110:	00db0000 	sbcseq	r0, fp, r0
    1114:	00010000 	andeq	r0, r1, r0
    1118:	0000db50 	andeq	sp, r0, r0, asr fp
    111c:	0000e000 	andeq	lr, r0, r0
    1120:	f3000400 	vshl.u8	d0, d0, d0
    1124:	e09f5001 	adds	r5, pc, r1
    1128:	e3000000 	movw	r0, #0
    112c:	01000000 	mrseq	r0, (UNDEF: 0)
    1130:	00e35000 	rsceq	r5, r3, r0
    1134:	00e80000 	rsceq	r0, r8, r0
    1138:	00040000 	andeq	r0, r4, r0
    113c:	9f5001f3 	svcls	0x005001f3
	...
    1150:	000000cc 	andeq	r0, r0, ip, asr #1
    1154:	000000db 	ldrdeq	r0, [r0], -fp
    1158:	db510001 	blle	1441164 <__bss_end__+0x14378b4>
    115c:	e0000000 	and	r0, r0, r0
    1160:	04000000 	streq	r0, [r0], #-0
    1164:	5101f300 	mrspl	pc, SP_irq	; <UNPREDICTABLE>
    1168:	0000e09f 	muleq	r0, pc, r0	; <UNPREDICTABLE>
    116c:	0000e300 	andeq	lr, r0, r0, lsl #6
    1170:	51000100 	mrspl	r0, (UNDEF: 16)
    1174:	000000e3 	andeq	r0, r0, r3, ror #1
    1178:	000000e8 	andeq	r0, r0, r8, ror #1
    117c:	01f30004 	mvnseq	r0, r4
    1180:	00009f51 	andeq	r9, r0, r1, asr pc
	...
    118c:	00bc0000 	adcseq	r0, ip, r0
    1190:	00c70000 	sbceq	r0, r7, r0
    1194:	00010000 	andeq	r0, r1, r0
    1198:	0000c750 	andeq	ip, r0, r0, asr r7
    119c:	0000cc00 	andeq	ip, r0, r0, lsl #24
    11a0:	f3000400 	vshl.u8	d0, d0, d0
    11a4:	009f5001 	addseq	r5, pc, r1
	...
    11b0:	98000000 	stmdals	r0, {}	; <UNPREDICTABLE>
    11b4:	b0000000 	andlt	r0, r0, r0
    11b8:	01000000 	mrseq	r0, (UNDEF: 0)
    11bc:	00b05000 	adcseq	r5, r0, r0
    11c0:	00bc0000 	adcseq	r0, ip, r0
    11c4:	00040000 	andeq	r0, r4, r0
    11c8:	9f5001f3 	svcls	0x005001f3
	...
    11d8:	00000074 	andeq	r0, r0, r4, ror r0
    11dc:	0000008c 	andeq	r0, r0, ip, lsl #1
    11e0:	8c500001 	mrrchi	0, 0, r0, r0, cr1	; <UNPREDICTABLE>
    11e4:	98000000 	stmdals	r0, {}	; <UNPREDICTABLE>
    11e8:	04000000 	streq	r0, [r0], #-0
    11ec:	5001f300 	andpl	pc, r1, r0, lsl #6
    11f0:	0000009f 	muleq	r0, pc, r0	; <UNPREDICTABLE>
	...
    11fc:	00006400 	andeq	r6, r0, r0, lsl #8
    1200:	00006f00 	andeq	r6, r0, r0, lsl #30
    1204:	50000100 	andpl	r0, r0, r0, lsl #2
    1208:	0000006f 	andeq	r0, r0, pc, rrx
    120c:	00000074 	andeq	r0, r0, r4, ror r0
    1210:	01f30004 	mvnseq	r0, r4
    1214:	00009f50 	andeq	r9, r0, r0, asr pc
	...
    1224:	00380000 	eorseq	r0, r8, r0
    1228:	00010000 	andeq	r0, r1, r0
    122c:	00003850 	andeq	r3, r0, r0, asr r8
    1230:	00006400 	andeq	r6, r0, r0, lsl #8
    1234:	f3000400 	vshl.u8	d0, d0, d0
    1238:	009f5001 	addseq	r5, pc, r1
	...
    1248:	47000000 	strmi	r0, [r0, -r0]
    124c:	01000000 	mrseq	r0, (UNDEF: 0)
    1250:	00475100 	subeq	r5, r7, r0, lsl #2
    1254:	00640000 	rsbeq	r0, r4, r0
    1258:	00040000 	andeq	r0, r4, r0
    125c:	9f5101f3 	svcls	0x005101f3
	...
    1268:	00340000 	eorseq	r0, r4, r0
    126c:	00640000 	rsbeq	r0, r4, r0
    1270:	00010000 	andeq	r0, r1, r0
    1274:	00000054 	andeq	r0, r0, r4, asr r0
    1278:	00000000 	andeq	r0, r0, r0
    127c:	40000000 	andmi	r0, r0, r0
    1280:	64000000 	strvs	r0, [r0], #-0
    1284:	01000000 	mrseq	r0, (UNDEF: 0)
    1288:	00005600 	andeq	r5, r0, r0, lsl #12
	...
    1294:	00010100 	andeq	r0, r1, r0, lsl #2
    1298:	00480000 	subeq	r0, r8, r0
    129c:	00500000 	subseq	r0, r0, r0
    12a0:	00010000 	andeq	r0, r1, r0
    12a4:	00005050 	andeq	r5, r0, r0, asr r0
    12a8:	00005000 	andeq	r5, r0, r0
    12ac:	51000100 	mrspl	r0, (UNDEF: 16)
    12b0:	00000050 	andeq	r0, r0, r0, asr r0
    12b4:	00000054 	andeq	r0, r0, r4, asr r0
    12b8:	00750009 	rsbseq	r0, r5, r9
    12bc:	71240074 			; <UNDEFINED> instruction: 0x71240074
    12c0:	549f2100 	ldrpl	r2, [pc], #256	; 12c8 <__code_start__-0x6d38>
    12c4:	5b000000 	blpl	12cc <__code_start__-0x6d34>
    12c8:	01000000 	mrseq	r0, (UNDEF: 0)
    12cc:	00005100 	andeq	r5, r0, r0, lsl #2
    12d0:	00000000 	andeq	r0, r0, r0
	...

Disassembly of section .debug_aranges:

00000000 <.debug_aranges>:
   0:	0000001c 	andeq	r0, r0, ip, lsl r0
   4:	00000002 	andeq	r0, r0, r2
   8:	00040000 	andeq	r0, r4, r0
   c:	00000000 	andeq	r0, r0, r0
  10:	00008038 	andeq	r8, r0, r8, lsr r0
  14:	00000388 	andeq	r0, r0, r8, lsl #7
	...
  20:	0000001c 	andeq	r0, r0, ip, lsl r0
  24:	09520002 	ldmdbeq	r2, {r1}^
  28:	00040000 	andeq	r0, r4, r0
  2c:	00000000 	andeq	r0, r0, r0
  30:	000083c0 	andeq	r8, r0, r0, asr #7
  34:	00000058 	andeq	r0, r0, r8, asr r0
	...
  40:	0000001c 	andeq	r0, r0, ip, lsl r0
  44:	0af30002 	beq	ffcc0054 <__bss_end__+0xffcb67a4>
  48:	00040000 	andeq	r0, r4, r0
  4c:	00000000 	andeq	r0, r0, r0
  50:	00008418 	andeq	r8, r0, r8, lsl r4
  54:	0000003c 	andeq	r0, r0, ip, lsr r0
	...
  60:	0000001c 	andeq	r0, r0, ip, lsl r0
  64:	0c400002 	mcrreq	0, 0, r0, r0, cr2
  68:	00040000 	andeq	r0, r4, r0
  6c:	00000000 	andeq	r0, r0, r0
  70:	00008454 	andeq	r8, r0, r4, asr r4
  74:	00000034 	andeq	r0, r0, r4, lsr r0
	...
  80:	0000001c 	andeq	r0, r0, ip, lsl r0
  84:	0d370002 	ldceq	0, cr0, [r7, #-8]!
  88:	00040000 	andeq	r0, r4, r0
  8c:	00000000 	andeq	r0, r0, r0
  90:	00008488 	andeq	r8, r0, r8, lsl #9
  94:	00000740 	andeq	r0, r0, r0, asr #14
	...
  a0:	0000001c 	andeq	r0, r0, ip, lsl r0
  a4:	18120002 	ldmdane	r2, {r1}
  a8:	00040000 	andeq	r0, r4, r0
  ac:	00000000 	andeq	r0, r0, r0
  b0:	00008bc8 	andeq	r8, r0, r8, asr #23
  b4:	0000002c 	andeq	r0, r0, ip, lsr #32
	...
  c0:	0000001c 	andeq	r0, r0, ip, lsl r0
  c4:	19450002 	stmdbne	r5, {r1}^
  c8:	00040000 	andeq	r0, r4, r0
  cc:	00000000 	andeq	r0, r0, r0
  d0:	00008bf4 	strdeq	r8, [r0], -r4
  d4:	0000003c 	andeq	r0, r0, ip, lsr r0
	...
  e0:	0000001c 	andeq	r0, r0, ip, lsl r0
  e4:	1ad20002 	bne	ff4800f4 <__bss_end__+0xff476844>
  e8:	00040000 	andeq	r0, r4, r0
  ec:	00000000 	andeq	r0, r0, r0
  f0:	00008c30 	andeq	r8, r0, r0, lsr ip
  f4:	00000004 	andeq	r0, r0, r4
	...
 100:	0000001c 	andeq	r0, r0, ip, lsl r0
 104:	1ba40002 	blne	fe900114 <__bss_end__+0xfe8f6864>
 108:	00040000 	andeq	r0, r4, r0
 10c:	00000000 	andeq	r0, r0, r0
 110:	00008c34 	andeq	r8, r0, r4, lsr ip
 114:	00000080 	andeq	r0, r0, r0, lsl #1
	...
 120:	0000001c 	andeq	r0, r0, ip, lsl r0
 124:	1dde0002 	ldclne	0, cr0, [lr, #8]
 128:	00040000 	andeq	r0, r4, r0
 12c:	00000000 	andeq	r0, r0, r0
 130:	00008cb4 			; <UNDEFINED> instruction: 0x00008cb4
 134:	00000084 	andeq	r0, r0, r4, lsl #1
	...
 140:	0000001c 	andeq	r0, r0, ip, lsl r0
 144:	202f0002 	eorcs	r0, pc, r2
 148:	00040000 	andeq	r0, r4, r0
 14c:	00000000 	andeq	r0, r0, r0
 150:	00008d38 	andeq	r8, r0, r8, lsr sp
 154:	000001f0 	strdeq	r0, [r0], -r0	; <UNPREDICTABLE>
	...
 160:	0000001c 	andeq	r0, r0, ip, lsl r0
 164:	26000002 	strcs	r0, [r0], -r2
 168:	00040000 	andeq	r0, r4, r0
 16c:	00000000 	andeq	r0, r0, r0
 170:	00008f28 	andeq	r8, r0, r8, lsr #30
 174:	00000034 	andeq	r0, r0, r4, lsr r0
	...
 180:	0000001c 	andeq	r0, r0, ip, lsl r0
 184:	273b0002 	ldrcs	r0, [fp, -r2]!
 188:	00040000 	andeq	r0, r4, r0
 18c:	00000000 	andeq	r0, r0, r0
 190:	00008f5c 	andeq	r8, r0, ip, asr pc
 194:	0000002c 	andeq	r0, r0, ip, lsr #32
	...
 1a0:	0000001c 	andeq	r0, r0, ip, lsl r0
 1a4:	28360002 	ldmdacs	r6!, {r1}
 1a8:	00040000 	andeq	r0, r4, r0
 1ac:	00000000 	andeq	r0, r0, r0
 1b0:	00008f88 	andeq	r8, r0, r8, lsl #31
 1b4:	00000020 	andeq	r0, r0, r0, lsr #32
	...
 1c0:	0000001c 	andeq	r0, r0, ip, lsl r0
 1c4:	29490002 	stmdbcs	r9, {r1}^
 1c8:	00040000 	andeq	r0, r4, r0
 1cc:	00000000 	andeq	r0, r0, r0
 1d0:	00008fa8 	andeq	r8, r0, r8, lsr #31
 1d4:	0000002c 	andeq	r0, r0, ip, lsr #32
	...
 1e0:	0000001c 	andeq	r0, r0, ip, lsl r0
 1e4:	2a9b0002 	bcs	fe6c01f4 <__bss_end__+0xfe6b6944>
 1e8:	00040000 	andeq	r0, r4, r0
 1ec:	00000000 	andeq	r0, r0, r0
 1f0:	00008fd4 	ldrdeq	r8, [r0], -r4
 1f4:	00000004 	andeq	r0, r0, r4
	...
 200:	0000001c 	andeq	r0, r0, ip, lsl r0
 204:	2b6d0002 	blcs	1b40214 <__bss_end__+0x1b36964>
 208:	00040000 	andeq	r0, r4, r0
 20c:	00000000 	andeq	r0, r0, r0
 210:	00008ff0 	strdeq	r8, [r0], -r0
 214:	0000011c 	andeq	r0, r0, ip, lsl r1
	...

Disassembly of section .debug_ranges:

00000000 <.debug_ranges>:
   0:	000000d4 	ldrdeq	r0, [r0], -r4
   4:	000000d8 	ldrdeq	r0, [r0], -r8
   8:	000000dc 	ldrdeq	r0, [r0], -ip
   c:	00000120 	andeq	r0, r0, r0, lsr #2
	...
  18:	000000e8 	andeq	r0, r0, r8, ror #1
  1c:	00000114 	andeq	r0, r0, r4, lsl r1
  20:	00000118 	andeq	r0, r0, r8, lsl r1
  24:	00000120 	andeq	r0, r0, r0, lsr #2
	...
  30:	00008c34 	andeq	r8, r0, r4, lsr ip
  34:	00008cb4 			; <UNDEFINED> instruction: 0x00008cb4
	...
  40:	00008fa8 	andeq	r8, r0, r8, lsr #31
  44:	00008fd4 	ldrdeq	r8, [r0], -r4
	...

Disassembly of section .debug_line:

00000000 <.debug_line>:
       0:	00000418 	andeq	r0, r0, r8, lsl r4
       4:	00f90003 	rscseq	r0, r9, r3
       8:	01020000 	mrseq	r0, (UNDEF: 2)
       c:	000d0efb 	strdeq	r0, [sp], -fp
      10:	01010101 	tsteq	r1, r1, lsl #2
      14:	01000000 	mrseq	r0, (UNDEF: 0)
      18:	2f010000 	svccs	0x00010000
      1c:	2f74706f 	svccs	0x0074706f
      20:	656d6f68 	strbvs	r6, [sp, #-3944]!	; 0xfffff098
      24:	77657262 	strbvc	r7, [r5, -r2, ror #4]!
      28:	6c65432f 	stclvs	3, cr4, [r5], #-188	; 0xffffff44
      2c:	2f72616c 	svccs	0x0072616c
      30:	2d6d7261 	sfmcs	f7, 2, [sp, #-388]!	; 0xfffffe7c
      34:	656e6f6e 	strbvs	r6, [lr, #-3950]!	; 0xfffff092
      38:	6261652d 	rsbvs	r6, r1, #188743680	; 0xb400000
      3c:	65742d69 	ldrbvs	r2, [r4, #-3433]!	; 0xfffff297
      40:	392f7473 	stmdbcc	pc!, {r0, r1, r4, r5, r6, sl, ip, sp, lr}	; <UNPREDICTABLE>
      44:	3130322d 	teqcc	r0, sp, lsr #4
      48:	2d347139 	ldfcss	f7, [r4, #-228]!	; 0xffffff1c
      4c:	30317363 	eorscc	r7, r1, r3, ror #6
      50:	6c2f6537 	cfstr32vs	mvfx6, [pc], #-220	; ffffff7c <__bss_end__+0xffff66cc>
      54:	672f6269 	strvs	r6, [pc, -r9, ror #4]!
      58:	612f6363 			; <UNDEFINED> instruction: 0x612f6363
      5c:	6e2d6d72 	mcrvs	13, 1, r6, cr13, cr2, {3}
      60:	2d656e6f 	stclcs	14, cr6, [r5, #-444]!	; 0xfffffe44
      64:	69626165 	stmdbvs	r2!, {r0, r2, r5, r6, r8, sp, lr}^
      68:	322e392f 	eorcc	r3, lr, #770048	; 0xbc000
      6c:	692f312e 	stmdbvs	pc!, {r1, r2, r3, r5, r8, ip, sp}	; <UNPREDICTABLE>
      70:	756c636e 	strbvc	r6, [ip, #-878]!	; 0xfffffc92
      74:	2f006564 	svccs	0x00006564
      78:	72657355 	rsbvc	r7, r5, #1409286145	; 0x54000001
      7c:	616a2f73 	smcvs	41715	; 0xa2f3
      80:	77646572 			; <UNDEFINED> instruction: 0x77646572
      84:	73736965 	cmnvc	r3, #1654784	; 0x194000
      88:	67726562 	ldrbvs	r6, [r2, -r2, ror #10]!
      8c:	756f432f 	strbvc	r4, [pc, #-815]!	; fffffd65 <__bss_end__+0xffff64b5>
      90:	73657372 	cmnvc	r5, #-939524095	; 0xc8000001
      94:	3173632f 	cmncc	r3, pc, lsr #6
      98:	2f653034 	svccs	0x00653034
      9c:	34327363 	ldrtcc	r7, [r2], #-867	; 0xfffffc9d
      a0:	2d786c30 	ldclcs	12, cr6, [r8, #-192]!	; 0xffffff40
      a4:	70733232 	rsbsvc	r3, r3, r2, lsr r2
      a8:	6c2f2f72 	stcvs	15, cr2, [pc], #-456	; fffffee8 <__bss_end__+0xffff6638>
      ac:	69706269 	ldmdbvs	r0!, {r0, r3, r5, r6, r9, sp, lr}^
      b0:	636e692f 	cmnvs	lr, #770048	; 0xbc000
      b4:	6564756c 	strbvs	r7, [r4, #-1388]!	; 0xfffffa94
      b8:	2f2e2e00 	svccs	0x002e2e00
      bc:	78696e75 	stmdavc	r9!, {r0, r2, r4, r5, r6, r9, sl, fp, sp, lr}^
      c0:	6469732d 	strbtvs	r7, [r9], #-813	; 0xfffffcd3
      c4:	69000065 	stmdbvs	r0, {r0, r2, r5, r6}
      c8:	632d746e 			; <UNDEFINED> instruction: 0x632d746e
      cc:	69706d6f 	ldmdbvs	r0!, {r0, r1, r2, r3, r5, r6, r8, sl, fp, sp, lr}^
      d0:	632e656c 			; <UNDEFINED> instruction: 0x632e656c
      d4:	00000000 	andeq	r0, r0, r0
      d8:	69647473 	stmdbvs	r4!, {r0, r1, r4, r5, r6, sl, ip, sp, lr}^
      dc:	672d746e 	strvs	r7, [sp, -lr, ror #8]!
      e0:	682e6363 	stmdavs	lr!, {r0, r1, r5, r6, r8, r9, sp, lr}
      e4:	00000100 	andeq	r0, r0, r0, lsl #2
      e8:	2e697072 	mcrcs	0, 3, r7, cr9, cr2, {3}
      ec:	00020068 	andeq	r0, r2, r8, rrx
      f0:	6d726100 	ldfvse	f6, [r2, #-0]
      f4:	692d3676 	pushvs	{r1, r2, r4, r5, r6, r9, sl, ip, sp}
      f8:	7374736e 	cmnvc	r4, #-1207959551	; 0xb8000001
      fc:	0300682e 	movweq	r6, #2094	; 0x82e
     100:	05000000 	streq	r0, [r0, #-0]
     104:	0205000e 	andeq	r0, r5, #14, 0
     108:	00008038 	andeq	r8, r0, r8, lsr r0
     10c:	05010b03 	streq	r0, [r1, #-2819]	; 0xfffff4fd
     110:	13050110 	movwne	r0, #20752	; 0x5110
     114:	01050106 	tsteq	r5, r6, lsl #2
     118:	060e0582 	streq	r0, [lr], -r2, lsl #11
     11c:	0110054b 	tsteq	r0, fp, asr #10
     120:	01061305 	tsteq	r6, r5, lsl #6
     124:	05820105 	streq	r0, [r2, #261]	; 0x105
     128:	054b060e 	strbeq	r0, [fp, #-1550]	; 0xfffff9f2
     12c:	13050110 	movwne	r0, #20752	; 0x5110
     130:	01050106 	tsteq	r5, r6, lsl #2
     134:	060e0582 	streq	r0, [lr], -r2, lsl #11
     138:	0110054b 	tsteq	r0, fp, asr #10
     13c:	01061305 	tsteq	r6, r5, lsl #6
     140:	05820105 	streq	r0, [r2, #261]	; 0x105
     144:	054b060e 	strbeq	r0, [fp, #-1550]	; 0xfffff9f2
     148:	13050110 	movwne	r0, #20752	; 0x5110
     14c:	01050106 	tsteq	r5, r6, lsl #2
     150:	060e0582 	streq	r0, [lr], -r2, lsl #11
     154:	0110054b 	tsteq	r0, fp, asr #10
     158:	01061305 	tsteq	r6, r5, lsl #6
     15c:	05820105 	streq	r0, [r2, #261]	; 0x105
     160:	054b060e 	strbeq	r0, [fp, #-1550]	; 0xfffff9f2
     164:	13050110 	movwne	r0, #20752	; 0x5110
     168:	01050106 	tsteq	r5, r6, lsl #2
     16c:	060e0582 	streq	r0, [lr], -r2, lsl #11
     170:	0110054b 	tsteq	r0, fp, asr #10
     174:	01061305 	tsteq	r6, r5, lsl #6
     178:	05820105 	streq	r0, [r2, #261]	; 0x105
     17c:	22030634 	andcs	r0, r3, #52, 12	; 0x3400000
     180:	0501064a 	streq	r0, [r1, #-1610]	; 0xfffff9b6
     184:	134b0605 	movtne	r0, #46597	; 0xb605
     188:	06110515 			; <UNDEFINED> instruction: 0x06110515
     18c:	06050501 	streq	r0, [r5], -r1, lsl #10
     190:	01090569 	tsteq	r9, r9, ror #10
     194:	01061205 	tsteq	r6, r5, lsl #4
     198:	052b0d05 	streq	r0, [fp, #-3333]!	; 0xfffff2fb
     19c:	04020019 	streq	r0, [r2], #-25	; 0xffffffe7
     1a0:	05310601 	ldreq	r0, [r1, #-1537]!	; 0xfffff9ff
     1a4:	0402001f 	streq	r0, [r2], #-31	; 0xffffffe1
     1a8:	05010601 	streq	r0, [r1, #-1537]	; 0xfffff9ff
     1ac:	04020005 	streq	r0, [r2], #-5
     1b0:	09052e01 	stmdbeq	r5, {r0, r9, sl, fp, sp}
     1b4:	03040200 	movweq	r0, #16896	; 0x4200
     1b8:	21054b06 	tstcs	r5, r6, lsl #22
     1bc:	03040200 	movweq	r0, #16896	; 0x4200
     1c0:	09050106 	stmdbeq	r5, {r1, r2, r8}
     1c4:	03040200 	movweq	r0, #16896	; 0x4200
     1c8:	30056706 	andcc	r6, r5, r6, lsl #14
     1cc:	03040200 	movweq	r0, #16896	; 0x4200
     1d0:	18050106 	stmdane	r5, {r1, r2, r8}
     1d4:	03040200 	movweq	r0, #16896	; 0x4200
     1d8:	2e6c0306 	cdpcs	3, 6, cr0, cr12, cr6, {0}
     1dc:	02000505 	andeq	r0, r0, #20971520	; 0x1400000
     1e0:	05130304 	ldreq	r0, [r3, #-772]	; 0xfffffcfc
     1e4:	04020024 	streq	r0, [r2], #-36	; 0xffffffdc
     1e8:	00010603 	andeq	r0, r1, r3, lsl #12
     1ec:	2e030402 	cdpcs	4, 0, cr0, cr3, cr2, {0}
     1f0:	02000d05 	andeq	r0, r0, #320	; 0x140
     1f4:	052e0304 	streq	r0, [lr, #-772]!	; 0xfffffcfc
     1f8:	04020005 	streq	r0, [r2], #-5
     1fc:	052f0603 	streq	r0, [pc, #-1539]!	; fffffc01 <__bss_end__+0xffff6351>
     200:	0402001e 	streq	r0, [r2], #-30	; 0xffffffe2
     204:	05010603 	streq	r0, [r1, #-1539]	; 0xfffff9fd
     208:	04020017 	streq	r0, [r2], #-23	; 0xffffffe9
     20c:	02002e03 	andeq	r2, r0, #3, 28	; 0x30
     210:	052e0304 	streq	r0, [lr, #-772]!	; 0xfffffcfc
     214:	04020015 	streq	r0, [r2], #-21	; 0xffffffeb
     218:	01120303 	tsteq	r2, r3, lsl #6
     21c:	02002405 	andeq	r2, r0, #83886080	; 0x5000000
     220:	48060304 	stmdami	r6, {r2, r8, r9}
     224:	02002505 	andeq	r2, r0, #20971520	; 0x1400000
     228:	01060304 	tsteq	r6, r4, lsl #6
     22c:	02001105 	andeq	r1, r0, #1073741825	; 0x40000001
     230:	00300304 	eorseq	r0, r0, r4, lsl #6
     234:	2e030402 	cdpcs	4, 0, cr0, cr3, cr2, {0}
     238:	03040200 	movweq	r0, #16896	; 0x4200
     23c:	0605052e 	streq	r0, [r5], -lr, lsr #10
     240:	060d0516 			; <UNDEFINED> instruction: 0x060d0516
     244:	2e110501 	cfmul32cs	mvfx0, mvfx1, mvfx1
     248:	86060905 	strhi	r0, [r6], -r5, lsl #18
     24c:	01062105 	tsteq	r6, r5, lsl #2
     250:	0609052e 	streq	r0, [r9], -lr, lsr #10
     254:	062f052f 	strteq	r0, [pc], -pc, lsr #10
     258:	18052e01 	stmdane	r5, {r0, r9, sl, fp, sp}
     25c:	2e670306 	cdpcs	3, 6, cr0, cr7, cr6, {0}
     260:	05130505 	ldreq	r0, [r3, #-1285]	; 0xfffffafb
     264:	2e010624 	cfmadd32cs	mvax1, mvfx0, mvfx1, mvfx4
     268:	052e0d05 	streq	r0, [lr, #-3333]!	; 0xfffff2fb
     26c:	052f0605 	streq	r0, [pc, #-1541]!	; fffffc6f <__bss_end__+0xffff63bf>
     270:	0501061e 	streq	r0, [r1, #-1566]	; 0xfffff9e2
     274:	052e2e17 	streq	r2, [lr, #-3607]!	; 0xfffff1e9
     278:	01170315 	tsteq	r7, r5, lsl r3
     27c:	4e060505 	cfsh32mi	mvfx0, mvfx6, #5
     280:	13060105 	movwne	r0, #24837	; 0x6105
     284:	03063105 	movweq	r3, #24837	; 0x6105
     288:	01068248 	tsteq	r6, r8, asr #4
     28c:	67060505 	strvs	r0, [r6, -r5, lsl #10]
     290:	05010905 	streq	r0, [r1, #-2309]	; 0xfffff6fb
     294:	05010612 	streq	r0, [r1, #-1554]	; 0xfffff9ee
     298:	04020019 	streq	r0, [r2], #-25	; 0xffffffe7
     29c:	052e0601 	streq	r0, [lr, #-1537]!	; 0xfffff9ff
     2a0:	04020005 	streq	r0, [r2], #-5
     2a4:	05010601 	streq	r0, [r1, #-1537]	; 0xfffff9ff
     2a8:	04020009 	streq	r0, [r2], #-9
     2ac:	054b0603 	strbeq	r0, [fp, #-1539]	; 0xfffff9fd
     2b0:	0402000d 	streq	r0, [r2], #-13
     2b4:	05010603 	streq	r0, [r1, #-1539]	; 0xfffff9fd
     2b8:	04020009 	streq	r0, [r2], #-9
     2bc:	20052e03 	andcs	r2, r5, r3, lsl #28
     2c0:	03040200 	movweq	r0, #16896	; 0x4200
     2c4:	21052d06 	tstcs	r5, r6, lsl #26
     2c8:	03040200 	movweq	r0, #16896	; 0x4200
     2cc:	02000106 	andeq	r0, r0, #-2147483647	; 0x80000001
     2d0:	062e0304 	strteq	r0, [lr], -r4, lsl #6
     2d4:	03050536 	movweq	r0, #21814	; 0x5536
     2d8:	01052e09 	tsteq	r5, r9, lsl #28
     2dc:	14056706 	strne	r6, [r5], #-1798	; 0xfffff8fa
     2e0:	4a290306 	bmi	a40f00 <__bss_end__+0xa37650>
     2e4:	054b0505 	strbeq	r0, [fp, #-1285]	; 0xfffffafb
     2e8:	0501060c 	streq	r0, [r1, #-1548]	; 0xfffff9f4
     2ec:	0b030605 	bleq	c1b08 <__bss_end__+0xb8258>
     2f0:	4a0101ba 	bmi	409e0 <__bss_end__+0x37130>
     2f4:	09051a14 	stmdbeq	r5, {r2, r4, r9, fp, ip}
     2f8:	05050106 	streq	r0, [r5, #-262]	; 0xfffffefa
     2fc:	01016706 	tsteq	r1, r6, lsl #14
     300:	062e0101 	strteq	r0, [lr], -r1, lsl #2
     304:	66010601 	strvs	r0, [r1], -r1, lsl #12
     308:	66666666 	strbtvs	r6, [r6], -r6, ror #12
     30c:	66666666 	strbtvs	r6, [r6], -r6, ror #12
     310:	2e010166 	adfcssz	f0, f1, f6
     314:	01060106 	tsteq	r6, r6, lsl #2
     318:	01060106 	tsteq	r6, r6, lsl #2
     31c:	06664a06 	strbteq	r4, [r6], -r6, lsl #20
     320:	00011301 	andeq	r1, r1, r1, lsl #6
     324:	66010402 	strvs	r0, [r1], -r2, lsl #8
     328:	01040200 	mrseq	r0, R12_usr
     32c:	0402002e 	streq	r0, [r2], #-46	; 0xffffffd2
     330:	00580801 	subseq	r0, r8, r1, lsl #16
     334:	2e020402 	cdpcs	4, 0, cr0, cr2, cr2, {0}
     338:	02040200 	andeq	r0, r4, #0, 4
     33c:	001b0515 	andseq	r0, fp, r5, lsl r5
     340:	06020402 	streq	r0, [r2], -r2, lsl #8
     344:	00190501 	andseq	r0, r9, r1, lsl #10
     348:	66020402 	strvs	r0, [r2], -r2, lsl #8
     34c:	02000505 	andeq	r0, r0, #20971520	; 0x1400000
     350:	4c060204 	sfmmi	f0, 4, [r6], {4}
     354:	02000905 	andeq	r0, r0, #81920	; 0x14000
     358:	01060204 	tsteq	r6, r4, lsl #4
     35c:	02000505 	andeq	r0, r0, #20971520	; 0x1400000
     360:	4b060204 	blmi	180b78 <__bss_end__+0x1772c8>
     364:	02040200 	andeq	r0, r4, #0, 4
     368:	04020001 	streq	r0, [r2], #-1
     36c:	02000102 	andeq	r0, r0, #-2147483648	; 0x80000000
     370:	00010204 	andeq	r0, r1, r4, lsl #4
     374:	01020402 	tsteq	r2, r2, lsl #8
     378:	02040200 	andeq	r0, r4, #0, 4
     37c:	0402002e 	streq	r0, [r2], #-46	; 0xffffffd2
     380:	00010602 	andeq	r0, r1, r2, lsl #12
     384:	06020402 	streq	r0, [r2], -r2, lsl #8
     388:	04020001 	streq	r0, [r2], #-1
     38c:	02002e02 	andeq	r2, r0, #2, 28
     390:	002e0204 	eoreq	r0, lr, r4, lsl #4
     394:	2e020402 	cdpcs	4, 0, cr0, cr2, cr2, {0}
     398:	02040200 	andeq	r0, r4, #0, 4
     39c:	0402002e 	streq	r0, [r2], #-46	; 0xffffffd2
     3a0:	02002e02 	andeq	r2, r0, #2, 28
     3a4:	002e0204 	eoreq	r0, lr, r4, lsl #4
     3a8:	2e020402 	cdpcs	4, 0, cr0, cr2, cr2, {0}
     3ac:	02040200 	andeq	r0, r4, #0, 4
     3b0:	0402002e 	streq	r0, [r2], #-46	; 0xffffffd2
     3b4:	02002e02 	andeq	r2, r0, #2, 28
     3b8:	002e0204 	eoreq	r0, lr, r4, lsl #4
     3bc:	01020402 	tsteq	r2, r2, lsl #8
     3c0:	02040200 	andeq	r0, r4, #0, 4
     3c4:	04020001 	streq	r0, [r2], #-1
     3c8:	02002e02 	andeq	r2, r0, #2, 28
     3cc:	01060204 	tsteq	r6, r4, lsl #4
     3d0:	02040200 	andeq	r0, r4, #0, 4
     3d4:	02000106 	andeq	r0, r0, #-2147483647	; 0x80000001
     3d8:	01060204 	tsteq	r6, r4, lsl #4
     3dc:	02040200 	andeq	r0, r4, #0, 4
     3e0:	02000106 	andeq	r0, r0, #-2147483647	; 0x80000001
     3e4:	4a060204 	bmi	180bfc <__bss_end__+0x17734c>
     3e8:	02040200 	andeq	r0, r4, #0, 4
     3ec:	04020066 	streq	r0, [r2], #-102	; 0xffffff9a
     3f0:	00010602 	andeq	r0, r1, r2, lsl #12
     3f4:	13020402 	movwne	r0, #9218	; 0x2402
     3f8:	02040200 	andeq	r0, r4, #0, 4
     3fc:	04020001 	streq	r0, [r2], #-1
     400:	02006601 	andeq	r6, r0, #1048576	; 0x100000
     404:	002e0104 	eoreq	r0, lr, r4, lsl #2
     408:	08010402 	stmdaeq	r1, {r1, sl}
     40c:	04020058 	streq	r0, [r2], #-88	; 0xffffffa8
     410:	02002e02 	andeq	r2, r0, #2, 28
     414:	02140204 	andseq	r0, r4, #4, 4	; 0x40000000
     418:	01010018 	tsteq	r1, r8, lsl r0
     41c:	00000128 	andeq	r0, r0, r8, lsr #2
     420:	00f60003 	rscseq	r0, r6, r3
     424:	01020000 	mrseq	r0, (UNDEF: 2)
     428:	000d0efb 	strdeq	r0, [sp], -fp
     42c:	01010101 	tsteq	r1, r1, lsl #2
     430:	01000000 	mrseq	r0, (UNDEF: 0)
     434:	2e010000 	cdpcs	0, 0, cr0, cr1, cr0, {0}
     438:	62696c2f 	rsbvs	r6, r9, #12032	; 0x2f00
     43c:	6f2f0063 	svcvs	0x002f0063
     440:	682f7470 	stmdavs	pc!, {r4, r5, r6, sl, ip, sp, lr}	; <UNPREDICTABLE>
     444:	62656d6f 	rsbvs	r6, r5, #7104	; 0x1bc0
     448:	2f776572 	svccs	0x00776572
     44c:	6c6c6543 	cfstr64vs	mvdx6, [ip], #-268	; 0xfffffef4
     450:	612f7261 			; <UNDEFINED> instruction: 0x612f7261
     454:	6e2d6d72 	mcrvs	13, 1, r6, cr13, cr2, {3}
     458:	2d656e6f 	stclcs	14, cr6, [r5, #-444]!	; 0xfffffe44
     45c:	69626165 	stmdbvs	r2!, {r0, r2, r5, r6, r8, sp, lr}^
     460:	7365742d 	cmnvc	r5, #754974720	; 0x2d000000
     464:	2d392f74 	ldccs	15, cr2, [r9, #-464]!	; 0xfffffe30
     468:	39313032 	ldmdbcc	r1!, {r1, r4, r5, ip, sp}
     46c:	632d3471 			; <UNDEFINED> instruction: 0x632d3471
     470:	37303173 			; <UNDEFINED> instruction: 0x37303173
     474:	696c2f65 	stmdbvs	ip!, {r0, r2, r5, r6, r8, r9, sl, fp, sp}^
     478:	63672f62 	cmnvs	r7, #392	; 0x188
     47c:	72612f63 	rsbvc	r2, r1, #396	; 0x18c
     480:	6f6e2d6d 	svcvs	0x006e2d6d
     484:	652d656e 	strvs	r6, [sp, #-1390]!	; 0xfffffa92
     488:	2f696261 	svccs	0x00696261
     48c:	2e322e39 	mrccs	14, 1, r2, cr2, cr9, {1}
     490:	6e692f31 	mcrvs	15, 3, r2, cr9, cr1, {1}
     494:	64756c63 	ldrbtvs	r6, [r5], #-3171	; 0xfffff39d
     498:	552f0065 	strpl	r0, [pc, #-101]!	; 43b <__code_start__-0x7bc5>
     49c:	73726573 	cmnvc	r2, #482344960	; 0x1cc00000
     4a0:	72616a2f 	rsbvc	r6, r1, #192512	; 0x2f000
     4a4:	65776465 	ldrbvs	r6, [r7, #-1125]!	; 0xfffffb9b
     4a8:	62737369 	rsbsvs	r7, r3, #-1543503871	; 0xa4000001
     4ac:	2f677265 	svccs	0x00677265
     4b0:	72756f43 	rsbsvc	r6, r5, #268	; 0x10c
     4b4:	2f736573 	svccs	0x00736573
     4b8:	34317363 	ldrtcc	r7, [r1], #-867	; 0xfffffc9d
     4bc:	632f6530 			; <UNDEFINED> instruction: 0x632f6530
     4c0:	30343273 	eorscc	r3, r4, r3, ror r2
     4c4:	322d786c 	eorcc	r7, sp, #108, 16	; 0x6c0000
     4c8:	72707332 	rsbsvc	r7, r0, #-939524096	; 0xc8000000
     4cc:	696c2f2f 	stmdbvs	ip!, {r0, r1, r2, r3, r5, r8, r9, sl, fp, sp}^
     4d0:	2f697062 	svccs	0x00697062
     4d4:	6c636e69 	stclvs	14, cr6, [r3], #-420	; 0xfffffe5c
     4d8:	00656475 	rsbeq	r6, r5, r5, ror r4
     4dc:	69727000 	ldmdbvs	r2!, {ip, sp, lr}^
     4e0:	2e6b746e 	cdpcs	4, 6, cr7, cr11, cr14, {3}
     4e4:	00010063 	andeq	r0, r1, r3, rrx
     4e8:	64747300 	ldrbtvs	r7, [r4], #-768	; 0xfffffd00
     4ec:	2e677261 	cdpcs	2, 6, cr7, cr7, cr1, {3}
     4f0:	00020068 	andeq	r0, r2, r8, rrx
     4f4:	69707200 	ldmdbvs	r0!, {r9, ip, sp, lr}^
     4f8:	0300682e 	movweq	r6, #2094	; 0x82e
     4fc:	623c0000 	eorsvs	r0, ip, #0, 0
     500:	746c6975 	strbtvc	r6, [ip], #-2421	; 0xfffff68b
     504:	3e6e692d 	vmulcc.f16	s13, s28, s27	; <UNPREDICTABLE>
     508:	00000000 	andeq	r0, r0, r0
     50c:	702d6176 	eorvc	r6, sp, r6, ror r1
     510:	746e6972 	strbtvc	r6, [lr], #-2418	; 0xfffff68e
     514:	00682e6b 	rsbeq	r2, r8, fp, ror #28
     518:	00000001 	andeq	r0, r0, r1
     51c:	05002205 	streq	r2, [r0, #-517]	; 0xfffffdfb
     520:	0083c002 	addeq	ip, r3, r2
     524:	01061700 	tsteq	r6, r0, lsl #14
     528:	68060505 	stmdavs	r6, {r0, r2, r8, sl}
     52c:	09051413 	stmdbeq	r5, {r0, r1, r4, sl, ip}
     530:	0612054b 	ldreq	r0, [r2], -fp, asr #10
     534:	06050501 	streq	r0, [r5], -r1, lsl #10
     538:	660616bb 			; <UNDEFINED> instruction: 0x660616bb
     53c:	01053406 	tsteq	r5, r6, lsl #8
     540:	02661306 	rsbeq	r1, r6, #402653184	; 0x18000000
     544:	01010008 	tsteq	r1, r8
     548:	000000b0 	strheq	r0, [r0], -r0	; <UNPREDICTABLE>
     54c:	00720003 	rsbseq	r0, r2, r3
     550:	01020000 	mrseq	r0, (UNDEF: 2)
     554:	000d0efb 	strdeq	r0, [sp], -fp
     558:	01010101 	tsteq	r1, r1, lsl #2
     55c:	01000000 	mrseq	r0, (UNDEF: 0)
     560:	2e010000 	cdpcs	0, 0, cr0, cr1, cr0, {0}
     564:	62696c2f 	rsbvs	r6, r9, #12032	; 0x2f00
     568:	552f0063 	strpl	r0, [pc, #-99]!	; 50d <__code_start__-0x7af3>
     56c:	73726573 	cmnvc	r2, #482344960	; 0x1cc00000
     570:	72616a2f 	rsbvc	r6, r1, #192512	; 0x2f000
     574:	65776465 	ldrbvs	r6, [r7, #-1125]!	; 0xfffffb9b
     578:	62737369 	rsbsvs	r7, r3, #-1543503871	; 0xa4000001
     57c:	2f677265 	svccs	0x00677265
     580:	72756f43 	rsbsvc	r6, r5, #268	; 0x10c
     584:	2f736573 	svccs	0x00736573
     588:	34317363 	ldrtcc	r7, [r1], #-867	; 0xfffffc9d
     58c:	632f6530 			; <UNDEFINED> instruction: 0x632f6530
     590:	30343273 	eorscc	r3, r4, r3, ror r2
     594:	322d786c 	eorcc	r7, sp, #108, 16	; 0x6c0000
     598:	72707332 	rsbsvc	r7, r0, #-939524096	; 0xc8000000
     59c:	696c2f2f 	stmdbvs	ip!, {r0, r1, r2, r3, r5, r8, r9, sl, fp, sp}^
     5a0:	2f697062 	svccs	0x00697062
     5a4:	6c636e69 	stclvs	14, cr6, [r3], #-420	; 0xfffffe5c
     5a8:	00656475 	rsbeq	r6, r5, r5, ror r4
     5ac:	74757000 	ldrbtvc	r7, [r5], #-0
     5b0:	72616863 	rsbvc	r6, r1, #6488064	; 0x630000
     5b4:	0100632e 	tsteq	r0, lr, lsr #6
     5b8:	70720000 	rsbsvc	r0, r2, r0
     5bc:	00682e69 	rsbeq	r2, r8, r9, ror #28
     5c0:	00000002 	andeq	r0, r0, r2
     5c4:	05002405 	streq	r2, [r0, #-1029]	; 0xfffffbfb
     5c8:	00841802 	addeq	r1, r4, r2, lsl #16
     5cc:	01061400 	tsteq	r6, r0, lsl #8
     5d0:	4a062605 	bmi	189dec <__bss_end__+0x18053c>
     5d4:	052e3405 	streq	r3, [lr, #-1029]!	; 0xfffffbfb
     5d8:	05010601 	streq	r0, [r1, #-1537]	; 0xfffff9ff
     5dc:	054f061b 	strbeq	r0, [pc, #-1563]	; ffffffc9 <__bss_end__+0xffff6719>
     5e0:	11051305 	tstne	r5, r5, lsl #6
     5e4:	01050106 	tsteq	r5, r6, lsl #2
     5e8:	06230567 	strteq	r0, [r3], -r7, ror #10
     5ec:	13050567 	movwne	r0, #21863	; 0x5567
     5f0:	01061105 	tsteq	r6, r5, lsl #2
     5f4:	024b0105 	subeq	r0, fp, #1073741825	; 0x40000001
     5f8:	01010004 	tsteq	r1, r4
     5fc:	000000bd 	strheq	r0, [r0], -sp
     600:	006f0003 	rsbeq	r0, pc, r3
     604:	01020000 	mrseq	r0, (UNDEF: 2)
     608:	000d0efb 	strdeq	r0, [sp], -fp
     60c:	01010101 	tsteq	r1, r1, lsl #2
     610:	01000000 	mrseq	r0, (UNDEF: 0)
     614:	2e010000 	cdpcs	0, 0, cr0, cr1, cr0, {0}
     618:	62696c2f 	rsbvs	r6, r9, #12032	; 0x2f00
     61c:	552f0063 	strpl	r0, [pc, #-99]!	; 5c1 <__code_start__-0x7a3f>
     620:	73726573 	cmnvc	r2, #482344960	; 0x1cc00000
     624:	72616a2f 	rsbvc	r6, r1, #192512	; 0x2f000
     628:	65776465 	ldrbvs	r6, [r7, #-1125]!	; 0xfffffb9b
     62c:	62737369 	rsbsvs	r7, r3, #-1543503871	; 0xa4000001
     630:	2f677265 	svccs	0x00677265
     634:	72756f43 	rsbsvc	r6, r5, #268	; 0x10c
     638:	2f736573 	svccs	0x00736573
     63c:	34317363 	ldrtcc	r7, [r1], #-867	; 0xfffffc9d
     640:	632f6530 			; <UNDEFINED> instruction: 0x632f6530
     644:	30343273 	eorscc	r3, r4, r3, ror r2
     648:	322d786c 	eorcc	r7, sp, #108, 16	; 0x6c0000
     64c:	72707332 	rsbsvc	r7, r0, #-939524096	; 0xc8000000
     650:	696c2f2f 	stmdbvs	ip!, {r0, r1, r2, r3, r5, r8, r9, sl, fp, sp}^
     654:	2f697062 	svccs	0x00697062
     658:	6c636e69 	stclvs	14, cr6, [r3], #-420	; 0xfffffe5c
     65c:	00656475 	rsbeq	r6, r5, r5, ror r4
     660:	74757000 	ldrbtvc	r7, [r5], #-0
     664:	00632e6b 	rsbeq	r2, r3, fp, ror #28
     668:	72000001 	andvc	r0, r0, #1, 0
     66c:	682e6970 	stmdavs	lr!, {r4, r5, r6, r8, fp, sp, lr}
     670:	00000200 	andeq	r0, r0, r0, lsl #4
     674:	00220500 	eoreq	r0, r2, r0, lsl #10
     678:	84540205 	ldrbhi	r0, [r4], #-517	; 0xfffffdfb
     67c:	06150000 	ldreq	r0, [r5], -r0
     680:	06050501 	streq	r0, [r5], -r1, lsl #10
     684:	000b054b 	andeq	r0, fp, fp, asr #10
     688:	01010402 	tsteq	r1, r2, lsl #8
     68c:	02000505 	andeq	r0, r0, #20971520	; 0x1400000
     690:	2e060104 	adfcss	f0, f6, f4
     694:	02000905 	andeq	r0, r0, #81920	; 0x14000
     698:	4b060204 	blmi	180eb0 <__bss_end__+0x177600>
     69c:	02000f05 	andeq	r0, r0, #5, 30
     6a0:	05650204 	strbeq	r0, [r5, #-516]!	; 0xfffffdfc
     6a4:	04020010 	streq	r0, [r2], #-16
     6a8:	00010602 	andeq	r0, r1, r2, lsl #12
     6ac:	2e020402 	cdpcs	4, 0, cr0, cr2, cr2, {0}
     6b0:	32060505 	andcc	r0, r6, #20971520	; 0x1400000
     6b4:	13060105 	movwne	r0, #24837	; 0x6105
     6b8:	01000602 	tsteq	r0, r2, lsl #12
     6bc:	00061201 	andeq	r1, r6, r1, lsl #4
     6c0:	0c000300 	stceq	3, cr0, [r0], {-0}
     6c4:	02000001 	andeq	r0, r0, #1, 0
     6c8:	0d0efb01 	vstreq	d15, [lr, #-4]
     6cc:	01010100 	mrseq	r0, (UNDEF: 17)
     6d0:	00000001 	andeq	r0, r0, r1
     6d4:	01000001 	tsteq	r0, r1
     6d8:	696c2f2e 	stmdbvs	ip!, {r1, r2, r3, r5, r8, r9, sl, fp, sp}^
     6dc:	2f006362 	svccs	0x00006362
     6e0:	2f74706f 	svccs	0x0074706f
     6e4:	656d6f68 	strbvs	r6, [sp, #-3944]!	; 0xfffff098
     6e8:	77657262 	strbvc	r7, [r5, -r2, ror #4]!
     6ec:	6c65432f 	stclvs	3, cr4, [r5], #-188	; 0xffffff44
     6f0:	2f72616c 	svccs	0x0072616c
     6f4:	2d6d7261 	sfmcs	f7, 2, [sp, #-388]!	; 0xfffffe7c
     6f8:	656e6f6e 	strbvs	r6, [lr, #-3950]!	; 0xfffff092
     6fc:	6261652d 	rsbvs	r6, r1, #188743680	; 0xb400000
     700:	65742d69 	ldrbvs	r2, [r4, #-3433]!	; 0xfffff297
     704:	392f7473 	stmdbcc	pc!, {r0, r1, r4, r5, r6, sl, ip, sp, lr}	; <UNPREDICTABLE>
     708:	3130322d 	teqcc	r0, sp, lsr #4
     70c:	2d347139 	ldfcss	f7, [r4, #-228]!	; 0xffffff1c
     710:	30317363 	eorscc	r7, r1, r3, ror #6
     714:	6c2f6537 	cfstr32vs	mvfx6, [pc], #-220	; 640 <__code_start__-0x79c0>
     718:	672f6269 	strvs	r6, [pc, -r9, ror #4]!
     71c:	612f6363 			; <UNDEFINED> instruction: 0x612f6363
     720:	6e2d6d72 	mcrvs	13, 1, r6, cr13, cr2, {3}
     724:	2d656e6f 	stclcs	14, cr6, [r5, #-444]!	; 0xfffffe44
     728:	69626165 	stmdbvs	r2!, {r0, r2, r5, r6, r8, sp, lr}^
     72c:	322e392f 	eorcc	r3, lr, #770048	; 0xbc000
     730:	692f312e 	stmdbvs	pc!, {r1, r2, r3, r5, r8, ip, sp}	; <UNPREDICTABLE>
     734:	756c636e 	strbvc	r6, [ip, #-878]!	; 0xfffffc92
     738:	2f006564 	svccs	0x00006564
     73c:	72657355 	rsbvc	r7, r5, #1409286145	; 0x54000001
     740:	616a2f73 	smcvs	41715	; 0xa2f3
     744:	77646572 			; <UNDEFINED> instruction: 0x77646572
     748:	73736965 	cmnvc	r3, #1654784	; 0x194000
     74c:	67726562 	ldrbvs	r6, [r2, -r2, ror #10]!
     750:	756f432f 	strbvc	r4, [pc, #-815]!	; 429 <__code_start__-0x7bd7>
     754:	73657372 	cmnvc	r5, #-939524095	; 0xc8000001
     758:	3173632f 	cmncc	r3, pc, lsr #6
     75c:	2f653034 	svccs	0x00653034
     760:	34327363 	ldrtcc	r7, [r2], #-867	; 0xfffffc9d
     764:	2d786c30 	ldclcs	12, cr6, [r8, #-192]!	; 0xffffff40
     768:	70733232 	rsbsvc	r3, r3, r2, lsr r2
     76c:	6c2f2f72 	stcvs	15, cr2, [pc], #-456	; 5ac <__code_start__-0x7a54>
     770:	69706269 	ldmdbvs	r0!, {r0, r3, r5, r6, r9, sp, lr}^
     774:	636e692f 	cmnvs	lr, #770048	; 0xbc000
     778:	6564756c 	strbvs	r7, [r4, #-1388]!	; 0xfffffa94
     77c:	61760000 	cmnvs	r6, r0
     780:	6972702d 	ldmdbvs	r2!, {r0, r2, r3, r5, ip, sp, lr}^
     784:	2e6b746e 	cdpcs	4, 6, cr7, cr11, cr14, {3}
     788:	00010063 	andeq	r0, r1, r3, rrx
     78c:	64747300 	ldrbtvs	r7, [r4], #-768	; 0xfffffd00
     790:	2d746e69 	ldclcs	14, cr6, [r4, #-420]!	; 0xfffffe5c
     794:	2e636367 	cdpcs	3, 6, cr6, cr3, cr7, {3}
     798:	00020068 	andeq	r0, r2, r8, rrx
     79c:	69707200 	ldmdbvs	r0!, {r9, ip, sp, lr}^
     7a0:	0300682e 	movweq	r6, #2094	; 0x82e
     7a4:	70720000 	rsbsvc	r0, r2, r0
     7a8:	6e692d69 	cdpvs	13, 6, cr2, cr9, cr9, {3}
     7ac:	6e726574 	mrcvs	5, 3, r6, cr2, cr4, {3}
     7b0:	682e6c61 	stmdavs	lr!, {r0, r5, r6, sl, fp, sp, lr}
     7b4:	00000300 	andeq	r0, r0, r0, lsl #6
     7b8:	61647473 	smcvs	18243	; 0x4743
     7bc:	682e6772 	stmdavs	lr!, {r1, r4, r5, r6, r8, r9, sl, sp, lr}
     7c0:	00000200 	andeq	r0, r0, r0, lsl #4
     7c4:	6975623c 	ldmdbvs	r5!, {r2, r3, r4, r5, r9, sp, lr}^
     7c8:	692d746c 	pushvs	{r2, r3, r5, r6, sl, ip, sp, lr}
     7cc:	00003e6e 	andeq	r3, r0, lr, ror #28
     7d0:	05000000 	streq	r0, [r0, #-0]
     7d4:	0205001b 	andeq	r0, r5, #27, 0
     7d8:	00008488 	andeq	r8, r0, r8, lsl #9
     7dc:	05012603 	streq	r2, [r1, #-1539]	; 0xfffff9fd
     7e0:	2d05011d 	stfcss	f0, [r5, #-116]	; 0xffffff8c
     7e4:	01050106 	tsteq	r5, r6, lsl #2
     7e8:	33054a2e 	movwcc	r4, #23086	; 0x5a2e
     7ec:	02055106 	andeq	r5, r5, #-2147483647	; 0x80000001
     7f0:	06060513 			; <UNDEFINED> instruction: 0x06060513
     7f4:	06020501 	streq	r0, [r2], -r1, lsl #10
     7f8:	00080530 	andeq	r0, r8, r0, lsr r5
     7fc:	01010402 	tsteq	r1, r2, lsl #8
     800:	02000205 	andeq	r0, r0, #1342177280	; 0x50000000
     804:	01060104 	tsteq	r6, r4, lsl #2
     808:	02000305 	andeq	r0, r0, #335544320	; 0x14000000
     80c:	2f060204 	svccs	0x00060204
     810:	02000805 	andeq	r0, r0, #327680	; 0x50000
     814:	01060204 	tsteq	r6, r4, lsl #4
     818:	02001505 	andeq	r1, r0, #20971520	; 0x1400000
     81c:	49060204 	stmdbmi	r6, {r2, r9}
     820:	02001805 	andeq	r1, r0, #327680	; 0x50000
     824:	01060204 	tsteq	r6, r4, lsl #4
     828:	02040200 	andeq	r0, r4, #0, 4
     82c:	0602052e 	streq	r0, [r2], -lr, lsr #10
     830:	06050530 			; <UNDEFINED> instruction: 0x06050530
     834:	06020501 	streq	r0, [r2], -r1, lsl #10
     838:	0601054b 	streq	r0, [r1], -fp, asr #10
     83c:	063e0513 			; <UNDEFINED> instruction: 0x063e0513
     840:	14020531 	strne	r0, [r2], #-1329	; 0xfffffacf
     844:	01060e05 	tsteq	r6, r5, lsl #28
     848:	052e0605 	streq	r0, [lr, #-1541]!	; 0xfffff9fb
     84c:	052f0602 	streq	r0, [pc, #-1538]!	; 252 <__code_start__-0x7dae>
     850:	05010604 	streq	r0, [r1, #-1540]	; 0xfffff9fc
     854:	052f0603 	streq	r0, [pc, #-1539]!	; 259 <__code_start__-0x7da7>
     858:	05010611 	streq	r0, [r1, #-1553]	; 0xfffff9ef
     85c:	02052e09 	andeq	r2, r5, #144	; 0x90
     860:	05153006 	ldreq	r3, [r5, #-6]
     864:	05010607 	streq	r0, [r1, #-1543]	; 0xfffff9f9
     868:	0b052e02 	bleq	14c078 <__bss_end__+0x1427c8>
     86c:	01040200 	mrseq	r0, R12_usr
     870:	02052e06 	andeq	r2, r5, #96	; 0x60
     874:	01040200 	mrseq	r0, R12_usr
     878:	03050106 	movweq	r0, #20742	; 0x5106
     87c:	03040200 	movweq	r0, #16896	; 0x4200
     880:	0c052f06 	stceq	15, cr2, [r5], {6}
     884:	03040200 	movweq	r0, #16896	; 0x4200
     888:	0a050106 	beq	140ca8 <__bss_end__+0x1373f8>
     88c:	03040200 	movweq	r0, #16896	; 0x4200
     890:	0017052e 	andseq	r0, r7, lr, lsr #10
     894:	06030402 	streq	r0, [r3], -r2, lsl #8
     898:	0402002d 	streq	r0, [r2], #-45	; 0xffffffd3
     89c:	05010603 	streq	r0, [r1, #-1539]	; 0xfffff9fd
     8a0:	05300602 	ldreq	r0, [r0, #-1538]!	; 0xfffff9fe
     8a4:	2e010609 	cfmadd32cs	mvax0, mvfx0, mvfx1, mvfx9
     8a8:	30060205 	andcc	r0, r6, r5, lsl #4
     8ac:	13060105 	movwne	r0, #24837	; 0x6105
     8b0:	31064905 	tstcc	r6, r5, lsl #18
     8b4:	02050106 	andeq	r0, r5, #-2147483647	; 0x80000001
     8b8:	0405a006 	streq	sl, [r5], #-6
     8bc:	03050106 	movweq	r0, #20742	; 0x5106
     8c0:	09052f06 	stmdbeq	r5, {r1, r2, r8, r9, sl, fp, sp}
     8c4:	02050106 	andeq	r0, r5, #-2147483647	; 0x80000001
     8c8:	05133006 	ldreq	r3, [r3, #-6]
     8cc:	0501060b 	streq	r0, [r1, #-1547]	; 0xfffff9f5
     8d0:	06300602 	ldrteq	r0, [r0], -r2, lsl #12
     8d4:	0604052e 	streq	r0, [r4], -lr, lsr #10
     8d8:	13152402 	tstne	r5, #33554432	; 0x2000000
     8dc:	01060f05 	tsteq	r6, r5, lsl #30
     8e0:	4a06052e 	bmi	181da0 <__bss_end__+0x1784f0>
     8e4:	4b060505 	blmi	181d00 <__bss_end__+0x178450>
     8e8:	06090513 			; <UNDEFINED> instruction: 0x06090513
     8ec:	06050501 	streq	r0, [r5], -r1, lsl #10
     8f0:	060b052f 	streq	r0, [fp], -pc, lsr #10
     8f4:	000d0510 	andeq	r0, sp, r0, lsl r5
     8f8:	2c010402 	cfstrscs	mvf0, [r1], {2}
     8fc:	02000405 	andeq	r0, r0, #83886080	; 0x5000000
     900:	34060104 	strcc	r0, [r6], #-260	; 0xfffffefc
     904:	02000505 	andeq	r0, r0, #20971520	; 0x1400000
     908:	05130104 	ldreq	r0, [r3, #-260]	; 0xfffffefc
     90c:	0402001b 	streq	r0, [r2], #-27	; 0xffffffe5
     910:	05010601 	streq	r0, [r1, #-1537]	; 0xfffff9ff
     914:	04020007 	streq	r0, [r2], #-7
     918:	1805d601 	stmdane	r5, {r0, r9, sl, ip, lr, pc}
     91c:	01040200 	mrseq	r0, R12_usr
     920:	000a052e 	andeq	r0, sl, lr, lsr #10
     924:	4a010402 	bmi	41934 <__bss_end__+0x38084>
     928:	02000b05 	andeq	r0, r0, #5120	; 0x1400
     92c:	2f060104 	svccs	0x00060104
     930:	02000e05 	andeq	r0, r0, #80	; 0x50
     934:	2e060104 	adfcss	f0, f6, f4
     938:	02000405 	andeq	r0, r0, #83886080	; 0x5000000
     93c:	062e0104 	strteq	r0, [lr], -r4, lsl #2
     940:	0606054b 	streq	r0, [r6], -fp, asr #10
     944:	06050501 	streq	r0, [r5], -r1, lsl #10
     948:	060a052f 	streq	r0, [sl], -pc, lsr #10
     94c:	4a070501 	bmi	1c1d58 <__bss_end__+0x1b84a8>
     950:	030d052e 	movweq	r0, #54574	; 0xd52e
     954:	054a2e76 	strbeq	r2, [sl, #-3702]	; 0xfffff18a
     958:	0d050d0b 	stceq	13, cr0, [r5, #-44]	; 0xffffffd4
     95c:	01040200 	mrseq	r0, R12_usr
     960:	2e140306 	cdpcs	3, 1, cr0, cr4, cr6, {0}
     964:	02001105 	andeq	r1, r0, #1073741825	; 0x40000001
     968:	05130104 	ldreq	r0, [r3, #-260]	; 0xfffffefc
     96c:	0402002d 	streq	r0, [r2], #-45	; 0xffffffd3
     970:	05010601 	streq	r0, [r1, #-1537]	; 0xfffff9ff
     974:	0402002a 	streq	r0, [r2], #-42	; 0xffffffd6
     978:	16052e01 	strne	r2, [r5], -r1, lsl #28
     97c:	01040200 	mrseq	r0, R12_usr
     980:	0014054a 	andseq	r0, r4, sl, asr #10
     984:	06010402 	streq	r0, [r1], -r2, lsl #8
     988:	000d054b 	andeq	r0, sp, fp, asr #10
     98c:	06010402 	streq	r0, [r1], -r2, lsl #8
     990:	04020001 	streq	r0, [r2], #-1
     994:	2f064a01 	svccs	0x00064a01
     998:	01061205 	tsteq	r6, r5, lsl #4
     99c:	060d054a 	streq	r0, [sp], -sl, asr #10
     9a0:	0612052f 	ldreq	r0, [r2], -pc, lsr #10
     9a4:	06190501 	ldreq	r0, [r9], -r1, lsl #10
     9a8:	0004054b 	andeq	r0, r4, fp, asr #10
     9ac:	03020402 	movweq	r0, #9218	; 0x2402
     9b0:	02000111 	andeq	r0, r0, #1073741828	; 0x40000004
     9b4:	05010204 	streq	r0, [r1, #-516]	; 0xfffffdfc
     9b8:	04020002 	streq	r0, [r2], #-2
     9bc:	09051502 	stmdbeq	r5, {r1, r8, sl, ip}
     9c0:	02040200 	andeq	r0, r4, #0, 4
     9c4:	02000106 	andeq	r0, r0, #-2147483647	; 0x80000001
     9c8:	054a0204 	strbeq	r0, [sl, #-516]	; 0xfffffdfc
     9cc:	04020001 	streq	r0, [r2], #-1
     9d0:	04059f02 	streq	r9, [r5], #-3842	; 0xfffff0fe
     9d4:	4a6e0306 	bmi	1b815f4 <__bss_end__+0x1b77d44>
     9d8:	01060905 	tsteq	r6, r5, lsl #18
     9dc:	2f060405 	svccs	0x00060405
     9e0:	11060605 	tstne	r6, r5, lsl #12
     9e4:	052f0405 	streq	r0, [pc, #-1029]!	; 5e7 <__code_start__-0x7a19>
     9e8:	2e63030b 	cdpcs	3, 6, cr0, cr3, cr11, {0}
     9ec:	02001905 	andeq	r1, r0, #81920	; 0x14000
     9f0:	03060104 	movweq	r0, #24836	; 0x6104
     9f4:	1a052e24 	bne	14c28c <__bss_end__+0x1429dc>
     9f8:	01040200 	mrseq	r0, R12_usr
     9fc:	00280513 	eoreq	r0, r8, r3, lsl r5
     a00:	06010402 	streq	r0, [r1], -r2, lsl #8
     a04:	00250501 	eoreq	r0, r5, r1, lsl #10
     a08:	2e010402 	cdpcs	4, 0, cr0, cr1, cr2, {0}
     a0c:	02001f05 	andeq	r1, r0, #5, 30
     a10:	054a0104 	strbeq	r0, [sl, #-260]	; 0xfffffefc
     a14:	0402000b 	streq	r0, [r2], #-11
     a18:	054b0601 	strbeq	r0, [fp, #-1537]	; 0xfffff9ff
     a1c:	04020004 	streq	r0, [r2], #-4
     a20:	00010601 	andeq	r0, r1, r1, lsl #12
     a24:	4a010402 	bmi	41a34 <__bss_end__+0x38184>
     a28:	01040200 	mrseq	r0, R12_usr
     a2c:	02004e06 	andeq	r4, r0, #96	; 0x60
     a30:	00010104 	andeq	r0, r1, r4, lsl #2
     a34:	01010402 	tsteq	r1, r2, lsl #8
     a38:	01040200 	mrseq	r0, R12_usr
     a3c:	04020001 	streq	r0, [r2], #-1
     a40:	002e0601 	eoreq	r0, lr, r1, lsl #12
     a44:	66010402 	strvs	r0, [r1], -r2, lsl #8
     a48:	01040200 	mrseq	r0, R12_usr
     a4c:	0402002e 	streq	r0, [r2], #-46	; 0xffffffd2
     a50:	054a0601 	strbeq	r0, [sl, #-1537]	; 0xfffff9ff
     a54:	7fa60348 	svcvc	0x00a60348
     a58:	05052008 	streq	r2, [r5, #-8]
     a5c:	2e060113 	mcrcs	1, 0, r0, cr6, cr3, {0}
     a60:	02040200 	andeq	r0, r4, #0, 4
     a64:	02002e06 	andeq	r2, r0, #96	; 0x60
     a68:	00010204 	andeq	r0, r1, r4, lsl #4
     a6c:	13020402 	movwne	r0, #9218	; 0x2402
     a70:	02001105 	andeq	r1, r0, #1073741825	; 0x40000001
     a74:	01060204 	tsteq	r6, r4, lsl #4
     a78:	02000505 	andeq	r0, r0, #20971520	; 0x1400000
     a7c:	4b060204 	blmi	181294 <__bss_end__+0x1779e4>
     a80:	02000705 	andeq	r0, r0, #1310720	; 0x140000
     a84:	01060204 	tsteq	r6, r4, lsl #4
     a88:	4b060905 	blmi	182ea4 <__bss_end__+0x1795f4>
     a8c:	01060e05 	tsteq	r6, r5, lsl #28
     a90:	02004805 	andeq	r4, r0, #327680	; 0x50000
     a94:	05620104 	strbeq	r0, [r2, #-260]!	; 0xfffffefc
     a98:	04020005 	streq	r0, [r2], #-5
     a9c:	004b0601 	subeq	r0, fp, r1, lsl #12
     aa0:	01010402 	tsteq	r1, r2, lsl #8
     aa4:	01040200 	mrseq	r0, R12_usr
     aa8:	02009e06 	andeq	r9, r0, #96	; 0x60
     aac:	002e0104 	eoreq	r0, lr, r4, lsl #2
     ab0:	06010402 	streq	r0, [r1], -r2, lsl #8
     ab4:	0340052e 	movteq	r0, #1326	; 0x52e
     ab8:	06d600e1 	ldrbeq	r0, [r6], r1, ror #1
     abc:	06020501 	streq	r0, [r2], -r1, lsl #10
     ac0:	061e059f 			; <UNDEFINED> instruction: 0x061e059f
     ac4:	2e120501 	cfmul32cs	mvfx0, mvfx2, mvfx1
     ac8:	2f060505 	svccs	0x00060505
     acc:	05140205 	ldreq	r0, [r4, #-517]	; 0xfffffdfb
     ad0:	05010609 	streq	r0, [r1, #-1545]	; 0xfffff9f7
     ad4:	054b0605 	strbeq	r0, [fp, #-1541]	; 0xfffff9fb
     ad8:	08051302 	stmdaeq	r5, {r1, r8, r9, ip}
     adc:	02050d06 	andeq	r0, r5, #384	; 0x180
     ae0:	06040533 			; <UNDEFINED> instruction: 0x06040533
     ae4:	060f054c 	streq	r0, [pc], -ip, asr #10
     ae8:	2e090501 	cfsh32cs	mvfx0, mvfx9, #1
     aec:	2c060805 	stccs	8, cr0, [r6], {5}
     af0:	2e060205 	cdpcs	2, 0, cr0, cr6, cr5, {0}
     af4:	02000d05 	andeq	r0, r0, #320	; 0x140
     af8:	054a0104 	strbeq	r0, [sl, #-260]	; 0xfffffefc
     afc:	054b0603 	strbeq	r0, [fp, #-1539]	; 0xfffff9fd
     b00:	05010605 	streq	r0, [r1, #-1541]	; 0xfffff9fb
     b04:	054d0608 	strbeq	r0, [sp, #-1544]	; 0xfffff9f8
     b08:	0501060e 	streq	r0, [r1, #-1550]	; 0xfffff9f2
     b0c:	04052e0a 	streq	r2, [r5], #-3594	; 0xfffff1f6
     b10:	09052f06 	stmdbeq	r5, {r1, r2, r8, r9, sl, fp, sp}
     b14:	04050106 	streq	r0, [r5], #-262	; 0xfffffefa
     b18:	07052f06 	streq	r2, [r5, -r6, lsl #30]
     b1c:	052e0106 	streq	r0, [lr, #-262]!	; 0xfffffefa
     b20:	05300604 	ldreq	r0, [r0, #-1540]!	; 0xfffff9fc
     b24:	05010607 	streq	r0, [r1, #-1543]	; 0xfffff9f9
     b28:	13300604 	teqne	r0, #4, 12	; 0x400000
     b2c:	060d0514 			; <UNDEFINED> instruction: 0x060d0514
     b30:	06090510 			; <UNDEFINED> instruction: 0x06090510
     b34:	06120530 			; <UNDEFINED> instruction: 0x06120530
     b38:	2e0a0501 	cfsh32cs	mvfx0, mvfx10, #1
     b3c:	05660905 	strbeq	r0, [r6, #-2309]!	; 0xfffff6fb
     b40:	054b0605 	strbeq	r0, [fp, #-1541]	; 0xfffff9fb
     b44:	05010612 	streq	r0, [r1, #-1554]	; 0xfffff9ee
     b48:	0b052e16 	bleq	14c3a8 <__bss_end__+0x142af8>
     b4c:	0605052e 	streq	r0, [r5], -lr, lsr #10
     b50:	0608052f 	streq	r0, [r8], -pc, lsr #10
     b54:	04052e01 	streq	r2, [r5], #-3585	; 0xfffff1ff
     b58:	4a013006 	bmi	4cb78 <__bss_end__+0x432c8>
     b5c:	02001501 	andeq	r1, r0, #4194304	; 0x400000
     b60:	36020104 	strcc	r0, [r2], -r4, lsl #2
     b64:	0402000f 	streq	r0, [r2], #-15
     b68:	02000101 	andeq	r0, r0, #1073741824	; 0x40000000
     b6c:	05d60104 	ldrbeq	r0, [r6, #260]	; 0x104
     b70:	01133411 	tsteq	r3, r1, lsl r4
     b74:	02040200 	andeq	r0, r4, #0, 4
     b78:	0200ba06 	andeq	fp, r0, #24576	; 0x6000
     b7c:	ba060304 	blt	181794 <__bss_end__+0x177ee4>
     b80:	03040200 	movweq	r0, #16896	; 0x4200
     b84:	04020001 	streq	r0, [r2], #-1
     b88:	15051403 	strne	r1, [r5, #-1027]	; 0xfffffbfd
     b8c:	03040200 	movweq	r0, #16896	; 0x4200
     b90:	11050106 	tstne	r5, r6, lsl #2
     b94:	03040200 	movweq	r0, #16896	; 0x4200
     b98:	1a052f06 	bne	14c7b8 <__bss_end__+0x142f08>
     b9c:	03040200 	movweq	r0, #16896	; 0x4200
     ba0:	11050106 	tstne	r5, r6, lsl #2
     ba4:	03040200 	movweq	r0, #16896	; 0x4200
     ba8:	0200d706 	andeq	sp, r0, #1572864	; 0x180000
     bac:	00130304 	andseq	r0, r3, r4, lsl #6
     bb0:	14030402 	strne	r0, [r3], #-1026	; 0xfffffbfe
     bb4:	03040200 	movweq	r0, #16896	; 0x4200
     bb8:	04020067 	streq	r0, [r2], #-103	; 0xffffff99
     bbc:	14056803 	strne	r6, [r5], #-2051	; 0xfffff7fd
     bc0:	03040200 	movweq	r0, #16896	; 0x4200
     bc4:	13050106 	movwne	r0, #20742	; 0x5106
     bc8:	03040200 	movweq	r0, #16896	; 0x4200
     bcc:	06180582 	ldreq	r0, [r8], -r2, lsl #11
     bd0:	061b054e 	ldreq	r0, [fp], -lr, asr #10
     bd4:	821a0501 	andshi	r0, sl, #4194304	; 0x400000
     bd8:	4b060905 	blmi	182ff4 <__bss_end__+0x179744>
     bdc:	01060d05 	tsteq	r6, r5, lsl #26
     be0:	0609052e 	streq	r0, [r9], -lr, lsr #10
     be4:	05ba06f3 	ldreq	r0, [sl, #1779]!	; 0x6f3
     be8:	05300615 	ldreq	r0, [r0, #-1557]!	; 0xfffff9eb
     bec:	05010618 	streq	r0, [r1, #-1560]	; 0xfffff9e8
     bf0:	19056617 	stmdbne	r5, {r0, r1, r2, r4, r9, sl, sp, lr}
     bf4:	15054b06 	strne	r4, [r5, #-2822]	; 0xfffff4fa
     bf8:	666f0306 	strbtvs	r0, [pc], -r6, lsl #6
     bfc:	48061105 	stmdami	r6, {r0, r2, r8, ip}
     c00:	0905d601 	stmdbeq	r5, {r0, r9, sl, ip, lr, pc}
     c04:	052e0b03 	streq	r0, [lr, #-2819]!	; 0xfffff4fd
     c08:	2e01060d 	cfmadd32cs	mvax0, mvfx0, mvfx1, mvfx13
     c0c:	f3060905 	vmls.i8	d0, d6, d5
     c10:	1505ba06 	strne	fp, [r5, #-2566]	; 0xfffff5fa
     c14:	03062f06 	movweq	r2, #28422	; 0x6f06
     c18:	19056675 	stmdbne	r5, {r0, r2, r4, r5, r6, r9, sl, sp, lr}
     c1c:	4a130306 	bmi	4c183c <__bss_end__+0x4b7f8c>
     c20:	03061505 	movweq	r1, #25861	; 0x6505
     c24:	0306666d 	movweq	r6, #26221	; 0x666d
     c28:	ba014a15 	blt	53484 <__bss_end__+0x49bd4>
     c2c:	05052e06 	streq	r2, [r5, #-3590]	; 0xfffff1fa
     c30:	9e011a06 	vmlals.f32	s2, s2, s12
     c34:	010e032e 	tsteq	lr, lr, lsr #6
     c38:	01060905 	tsteq	r6, r5, lsl #18
     c3c:	08060505 	stmdaeq	r6, {r0, r2, r8, sl}
     c40:	03040575 	movweq	r0, #17781	; 0x4575
     c44:	07050118 	smladeq	r5, r8, r1, r0
     c48:	04050106 	streq	r0, [r5], #-262	; 0xfffffefa
     c4c:	05053106 	streq	r3, [r5, #-262]	; 0xfffffefa
     c50:	052e6703 	streq	r6, [lr, #-1795]!	; 0xfffff8fd
     c54:	0501061c 	streq	r0, [r1, #-1564]	; 0xfffff9e4
     c58:	05058209 	streq	r8, [r5, #-521]	; 0xfffffdf7
     c5c:	0531f306 	ldreq	pc, [r1, #-774]!	; 0xfffffcfa
     c60:	0501061c 	streq	r0, [r1, #-1564]	; 0xfffff9e4
     c64:	05058209 	streq	r8, [r5, #-521]	; 0xfffffdf7
     c68:	0530f306 	ldreq	pc, [r0, #-774]!	; 0xfffffcfa
     c6c:	0501061b 	streq	r0, [r1, #-1563]	; 0xfffff9e5
     c70:	05058209 	streq	r8, [r5, #-521]	; 0xfffffdf7
     c74:	0530f306 	ldreq	pc, [r0, #-774]!	; 0xfffffcfa
     c78:	05010607 	streq	r0, [r1, #-1543]	; 0xfffff9f9
     c7c:	30830605 	addcc	r0, r3, r5, lsl #12
     c80:	01060905 	tsteq	r6, r5, lsl #18
     c84:	08060505 	stmdaeq	r6, {r0, r2, r8, sl}
     c88:	30110575 	andscc	r0, r1, r5, ror r5
     c8c:	01062205 	tsteq	r6, r5, lsl #4
     c90:	4b060505 	blmi	1820ac <__bss_end__+0x1787fc>
     c94:	05831105 	streq	r1, [r3, #261]	; 0x105
     c98:	9e018305 	cdpls	3, 0, cr8, cr1, cr5, {0}
     c9c:	060e0535 			; <UNDEFINED> instruction: 0x060e0535
     ca0:	2e0a0501 	cfsh32cs	mvfx0, mvfx10, #1
     ca4:	04052d06 	streq	r2, [r5], #-3334	; 0xfffff2fa
     ca8:	13050106 	movwne	r0, #20742	; 0x5106
     cac:	01040200 	mrseq	r0, R12_usr
     cb0:	0010054a 	andseq	r0, r0, sl, asr #10
     cb4:	2e010402 	cdpcs	4, 0, cr0, cr1, cr2, {0}
     cb8:	01040200 	mrseq	r0, R12_usr
     cbc:	06020566 	streq	r0, [r2], -r6, ror #10
     cc0:	06070516 			; <UNDEFINED> instruction: 0x06070516
     cc4:	06020501 	streq	r0, [r2], -r1, lsl #10
     cc8:	0601054b 	streq	r0, [r1], -fp, asr #10
     ccc:	1e026613 	mcrne	6, 0, r6, cr2, cr3, {0}
     cd0:	97010100 	strls	r0, [r1, -r0, lsl #2]
     cd4:	03000000 	movweq	r0, #0
     cd8:	00007c00 	andeq	r7, r0, r0, lsl #24
     cdc:	fb010200 	blx	414e6 <__bss_end__+0x37c36>
     ce0:	01000d0e 	tsteq	r0, lr, lsl #26
     ce4:	00010101 	andeq	r0, r1, r1, lsl #2
     ce8:	00010000 	andeq	r0, r1, r0
     cec:	2f2e0100 	svccs	0x002e0100
     cf0:	66617473 			; <UNDEFINED> instruction: 0x66617473
     cf4:	72732d66 	rsbsvc	r2, r3, #6528	; 0x1980
     cf8:	552f0063 	strpl	r0, [pc, #-99]!	; c9d <__code_start__-0x7363>
     cfc:	73726573 	cmnvc	r2, #482344960	; 0x1cc00000
     d00:	72616a2f 	rsbvc	r6, r1, #192512	; 0x2f000
     d04:	65776465 	ldrbvs	r6, [r7, #-1125]!	; 0xfffffb9b
     d08:	62737369 	rsbsvs	r7, r3, #-1543503871	; 0xa4000001
     d0c:	2f677265 	svccs	0x00677265
     d10:	72756f43 	rsbsvc	r6, r5, #268	; 0x10c
     d14:	2f736573 	svccs	0x00736573
     d18:	34317363 	ldrtcc	r7, [r1], #-867	; 0xfffffc9d
     d1c:	632f6530 			; <UNDEFINED> instruction: 0x632f6530
     d20:	30343273 	eorscc	r3, r4, r3, ror r2
     d24:	322d786c 	eorcc	r7, sp, #108, 16	; 0x6c0000
     d28:	72707332 	rsbsvc	r7, r0, #-939524096	; 0xc8000000
     d2c:	696c2f2f 	stmdbvs	ip!, {r0, r1, r2, r3, r5, r8, r9, sl, fp, sp}^
     d30:	2f697062 	svccs	0x00697062
     d34:	6c636e69 	stclvs	14, cr6, [r3], #-420	; 0xfffffe5c
     d38:	00656475 	rsbeq	r6, r5, r5, ror r4
     d3c:	656c6300 	strbvs	r6, [ip, #-768]!	; 0xfffffd00
     d40:	722d6e61 	eorvc	r6, sp, #1552	; 0x610
     d44:	6f6f6265 	svcvs	0x006f6265
     d48:	00632e74 	rsbeq	r2, r3, r4, ror lr
     d4c:	72000001 	andvc	r0, r0, #1, 0
     d50:	682e6970 	stmdavs	lr!, {r4, r5, r6, r8, fp, sp, lr}
     d54:	00000200 	andeq	r0, r0, r0, lsl #4
     d58:	00190500 	andseq	r0, r9, r0, lsl #10
     d5c:	8bc80205 	blhi	ff201578 <__bss_end__+0xff1f7cc8>
     d60:	05150000 	ldreq	r0, [r5, #-0]
     d64:	2f832f05 	svccs	0x00832f05
     d68:	0006024b 	andeq	r0, r6, fp, asr #4
     d6c:	00b10101 	adcseq	r0, r1, r1, lsl #2
     d70:	00030000 	andeq	r0, r3, r0
     d74:	00000076 	andeq	r0, r0, r6, ror r0
     d78:	0efb0102 	cdpeq	1, 15, cr0, cr11, cr2, {0}
     d7c:	0101000d 	tsteq	r1, sp
     d80:	00000101 	andeq	r0, r0, r1, lsl #2
     d84:	00000100 	andeq	r0, r0, r0, lsl #2
     d88:	732f2e01 			; <UNDEFINED> instruction: 0x732f2e01
     d8c:	66666174 			; <UNDEFINED> instruction: 0x66666174
     d90:	6372732d 	cmnvs	r2, #-1275068416	; 0xb4000000
     d94:	73552f00 	cmpvc	r5, #0, 30
     d98:	2f737265 	svccs	0x00737265
     d9c:	6572616a 	ldrbvs	r6, [r2, #-362]!	; 0xfffffe96
     da0:	69657764 	stmdbvs	r5!, {r2, r5, r6, r8, r9, sl, ip, sp, lr}^
     da4:	65627373 	strbvs	r7, [r2, #-883]!	; 0xfffffc8d
     da8:	432f6772 			; <UNDEFINED> instruction: 0x432f6772
     dac:	7372756f 	cmnvc	r2, #465567744	; 0x1bc00000
     db0:	632f7365 			; <UNDEFINED> instruction: 0x632f7365
     db4:	30343173 	eorscc	r3, r4, r3, ror r1
     db8:	73632f65 	cmnvc	r3, #404	; 0x194
     dbc:	6c303432 	cfldrsvs	mvf3, [r0], #-200	; 0xffffff38
     dc0:	32322d78 	eorscc	r2, r2, #120, 26	; 0x1e00
     dc4:	2f727073 	svccs	0x00727073
     dc8:	62696c2f 	rsbvs	r6, r9, #12032	; 0x2f00
     dcc:	692f6970 	stmdbvs	pc!, {r4, r5, r6, r8, fp, sp, lr}	; <UNPREDICTABLE>
     dd0:	756c636e 	strbvc	r6, [ip, #-878]!	; 0xfffffc92
     dd4:	00006564 	andeq	r6, r0, r4, ror #10
     dd8:	61747363 	cmnvs	r4, r3, ror #6
     ddc:	632e7472 			; <UNDEFINED> instruction: 0x632e7472
     de0:	00000100 	andeq	r0, r0, r0, lsl #2
     de4:	2e697072 	mcrcs	0, 3, r7, cr9, cr2, {3}
     de8:	00020068 	andeq	r0, r2, r8, rrx
     dec:	10050000 	andne	r0, r5, r0
     df0:	f4020500 	vst3.8	{d0,d2,d4}, [r2], r0
     df4:	1500008b 	strne	r0, [r0, #-139]	; 0xffffff75
     df8:	052f0505 	streq	r0, [pc, #-1285]!	; 8fb <__code_start__-0x7705>
     dfc:	05051302 	streq	r1, [r5, #-770]	; 0xfffffcfe
     e00:	14133014 	ldrne	r3, [r3], #-20	; 0xffffffec
     e04:	0f060a05 	svceq	0x00060a05
     e08:	09053106 	stmdbeq	r5, {r1, r2, r8, ip, sp}
     e0c:	0610054b 	ldreq	r0, [r0], -fp, asr #10
     e10:	05054a01 	streq	r4, [r5, #-2561]	; 0xfffff5ff
     e14:	01323006 	teqeq	r2, r6
     e18:	05144a01 	ldreq	r4, [r4, #-2561]	; 0xfffff5ff
     e1c:	06022f02 	streq	r2, [r2], -r2, lsl #30
     e20:	95010100 	strls	r0, [r1, #-256]	; 0xffffff00
     e24:	03000000 	movweq	r0, #0
     e28:	00007d00 	andeq	r7, r0, r0, lsl #26
     e2c:	fb010200 	blx	41636 <__bss_end__+0x37d86>
     e30:	01000d0e 	tsteq	r0, lr, lsl #26
     e34:	00010101 	andeq	r0, r1, r1, lsl #2
     e38:	00010000 	andeq	r0, r1, r0
     e3c:	2f2e0100 	svccs	0x002e0100
     e40:	66617473 			; <UNDEFINED> instruction: 0x66617473
     e44:	72732d66 	rsbsvc	r2, r3, #6528	; 0x1980
     e48:	552f0063 	strpl	r0, [pc, #-99]!	; ded <__code_start__-0x7213>
     e4c:	73726573 	cmnvc	r2, #482344960	; 0x1cc00000
     e50:	72616a2f 	rsbvc	r6, r1, #192512	; 0x2f000
     e54:	65776465 	ldrbvs	r6, [r7, #-1125]!	; 0xfffffb9b
     e58:	62737369 	rsbsvs	r7, r3, #-1543503871	; 0xa4000001
     e5c:	2f677265 	svccs	0x00677265
     e60:	72756f43 	rsbsvc	r6, r5, #268	; 0x10c
     e64:	2f736573 	svccs	0x00736573
     e68:	34317363 	ldrtcc	r7, [r1], #-867	; 0xfffffc9d
     e6c:	632f6530 			; <UNDEFINED> instruction: 0x632f6530
     e70:	30343273 	eorscc	r3, r4, r3, ror r2
     e74:	322d786c 	eorcc	r7, sp, #108, 16	; 0x6c0000
     e78:	72707332 	rsbsvc	r7, r0, #-939524096	; 0xc8000000
     e7c:	696c2f2f 	stmdbvs	ip!, {r0, r1, r2, r3, r5, r8, r9, sl, fp, sp}^
     e80:	2f697062 	svccs	0x00697062
     e84:	6c636e69 	stclvs	14, cr6, [r3], #-420	; 0xfffffe5c
     e88:	00656475 	rsbeq	r6, r5, r5, ror r4
     e8c:	73756300 	cmnvc	r5, #0, 6
     e90:	2d6d6f74 	stclcs	15, cr6, [sp, #-464]!	; 0xfffffe30
     e94:	64616f6c 	strbtvs	r6, [r1], #-3948	; 0xfffff094
     e98:	632e7265 			; <UNDEFINED> instruction: 0x632e7265
     e9c:	00000100 	andeq	r0, r0, r0, lsl #2
     ea0:	2e697072 	mcrcs	0, 3, r7, cr9, cr2, {3}
     ea4:	00020068 	andeq	r0, r2, r8, rrx
     ea8:	1a050000 	bne	140eb0 <__bss_end__+0x137600>
     eac:	30020500 	andcc	r0, r2, r0, lsl #10
     eb0:	1500008c 	strne	r0, [r0, #-140]	; 0xffffff74
     eb4:	02140105 	andseq	r0, r4, #1073741825	; 0x40000001
     eb8:	01010002 	tsteq	r1, r2
     ebc:	000000e5 	andeq	r0, r0, r5, ror #1
     ec0:	00760003 	rsbseq	r0, r6, r3
     ec4:	01020000 	mrseq	r0, (UNDEF: 2)
     ec8:	000d0efb 	strdeq	r0, [sp], -fp
     ecc:	01010101 	tsteq	r1, r1, lsl #2
     ed0:	01000000 	mrseq	r0, (UNDEF: 0)
     ed4:	2e010000 	cdpcs	0, 0, cr0, cr1, cr0, {0}
     ed8:	6174732f 	cmnvs	r4, pc, lsr #6
     edc:	732d6666 			; <UNDEFINED> instruction: 0x732d6666
     ee0:	2f006372 	svccs	0x00006372
     ee4:	72657355 	rsbvc	r7, r5, #1409286145	; 0x54000001
     ee8:	616a2f73 	smcvs	41715	; 0xa2f3
     eec:	77646572 			; <UNDEFINED> instruction: 0x77646572
     ef0:	73736965 	cmnvc	r3, #1654784	; 0x194000
     ef4:	67726562 	ldrbvs	r6, [r2, -r2, ror #10]!
     ef8:	756f432f 	strbvc	r4, [pc, #-815]!	; bd1 <__code_start__-0x742f>
     efc:	73657372 	cmnvc	r5, #-939524095	; 0xc8000001
     f00:	3173632f 	cmncc	r3, pc, lsr #6
     f04:	2f653034 	svccs	0x00653034
     f08:	34327363 	ldrtcc	r7, [r2], #-867	; 0xfffffc9d
     f0c:	2d786c30 	ldclcs	12, cr6, [r8, #-192]!	; 0xffffff40
     f10:	70733232 	rsbsvc	r3, r3, r2, lsr r2
     f14:	6c2f2f72 	stcvs	15, cr2, [pc], #-456	; d54 <__code_start__-0x72ac>
     f18:	69706269 	ldmdbvs	r0!, {r0, r3, r5, r6, r9, sp, lr}^
     f1c:	636e692f 	cmnvs	lr, #770048	; 0xbc000
     f20:	6564756c 	strbvs	r7, [r4, #-1388]!	; 0xfffffa94
     f24:	65720000 	ldrbvs	r0, [r2, #-0]!
     f28:	746f6f62 	strbtvc	r6, [pc], #-3938	; f30 <__code_start__-0x70d0>
     f2c:	0100632e 	tsteq	r0, lr, lsr #6
     f30:	70720000 	rsbsvc	r0, r2, r0
     f34:	00682e69 	rsbeq	r2, r8, r9, ror #28
     f38:	00000002 	andeq	r0, r0, r2
     f3c:	05001905 	streq	r1, [r0, #-2309]	; 0xfffff6fb
     f40:	008c3402 	addeq	r3, ip, r2, lsl #8
     f44:	010d0300 	mrseq	r0, SP_mon
     f48:	13130505 	tstne	r3, #20971520	; 0x1400000
     f4c:	06130531 			; <UNDEFINED> instruction: 0x06130531
     f50:	2f010501 	svccs	0x00010501
     f54:	85061b05 	strhi	r1, [r6, #-2821]	; 0xfffff4fb
     f58:	14130505 	ldrne	r0, [r3], #-1285	; 0xfffffafb
     f5c:	052f0905 	streq	r0, [pc, #-2309]!	; 65f <__code_start__-0x79a1>
     f60:	05010616 	streq	r0, [r1, #-1558]	; 0xfffff9ea
     f64:	05052e0e 	streq	r2, [r5, #-3598]	; 0xfffff1f2
     f68:	01052f06 	tsteq	r5, r6, lsl #30
     f6c:	17052f06 	strne	r2, [r5, -r6, lsl #30]
     f70:	05053006 	streq	r3, [r5, #-6]
     f74:	0608052f 	streq	r0, [r8], -pc, lsr #10
     f78:	2e070501 	cfsh32cs	mvfx0, mvfx7, #1
     f7c:	50060505 	andpl	r0, r6, r5, lsl #10
     f80:	134d2f30 	movtne	r2, #57136	; 0xdf30
     f84:	67151313 			; <UNDEFINED> instruction: 0x67151313
     f88:	01040200 	mrseq	r0, R12_usr
     f8c:	000d0567 	andeq	r0, sp, r7, ror #10
     f90:	01010402 	tsteq	r1, r2, lsl #8
     f94:	02000a05 	andeq	r0, r0, #20480	; 0x5000
     f98:	05010104 	streq	r0, [r1, #-260]	; 0xfffffefc
     f9c:	2e6d0309 	cdpcs	3, 6, cr0, cr13, cr9, {0}
     fa0:	01000c02 	tsteq	r0, r2, lsl #24
     fa4:	0000ec01 	andeq	lr, r0, r1, lsl #24
     fa8:	75000300 	strvc	r0, [r0, #-768]	; 0xfffffd00
     fac:	02000000 	andeq	r0, r0, #0, 0
     fb0:	0d0efb01 	vstreq	d15, [lr, #-4]
     fb4:	01010100 	mrseq	r0, (UNDEF: 17)
     fb8:	00000001 	andeq	r0, r0, r1
     fbc:	01000001 	tsteq	r0, r1
     fc0:	74732f2e 	ldrbtvc	r2, [r3], #-3886	; 0xfffff0d2
     fc4:	2d666661 	stclcs	6, cr6, [r6, #-388]!	; 0xfffffe7c
     fc8:	00637273 	rsbeq	r7, r3, r3, ror r2
     fcc:	6573552f 	ldrbvs	r5, [r3, #-1327]!	; 0xfffffad1
     fd0:	6a2f7372 	bvs	bddda0 <__bss_end__+0xbd44f0>
     fd4:	64657261 	strbtvs	r7, [r5], #-609	; 0xfffffd9f
     fd8:	73696577 	cmnvc	r9, #499122176	; 0x1dc00000
     fdc:	72656273 	rsbvc	r6, r5, #805306375	; 0x30000007
     fe0:	6f432f67 	svcvs	0x00432f67
     fe4:	65737275 	ldrbvs	r7, [r3, #-629]!	; 0xfffffd8b
     fe8:	73632f73 	cmnvc	r3, #460	; 0x1cc
     fec:	65303431 	ldrvs	r3, [r0, #-1073]!	; 0xfffffbcf
     ff0:	3273632f 	rsbscc	r6, r3, #-1140850688	; 0xbc000000
     ff4:	786c3034 	stmdavc	ip!, {r2, r4, r5, ip, sp}^
     ff8:	7332322d 	teqvc	r2, #-805306366	; 0xd0000002
     ffc:	2f2f7270 	svccs	0x002f7270
    1000:	7062696c 	rsbvc	r6, r2, ip, ror #18
    1004:	6e692f69 	cdpvs	15, 6, cr2, cr9, cr9, {3}
    1008:	64756c63 	ldrbtvs	r6, [r5], #-3171	; 0xfffff39d
    100c:	74000065 	strvc	r0, [r0], #-101	; 0xffffff9b
    1010:	72656d69 	rsbvc	r6, r5, #6720	; 0x1a40
    1014:	0100632e 	tsteq	r0, lr, lsr #6
    1018:	70720000 	rsbsvc	r0, r2, r0
    101c:	00682e69 	rsbeq	r2, r8, r9, ror #28
    1020:	00000002 	andeq	r0, r0, r2
    1024:	05002305 	streq	r2, [r0, #-773]	; 0xfffffcfb
    1028:	008cb402 	addeq	fp, ip, r2, lsl #8
    102c:	05051500 	streq	r1, [r5, #-1280]	; 0xfffffb00
    1030:	060c052f 	streq	r0, [ip], -pc, lsr #10
    1034:	4b010501 	blmi	42440 <__bss_end__+0x38b90>
    1038:	4d061f05 	stcmi	15, cr1, [r6, #-20]	; 0xffffffec
    103c:	2f310505 	svccs	0x00310505
    1040:	01061205 	tsteq	r6, r5, lsl #4
    1044:	4b060505 	blmi	182460 <__bss_end__+0x178bb0>
    1048:	0601052f 	streq	r0, [r1], -pc, lsr #10
    104c:	061c0513 			; <UNDEFINED> instruction: 0x061c0513
    1050:	0501064c 	streq	r0, [r1, #-1612]	; 0xfffff9b4
    1054:	054b0605 	strbeq	r0, [fp, #-1541]	; 0xfffff9fb
    1058:	2e010613 	mcrcs	6, 0, r0, cr1, cr3, {0}
    105c:	2f060505 	svccs	0x00060505
    1060:	05130905 	ldreq	r0, [r3, #-2309]	; 0xfffff6fb
    1064:	05010617 	streq	r0, [r1, #-1559]	; 0xfffff9e9
    1068:	052f0609 	streq	r0, [pc, #-1545]!	; a67 <__code_start__-0x7599>
    106c:	05010611 	streq	r0, [r1, #-1553]	; 0xfffff9ef
    1070:	1c052e0c 	stcne	14, cr2, [r5], {12}
    1074:	01066b06 	tsteq	r6, r6, lsl #22
    1078:	2f060505 	svccs	0x00060505
    107c:	01054a06 	tsteq	r5, r6, lsl #20
    1080:	061e054b 	ldreq	r0, [lr], -fp, asr #10
    1084:	0501062f 	streq	r0, [r1, #-1583]	; 0xfffff9d1
    1088:	062f0605 	strteq	r0, [pc], -r5, lsl #12
    108c:	4b01054a 	blmi	425bc <__bss_end__+0x38d0c>
    1090:	01000202 	tsteq	r0, r2, lsl #4
    1094:	00020501 	andeq	r0, r2, r1, lsl #10
    1098:	c9000300 	stmdbgt	r0, {r8, r9}
    109c:	02000000 	andeq	r0, r0, #0, 0
    10a0:	0d0efb01 	vstreq	d15, [lr, #-4]
    10a4:	01010100 	mrseq	r0, (UNDEF: 17)
    10a8:	00000001 	andeq	r0, r0, r1
    10ac:	01000001 	tsteq	r0, r1
    10b0:	6d6f682f 	stclvs	8, cr6, [pc, #-188]!	; ffc <__code_start__-0x7004>
    10b4:	6e652f65 	cdpvs	15, 6, cr2, cr5, cr5, {3}
    10b8:	72656c67 	rsbvc	r6, r5, #26368	; 0x6700
    10bc:	616c632f 	cmnvs	ip, pc, lsr #6
    10c0:	632f7373 			; <UNDEFINED> instruction: 0x632f7373
    10c4:	30343273 	eorscc	r3, r4, r3, ror r2
    10c8:	322d786c 	eorcc	r7, sp, #108, 16	; 0x6c0000
    10cc:	72707332 	rsbsvc	r7, r0, #-939524096	; 0xc8000000
    10d0:	696c2f2f 	stmdbvs	ip!, {r0, r1, r2, r3, r5, r8, r9, sl, fp, sp}^
    10d4:	2f697062 	svccs	0x00697062
    10d8:	6c636e69 	stclvs	14, cr6, [r3], #-420	; 0xfffffe5c
    10dc:	00656475 	rsbeq	r6, r5, r5, ror r4
    10e0:	7273752f 	rsbsvc	r7, r3, #197132288	; 0xbc00000
    10e4:	6168732f 	cmnvs	r8, pc, lsr #6
    10e8:	672f6572 			; <UNDEFINED> instruction: 0x672f6572
    10ec:	612d6363 			; <UNDEFINED> instruction: 0x612d6363
    10f0:	6e2d6d72 	mcrvs	13, 1, r6, cr13, cr2, {3}
    10f4:	2d656e6f 	stclcs	14, cr6, [r5, #-444]!	; 0xfffffe44
    10f8:	69626165 	stmdbvs	r2!, {r0, r2, r5, r6, r8, sp, lr}^
    10fc:	2e30312d 	rsfcssp	f3, f0, #5.0
    1100:	30322d33 	eorscc	r2, r2, r3, lsr sp
    1104:	312e3132 			; <UNDEFINED> instruction: 0x312e3132
    1108:	696c2f30 	stmdbvs	ip!, {r4, r5, r8, r9, sl, fp, sp}^
    110c:	63672f62 	cmnvs	r7, #392	; 0x188
    1110:	72612f63 	rsbvc	r2, r1, #396	; 0x18c
    1114:	6f6e2d6d 	svcvs	0x006e2d6d
    1118:	652d656e 	strvs	r6, [sp, #-1390]!	; 0xfffffa92
    111c:	2f696261 	svccs	0x00696261
    1120:	332e3031 			; <UNDEFINED> instruction: 0x332e3031
    1124:	692f312e 	stmdbvs	pc!, {r1, r2, r3, r5, r8, ip, sp}	; <UNPREDICTABLE>
    1128:	756c636e 	strbvc	r6, [ip, #-878]!	; 0xfffffc92
    112c:	00006564 	andeq	r6, r0, r4, ror #10
    1130:	74726175 	ldrbtvc	r6, [r2], #-373	; 0xfffffe8b
    1134:	0000632e 	andeq	r6, r0, lr, lsr #6
    1138:	61750000 	cmnvs	r5, r0
    113c:	682e7472 	stmdavs	lr!, {r1, r4, r5, r6, sl, ip, sp, lr}
    1140:	00000100 	andeq	r0, r0, r0, lsl #2
    1144:	2e697072 	mcrcs	0, 3, r7, cr9, cr2, {3}
    1148:	00010068 	andeq	r0, r1, r8, rrx
    114c:	69706700 	ldmdbvs	r0!, {r8, r9, sl, sp, lr}^
    1150:	00682e6f 	rsbeq	r2, r8, pc, ror #28
    1154:	73000001 	movwvc	r0, #1
    1158:	6e696474 	mcrvs	4, 3, r6, cr9, cr4, {3}
    115c:	63672d74 	cmnvs	r7, #116, 26	; 0x1d00
    1160:	00682e63 	rsbeq	r2, r8, r3, ror #28
    1164:	00000002 	andeq	r0, r0, r2
    1168:	05003905 	streq	r3, [r0, #-2309]	; 0xfffff6fb
    116c:	008d3802 	addeq	r3, sp, r2, lsl #16
    1170:	01300300 	teqeq	r0, r0, lsl #6
    1174:	05050106 	streq	r0, [r5, #-262]	; 0xfffffefa
    1178:	11056706 	tstne	r5, r6, lsl #14
    117c:	05050106 	streq	r0, [r5, #-262]	; 0xfffffefa
    1180:	6701052e 	strvs	r0, [r1, -lr, lsr #10]
    1184:	29063805 	stmdbcs	r6, {r0, r2, fp, ip, sp}
    1188:	05050106 	streq	r0, [r5, #-262]	; 0xfffffefa
    118c:	11056706 	tstne	r5, r6, lsl #14
    1190:	05050106 	streq	r0, [r5, #-262]	; 0xfffffefa
    1194:	6701052e 	strvs	r0, [r1, -lr, lsr #10]
    1198:	03061605 	movweq	r1, #26117	; 0x6605
    119c:	05052e15 	streq	r2, [r5, #-3605]	; 0xfffff1eb
    11a0:	35686735 	strbcc	r6, [r8, #-1845]!	; 0xfffff8cb
    11a4:	2e0c0368 	cdpcs	3, 0, cr0, cr12, cr8, {3}
    11a8:	69696b85 	stmdbvs	r9!, {r0, r2, r7, r8, r9, fp, sp, lr}^
    11ac:	13660c03 	cmnne	r6, #768	; 0x300
    11b0:	0105676b 	tsteq	r5, fp, ror #14
    11b4:	19052f06 	stmdbne	r5, {r1, r2, r8, r9, sl, fp, sp}
    11b8:	05250806 	streq	r0, [r5, #-2054]!	; 0xfffff7fa
    11bc:	0d053405 	cfstrseq	mvf3, [r5, #-20]	; 0xffffffec
    11c0:	01050106 	tsteq	r5, r6, lsl #2
    11c4:	0619054c 	ldreq	r0, [r9], -ip, asr #10
    11c8:	36050567 	strcc	r0, [r5], -r7, ror #10
    11cc:	01060d05 	tsteq	r6, r5, lsl #26
    11d0:	054a2805 	strbeq	r2, [sl, #-2053]	; 0xfffff7fb
    11d4:	15053001 	strne	r3, [r5, #-1]
    11d8:	05058706 	streq	r8, [r5, #-1798]	; 0xfffff8fa
    11dc:	09052f2f 	stmdbeq	r5, {r0, r1, r2, r3, r5, r8, r9, sl, fp, sp}
    11e0:	01040200 	mrseq	r0, R12_usr
    11e4:	000a0513 	andeq	r0, sl, r3, lsl r5
    11e8:	11010402 	tstne	r1, r2, lsl #8
    11ec:	02000c05 	andeq	r0, r0, #1280	; 0x500
    11f0:	01060104 	tsteq	r6, r4, lsl #2
    11f4:	02000a05 	andeq	r0, r0, #20480	; 0x5000
    11f8:	052e0104 	streq	r0, [lr, #-260]!	; 0xfffffefc
    11fc:	054c0605 	strbeq	r0, [ip, #-1541]	; 0xfffff9fb
    1200:	0501060e 	streq	r0, [r1, #-1550]	; 0xfffff9f2
    1204:	05054a09 	streq	r4, [r5, #-2569]	; 0xfffff5f7
    1208:	052f2f06 	streq	r2, [pc, #-3846]!	; 30a <__code_start__-0x7cf6>
    120c:	05130601 	ldreq	r0, [r3, #-1537]	; 0xfffff9ff
    1210:	0667061c 			; <UNDEFINED> instruction: 0x0667061c
    1214:	06050501 	streq	r0, [r5], -r1, lsl #10
    1218:	09052f4b 	stmdbeq	r5, {r0, r1, r3, r6, r8, r9, sl, fp, sp}
    121c:	01040200 	mrseq	r0, R12_usr
    1220:	000a0513 	andeq	r0, sl, r3, lsl r5
    1224:	11010402 	tstne	r1, r2, lsl #8
    1228:	02000c05 	andeq	r0, r0, #1280	; 0x500
    122c:	01060104 	tsteq	r6, r4, lsl #2
    1230:	02000a05 	andeq	r0, r0, #20480	; 0x5000
    1234:	052e0104 	streq	r0, [lr, #-260]!	; 0xfffffefc
    1238:	674c0605 	strbvs	r0, [ip, -r5, lsl #12]
    123c:	2f060105 	svccs	0x00060105
    1240:	4c061905 			; <UNDEFINED> instruction: 0x4c061905
    1244:	052e1b05 	streq	r1, [lr, #-2821]!	; 0xfffff4fb
    1248:	31052e2a 	tstcc	r5, sl, lsr #28
    124c:	42050106 	andmi	r0, r5, #-2147483647	; 0x80000001
    1250:	061c052e 	ldreq	r0, [ip], -lr, lsr #10
    1254:	2f050531 	svccs	0x00050531
    1258:	052e0903 	streq	r0, [lr, #-2307]!	; 0xfffff6fd
    125c:	0501060e 	streq	r0, [r1, #-1550]	; 0xfffff9f2
    1260:	01054a21 	tsteq	r5, r1, lsr #20
    1264:	052e0a03 	streq	r0, [lr, #-2563]!	; 0xfffff5fd
    1268:	0568061a 	strbeq	r0, [r8, #-1562]!	; 0xfffff9e6
    126c:	04020009 	streq	r0, [r2], #-9
    1270:	0a053001 	beq	14d27c <__bss_end__+0x1439cc>
    1274:	01040200 	mrseq	r0, R12_usr
    1278:	000c0511 	andeq	r0, ip, r1, lsl r5
    127c:	06010402 	streq	r0, [r1], -r2, lsl #8
    1280:	000a0501 	andeq	r0, sl, r1, lsl #10
    1284:	2e010402 	cdpcs	4, 0, cr0, cr1, cr2, {0}
    1288:	03061905 	movweq	r1, #26885	; 0x6905
    128c:	05667ee8 	strbeq	r7, [r6, #-3816]!	; 0xfffff118
    1290:	2f2f2f05 	svccs	0x002f2f05
    1294:	06010567 	streq	r0, [r1], -r7, ror #10
    1298:	0004022f 	andeq	r0, r4, pc, lsr #4
    129c:	00fc0101 	rscseq	r0, ip, r1, lsl #2
    12a0:	00030000 	andeq	r0, r3, r0
    12a4:	00000071 	andeq	r0, r0, r1, ror r0
    12a8:	0efb0102 	cdpeq	1, 15, cr0, cr11, cr2, {0}
    12ac:	0101000d 	tsteq	r1, sp
    12b0:	00000101 	andeq	r0, r0, r1, lsl #2
    12b4:	00000100 	andeq	r0, r0, r0, lsl #2
    12b8:	6c2f2e01 	stcvs	14, cr2, [pc], #-4	; 12bc <__code_start__-0x6d44>
    12bc:	00636269 	rsbeq	r6, r3, r9, ror #4
    12c0:	6573552f 	ldrbvs	r5, [r3, #-1327]!	; 0xfffffad1
    12c4:	6a2f7372 	bvs	bde094 <__bss_end__+0xbd47e4>
    12c8:	64657261 	strbtvs	r7, [r5], #-609	; 0xfffffd9f
    12cc:	73696577 	cmnvc	r9, #499122176	; 0x1dc00000
    12d0:	72656273 	rsbvc	r6, r5, #805306375	; 0x30000007
    12d4:	6f432f67 	svcvs	0x00432f67
    12d8:	65737275 	ldrbvs	r7, [r3, #-629]!	; 0xfffffd8b
    12dc:	73632f73 	cmnvc	r3, #460	; 0x1cc
    12e0:	65303431 	ldrvs	r3, [r0, #-1073]!	; 0xfffffbcf
    12e4:	3273632f 	rsbscc	r6, r3, #-1140850688	; 0xbc000000
    12e8:	786c3034 	stmdavc	ip!, {r2, r4, r5, ip, sp}^
    12ec:	7332322d 	teqvc	r2, #-805306366	; 0xd0000002
    12f0:	2f2f7270 	svccs	0x002f7270
    12f4:	7062696c 	rsbvc	r6, r2, ip, ror #18
    12f8:	6e692f69 	cdpvs	15, 6, cr2, cr9, cr9, {3}
    12fc:	64756c63 	ldrbtvs	r6, [r5], #-3171	; 0xfffff39d
    1300:	73000065 	movwvc	r0, #101	; 0x65
    1304:	61637274 	smcvs	14116	; 0x3724
    1308:	00632e74 	rsbeq	r2, r3, r4, ror lr
    130c:	72000001 	andvc	r0, r0, #1, 0
    1310:	682e6970 	stmdavs	lr!, {r4, r5, r6, r8, fp, sp, lr}
    1314:	00000200 	andeq	r0, r0, r0, lsl #4
    1318:	002c0500 	eoreq	r0, ip, r0, lsl #10
    131c:	8f280205 	svchi	0x00280205
    1320:	05150000 	ldreq	r0, [r5, #-0]
    1324:	05131305 	ldreq	r1, [r3, #-773]	; 0xfffffcfb
    1328:	0511060b 	ldreq	r0, [r1, #-1547]	; 0xfffff9f5
    132c:	04020005 	streq	r0, [r2], #-5
    1330:	00300601 	eorseq	r0, r0, r1, lsl #12
    1334:	15010402 	strne	r0, [r1, #-1026]	; 0xfffffbfe
    1338:	02000905 	andeq	r0, r0, #81920	; 0x14000
    133c:	05130104 	ldreq	r0, [r3, #-260]	; 0xfffffefc
    1340:	04020010 	streq	r0, [r2], #-16
    1344:	052e0601 	streq	r0, [lr, #-1537]!	; 0xfffff9ff
    1348:	0402000b 	streq	r0, [r2], #-11
    134c:	02002e01 	andeq	r2, r0, #1, 28
    1350:	2f060104 	svccs	0x00060104
    1354:	02000505 	andeq	r0, r0, #20971520	; 0x1400000
    1358:	01060104 	tsteq	r6, r4, lsl #2
    135c:	08054e06 	stmdaeq	r5, {r1, r2, r9, sl, fp, lr}
    1360:	05050106 	streq	r0, [r5, #-262]	; 0xfffffefa
    1364:	01040200 	mrseq	r0, R12_usr
    1368:	09052f06 	stmdbeq	r5, {r1, r2, r8, r9, sl, fp, sp}
    136c:	01040200 	mrseq	r0, R12_usr
    1370:	000b0513 	andeq	r0, fp, r3, lsl r5
    1374:	06010402 	streq	r0, [r1], -r2, lsl #8
    1378:	00090501 	andeq	r0, r9, r1, lsl #10
    137c:	06010402 	streq	r0, [r1], -r2, lsl #8
    1380:	000f054b 	andeq	r0, pc, fp, asr #10
    1384:	06010402 	streq	r0, [r1], -r2, lsl #8
    1388:	000d0501 	andeq	r0, sp, r1, lsl #10
    138c:	06010402 	streq	r0, [r1], -r2, lsl #8
    1390:	0005052f 	andeq	r0, r5, pc, lsr #10
    1394:	06010402 	streq	r0, [r1], -r2, lsl #8
    1398:	00060201 	andeq	r0, r6, r1, lsl #4
    139c:	00b50101 	adcseq	r0, r5, r1, lsl #2
    13a0:	00030000 	andeq	r0, r3, r0
    13a4:	00000071 	andeq	r0, r0, r1, ror r0
    13a8:	0efb0102 	cdpeq	1, 15, cr0, cr11, cr2, {0}
    13ac:	0101000d 	tsteq	r1, sp
    13b0:	00000101 	andeq	r0, r0, r1, lsl #2
    13b4:	00000100 	andeq	r0, r0, r0, lsl #2
    13b8:	6c2f2e01 	stcvs	14, cr2, [pc], #-4	; 13bc <__code_start__-0x6c44>
    13bc:	00636269 	rsbeq	r6, r3, r9, ror #4
    13c0:	6573552f 	ldrbvs	r5, [r3, #-1327]!	; 0xfffffad1
    13c4:	6a2f7372 	bvs	bde194 <__bss_end__+0xbd48e4>
    13c8:	64657261 	strbtvs	r7, [r5], #-609	; 0xfffffd9f
    13cc:	73696577 	cmnvc	r9, #499122176	; 0x1dc00000
    13d0:	72656273 	rsbvc	r6, r5, #805306375	; 0x30000007
    13d4:	6f432f67 	svcvs	0x00432f67
    13d8:	65737275 	ldrbvs	r7, [r3, #-629]!	; 0xfffffd8b
    13dc:	73632f73 	cmnvc	r3, #460	; 0x1cc
    13e0:	65303431 	ldrvs	r3, [r0, #-1073]!	; 0xfffffbcf
    13e4:	3273632f 	rsbscc	r6, r3, #-1140850688	; 0xbc000000
    13e8:	786c3034 	stmdavc	ip!, {r2, r4, r5, ip, sp}^
    13ec:	7332322d 	teqvc	r2, #-805306366	; 0xd0000002
    13f0:	2f2f7270 	svccs	0x002f7270
    13f4:	7062696c 	rsbvc	r6, r2, ip, ror #18
    13f8:	6e692f69 	cdpvs	15, 6, cr2, cr9, cr9, {3}
    13fc:	64756c63 	ldrbtvs	r6, [r5], #-3171	; 0xfffff39d
    1400:	73000065 	movwvc	r0, #101	; 0x65
    1404:	6d637274 	sfmvs	f7, 2, [r3, #-464]!	; 0xfffffe30
    1408:	00632e70 	rsbeq	r2, r3, r0, ror lr
    140c:	72000001 	andvc	r0, r0, #1, 0
    1410:	682e6970 	stmdavs	lr!, {r4, r5, r6, r8, fp, sp, lr}
    1414:	00000200 	andeq	r0, r0, r0, lsl #4
    1418:	002a0500 	eoreq	r0, sl, r0, lsl #10
    141c:	8f5c0205 	svchi	0x005c0205
    1420:	05140000 	ldreq	r0, [r4, #-0]
    1424:	0f051309 	svceq	0x00051309
    1428:	06100501 	ldreq	r0, [r0], -r1, lsl #10
    142c:	2e0f0501 	cfsh32cs	mvfx0, mvfx15, #1
    1430:	02001c05 	andeq	r1, r0, #1280	; 0x500
    1434:	054a0104 	strbeq	r0, [sl, #-260]	; 0xfffffefc
    1438:	04020013 	streq	r0, [r2], #-19	; 0xffffffed
    143c:	11052e01 	tstne	r5, r1, lsl #28
    1440:	16052f06 	strne	r2, [r5], -r6, lsl #30
    1444:	052e2e06 	streq	r2, [lr, #-3590]!	; 0xfffff1fa
    1448:	052f0609 	streq	r0, [pc, #-1545]!	; e47 <__code_start__-0x71b9>
    144c:	05010615 	streq	r0, [r1, #-1557]	; 0xfffff9eb
    1450:	04022f01 	streq	r2, [r2], #-3841	; 0xfffff0ff
    1454:	b3010100 	movwlt	r0, #4352	; 0x1100
    1458:	03000000 	movweq	r0, #0
    145c:	00007100 	andeq	r7, r0, r0, lsl #2
    1460:	fb010200 	blx	41c6a <__bss_end__+0x383ba>
    1464:	01000d0e 	tsteq	r0, lr, lsl #26
    1468:	00010101 	andeq	r0, r1, r1, lsl #2
    146c:	00010000 	andeq	r0, r1, r0
    1470:	2f2e0100 	svccs	0x002e0100
    1474:	6362696c 	cmnvs	r2, #108, 18	; 0x1b0000
    1478:	73552f00 	cmpvc	r5, #0, 30
    147c:	2f737265 	svccs	0x00737265
    1480:	6572616a 	ldrbvs	r6, [r2, #-362]!	; 0xfffffe96
    1484:	69657764 	stmdbvs	r5!, {r2, r5, r6, r8, r9, sl, ip, sp, lr}^
    1488:	65627373 	strbvs	r7, [r2, #-883]!	; 0xfffffc8d
    148c:	432f6772 			; <UNDEFINED> instruction: 0x432f6772
    1490:	7372756f 	cmnvc	r2, #465567744	; 0x1bc00000
    1494:	632f7365 			; <UNDEFINED> instruction: 0x632f7365
    1498:	30343173 	eorscc	r3, r4, r3, ror r1
    149c:	73632f65 	cmnvc	r3, #404	; 0x194
    14a0:	6c303432 	cfldrsvs	mvf3, [r0], #-200	; 0xffffff38
    14a4:	32322d78 	eorscc	r2, r2, #120, 26	; 0x1e00
    14a8:	2f727073 	svccs	0x00727073
    14ac:	62696c2f 	rsbvs	r6, r9, #12032	; 0x2f00
    14b0:	692f6970 	stmdbvs	pc!, {r4, r5, r6, r8, fp, sp, lr}	; <UNPREDICTABLE>
    14b4:	756c636e 	strbvc	r6, [ip, #-878]!	; 0xfffffc92
    14b8:	00006564 	andeq	r6, r0, r4, ror #10
    14bc:	63727473 	cmnvs	r2, #1929379840	; 0x73000000
    14c0:	632e7970 			; <UNDEFINED> instruction: 0x632e7970
    14c4:	00000100 	andeq	r0, r0, r0, lsl #2
    14c8:	2e697072 	mcrcs	0, 3, r7, cr9, cr2, {3}
    14cc:	00020068 	andeq	r0, r2, r8, rrx
    14d0:	2a050000 	bcs	1414d8 <__bss_end__+0x137c28>
    14d4:	88020500 	stmdahi	r2, {r8, sl}
    14d8:	1400008f 	strne	r0, [r0], #-143	; 0xffffff71
    14dc:	13130505 	tstne	r3, #20971520	; 0x1400000
    14e0:	11061405 	tstne	r6, r5, lsl #8
    14e4:	02002205 	andeq	r2, r0, #1342177280	; 0x50000000
    14e8:	2f060104 	svccs	0x00060104
    14ec:	02000b05 	andeq	r0, r0, #5120	; 0x1400
    14f0:	05010104 	streq	r0, [r1, #-260]	; 0xfffffefc
    14f4:	04020015 	streq	r0, [r2], #-21	; 0xffffffeb
    14f8:	05010601 	streq	r0, [r1, #-1537]	; 0xfffff9ff
    14fc:	04020013 	streq	r0, [r2], #-19	; 0xffffffed
    1500:	0b054a01 	bleq	153d0c <__bss_end__+0x14a45c>
    1504:	01040200 	mrseq	r0, R12_usr
    1508:	0006024a 	andeq	r0, r6, sl, asr #4
    150c:	01160101 	tsteq	r6, r1, lsl #2
    1510:	00030000 	andeq	r0, r3, r0
    1514:	000000da 	ldrdeq	r0, [r0], -sl
    1518:	0efb0102 	cdpeq	1, 15, cr0, cr11, cr2, {0}
    151c:	0101000d 	tsteq	r1, sp
    1520:	00000101 	andeq	r0, r0, r1, lsl #2
    1524:	00000100 	andeq	r0, r0, r0, lsl #2
    1528:	6c2f2e01 	stcvs	14, cr2, [pc], #-4	; 152c <__code_start__-0x6ad4>
    152c:	00636269 	rsbeq	r6, r3, r9, ror #4
    1530:	6573552f 	ldrbvs	r5, [r3, #-1327]!	; 0xfffffad1
    1534:	6a2f7372 	bvs	bde304 <__bss_end__+0xbd4a54>
    1538:	64657261 	strbtvs	r7, [r5], #-609	; 0xfffffd9f
    153c:	73696577 	cmnvc	r9, #499122176	; 0x1dc00000
    1540:	72656273 	rsbvc	r6, r5, #805306375	; 0x30000007
    1544:	6f432f67 	svcvs	0x00432f67
    1548:	65737275 	ldrbvs	r7, [r3, #-629]!	; 0xfffffd8b
    154c:	73632f73 	cmnvc	r3, #460	; 0x1cc
    1550:	65303431 	ldrvs	r3, [r0, #-1073]!	; 0xfffffbcf
    1554:	3273632f 	rsbscc	r6, r3, #-1140850688	; 0xbc000000
    1558:	786c3034 	stmdavc	ip!, {r2, r4, r5, ip, sp}^
    155c:	7332322d 	teqvc	r2, #-805306366	; 0xd0000002
    1560:	2f2f7270 	svccs	0x002f7270
    1564:	7062696c 	rsbvc	r6, r2, ip, ror #18
    1568:	6e692f69 	cdpvs	15, 6, cr2, cr9, cr9, {3}
    156c:	64756c63 	ldrbtvs	r6, [r5], #-3171	; 0xfffff39d
    1570:	6f2f0065 	svcvs	0x002f0065
    1574:	682f7470 	stmdavs	pc!, {r4, r5, r6, sl, ip, sp, lr}	; <UNPREDICTABLE>
    1578:	62656d6f 	rsbvs	r6, r5, #7104	; 0x1bc0
    157c:	2f776572 	svccs	0x00776572
    1580:	6c6c6543 	cfstr64vs	mvdx6, [ip], #-268	; 0xfffffef4
    1584:	612f7261 			; <UNDEFINED> instruction: 0x612f7261
    1588:	6e2d6d72 	mcrvs	13, 1, r6, cr13, cr2, {3}
    158c:	2d656e6f 	stclcs	14, cr6, [r5, #-444]!	; 0xfffffe44
    1590:	69626165 	stmdbvs	r2!, {r0, r2, r5, r6, r8, sp, lr}^
    1594:	7365742d 	cmnvc	r5, #754974720	; 0x2d000000
    1598:	2d392f74 	ldccs	15, cr2, [r9, #-464]!	; 0xfffffe30
    159c:	39313032 	ldmdbcc	r1!, {r1, r4, r5, ip, sp}
    15a0:	632d3471 			; <UNDEFINED> instruction: 0x632d3471
    15a4:	37303173 			; <UNDEFINED> instruction: 0x37303173
    15a8:	696c2f65 	stmdbvs	ip!, {r0, r2, r5, r6, r8, r9, sl, fp, sp}^
    15ac:	63672f62 	cmnvs	r7, #392	; 0x188
    15b0:	72612f63 	rsbvc	r2, r1, #396	; 0x18c
    15b4:	6f6e2d6d 	svcvs	0x006e2d6d
    15b8:	652d656e 	strvs	r6, [sp, #-1390]!	; 0xfffffa92
    15bc:	2f696261 	svccs	0x00696261
    15c0:	2e322e39 	mrccs	14, 1, r2, cr2, cr9, {1}
    15c4:	6e692f31 	mcrvs	15, 3, r2, cr9, cr1, {1}
    15c8:	64756c63 	ldrbtvs	r6, [r5], #-3171	; 0xfffff39d
    15cc:	73000065 	movwvc	r0, #101	; 0x65
    15d0:	636e7274 	cmnvs	lr, #116, 4	; 0x40000007
    15d4:	632e706d 			; <UNDEFINED> instruction: 0x632e706d
    15d8:	00000100 	andeq	r0, r0, r0, lsl #2
    15dc:	2e697072 	mcrcs	0, 3, r7, cr9, cr2, {3}
    15e0:	00020068 	andeq	r0, r2, r8, rrx
    15e4:	64747300 	ldrbtvs	r7, [r4], #-768	; 0xfffffd00
    15e8:	2e666564 	cdpcs	5, 6, cr6, cr6, cr4, {3}
    15ec:	00030068 	andeq	r0, r3, r8, rrx
    15f0:	39050000 	stmdbcc	r5, {}	; <UNPREDICTABLE>
    15f4:	a8020500 	stmdage	r2, {r8, sl}
    15f8:	1500008f 	strne	r0, [r0, #-143]	; 0xffffff71
    15fc:	13130505 	tstne	r3, #20971520	; 0x1400000
    1600:	06010a05 	streq	r0, [r1], -r5, lsl #20
    1604:	09054a01 	stmdbeq	r5, {r0, r9, fp, lr}
    1608:	0c052f06 	stceq	15, cr2, [r5], {6}
    160c:	13050106 	movwne	r0, #20742	; 0x5106
    1610:	2e0b052e 	cfsh32cs	mvfx0, mvfx11, #30
    1614:	4b060d05 	blmi	184a30 <__bss_end__+0x17b180>
    1618:	01061b05 	tsteq	r6, r5, lsl #22
    161c:	300c052e 	andcc	r0, ip, lr, lsr #10
    1620:	022f0105 	eoreq	r0, pc, #1073741825	; 0x40000001
    1624:	01010002 	tsteq	r1, r2
    1628:	000000a2 	andeq	r0, r0, r2, lsr #1
    162c:	00860003 	addeq	r0, r6, r3
    1630:	01020000 	mrseq	r0, (UNDEF: 2)
    1634:	000d0efb 	strdeq	r0, [sp], -fp
    1638:	01010101 	tsteq	r1, r1, lsl #2
    163c:	01000000 	mrseq	r0, (UNDEF: 0)
    1640:	2e010000 	cdpcs	0, 0, cr0, cr1, cr0, {0}
    1644:	6174732f 	cmnvs	r4, pc, lsr #6
    1648:	732d6666 			; <UNDEFINED> instruction: 0x732d6666
    164c:	2f006372 	svccs	0x00006372
    1650:	72657355 	rsbvc	r7, r5, #1409286145	; 0x54000001
    1654:	616a2f73 	smcvs	41715	; 0xa2f3
    1658:	77646572 			; <UNDEFINED> instruction: 0x77646572
    165c:	73736965 	cmnvc	r3, #1654784	; 0x194000
    1660:	67726562 	ldrbvs	r6, [r2, -r2, ror #10]!
    1664:	756f432f 	strbvc	r4, [pc, #-815]!	; 133d <__code_start__-0x6cc3>
    1668:	73657372 	cmnvc	r5, #-939524095	; 0xc8000001
    166c:	3173632f 	cmncc	r3, pc, lsr #6
    1670:	2f653034 	svccs	0x00653034
    1674:	34327363 	ldrtcc	r7, [r2], #-867	; 0xfffffc9d
    1678:	2d786c30 	ldclcs	12, cr6, [r8, #-192]!	; 0xffffff40
    167c:	70733232 	rsbsvc	r3, r3, r2, lsr r2
    1680:	6c2f2f72 	stcvs	15, cr2, [pc], #-456	; 14c0 <__code_start__-0x6b40>
    1684:	69706269 	ldmdbvs	r0!, {r0, r3, r5, r6, r9, sp, lr}^
    1688:	636e692f 	cmnvs	lr, #770048	; 0xbc000
    168c:	6564756c 	strbvs	r7, [r4, #-1388]!	; 0xfffffa94
    1690:	65640000 	strbvs	r0, [r4, #-0]!
    1694:	6c756166 	ldfvse	f6, [r5], #-408	; 0xfffffe68
    1698:	65722d74 	ldrbvs	r2, [r2, #-3444]!	; 0xfffff28c
    169c:	746f6f62 	strbtvc	r6, [pc], #-3938	; 16a4 <__code_start__-0x695c>
    16a0:	6c61632d 	stclvs	3, cr6, [r1], #-180	; 0xffffff4c
    16a4:	74756f6c 	ldrbtvc	r6, [r5], #-3948	; 0xfffff094
    16a8:	0100632e 	tsteq	r0, lr, lsr #6
    16ac:	70720000 	rsbsvc	r0, r2, r0
    16b0:	00682e69 	rsbeq	r2, r8, r9, ror #28
    16b4:	00000002 	andeq	r0, r0, r2
    16b8:	05001b05 	streq	r1, [r0, #-2821]	; 0xfffff4fb
    16bc:	008fd402 	addeq	sp, pc, r2, lsl #8
    16c0:	1c051400 	cfstrsne	mvf1, [r5], {-0}
    16c4:	06010501 	streq	r0, [r1], -r1, lsl #10
    16c8:	00020201 	andeq	r0, r2, r1, lsl #4
    16cc:	01bb0101 			; <UNDEFINED> instruction: 0x01bb0101
    16d0:	00030000 	andeq	r0, r3, r0
    16d4:	000000bf 	strheq	r0, [r0], -pc	; <UNPREDICTABLE>
    16d8:	0efb0102 	cdpeq	1, 15, cr0, cr11, cr2, {0}
    16dc:	0101000d 	tsteq	r1, sp
    16e0:	00000101 	andeq	r0, r0, r1, lsl #2
    16e4:	00000100 	andeq	r0, r0, r0, lsl #2
    16e8:	6f682f01 	svcvs	0x00682f01
    16ec:	652f656d 	strvs	r6, [pc, #-1389]!	; 1187 <__code_start__-0x6e79>
    16f0:	656c676e 	strbvs	r6, [ip, #-1902]!	; 0xfffff892
    16f4:	6c632f72 	stclvs	15, cr2, [r3], #-456	; 0xfffffe38
    16f8:	2f737361 	svccs	0x00737361
    16fc:	34327363 	ldrtcc	r7, [r2], #-867	; 0xfffffc9d
    1700:	2d786c30 	ldclcs	12, cr6, [r8, #-192]!	; 0xffffff40
    1704:	70733232 	rsbsvc	r3, r3, r2, lsr r2
    1708:	6c2f2f72 	stcvs	15, cr2, [pc], #-456	; 1548 <__code_start__-0x6ab8>
    170c:	69706269 	ldmdbvs	r0!, {r0, r3, r5, r6, r9, sp, lr}^
    1710:	636e692f 	cmnvs	lr, #770048	; 0xbc000
    1714:	6564756c 	strbvs	r7, [r4, #-1388]!	; 0xfffffa94
    1718:	73752f00 	cmnvc	r5, #0, 30
    171c:	68732f72 	ldmdavs	r3!, {r1, r4, r5, r6, r8, r9, sl, fp, sp}^
    1720:	2f657261 	svccs	0x00657261
    1724:	2d636367 	stclcs	3, cr6, [r3, #-412]!	; 0xfffffe64
    1728:	2d6d7261 	sfmcs	f7, 2, [sp, #-388]!	; 0xfffffe7c
    172c:	656e6f6e 	strbvs	r6, [lr, #-3950]!	; 0xfffff092
    1730:	6261652d 	rsbvs	r6, r1, #188743680	; 0xb400000
    1734:	30312d69 	eorscc	r2, r1, r9, ror #26
    1738:	322d332e 	eorcc	r3, sp, #-1207959552	; 0xb8000000
    173c:	2e313230 	mrccs	2, 1, r3, cr1, cr0, {1}
    1740:	6c2f3031 	stcvs	0, cr3, [pc], #-196	; 1684 <__code_start__-0x697c>
    1744:	672f6269 	strvs	r6, [pc, -r9, ror #4]!
    1748:	612f6363 			; <UNDEFINED> instruction: 0x612f6363
    174c:	6e2d6d72 	mcrvs	13, 1, r6, cr13, cr2, {3}
    1750:	2d656e6f 	stclcs	14, cr6, [r5, #-444]!	; 0xfffffe44
    1754:	69626165 	stmdbvs	r2!, {r0, r2, r5, r6, r8, sp, lr}^
    1758:	2e30312f 	rsfcssp	f3, f0, #10.0
    175c:	2f312e33 	svccs	0x00312e33
    1760:	6c636e69 	stclvs	14, cr6, [r3], #-420	; 0xfffffe5c
    1764:	00656475 	rsbeq	r6, r5, r5, ror r4
    1768:	69706700 	ldmdbvs	r0!, {r8, r9, sl, sp, lr}^
    176c:	00632e6f 	rsbeq	r2, r3, pc, ror #28
    1770:	72000000 	andvc	r0, r0, #0, 0
    1774:	682e6970 	stmdavs	lr!, {r4, r5, r6, r8, fp, sp, lr}
    1778:	00000100 	andeq	r0, r0, r0, lsl #2
    177c:	69647473 	stmdbvs	r4!, {r0, r1, r4, r5, r6, sl, ip, sp, lr}^
    1780:	672d746e 	strvs	r7, [sp, -lr, ror #8]!
    1784:	682e6363 	stmdavs	lr!, {r0, r1, r5, r6, r8, r9, sp, lr}
    1788:	00000200 	andeq	r0, r0, r0, lsl #4
    178c:	6f697067 	svcvs	0x00697067
    1790:	0100682e 	tsteq	r0, lr, lsr #16
    1794:	05000000 	streq	r0, [r0, #-0]
    1798:	02050038 	andeq	r0, r5, #56, 0	; 0x38
    179c:	00008ff0 	strdeq	r8, [r0], -r0
    17a0:	05012703 	streq	r2, [r1, #-1795]	; 0xfffff8fd
    17a4:	07051305 	streq	r1, [r5, -r5, lsl #6]
    17a8:	38050106 	stmdacc	r5, {r1, r2, r8}
    17ac:	06050549 	streq	r0, [r5], -r9, asr #10
    17b0:	0607054d 	streq	r0, [r7], -sp, asr #10
    17b4:	06050501 	streq	r0, [r5], -r1, lsl #10
    17b8:	0618054c 	ldreq	r0, [r8], -ip, asr #10
    17bc:	ba0e0501 	blt	382bc8 <__bss_end__+0x379318>
    17c0:	2f060505 	svccs	0x00060505
    17c4:	01061c05 	tsteq	r6, r5, lsl #24
    17c8:	2e0e052e 	cfsh32cs	mvfx0, mvfx14, #30
    17cc:	30060505 	andcc	r0, r6, r5, lsl #10
    17d0:	01061205 	tsteq	r6, r5, lsl #4
    17d4:	4b060505 	blmi	182bf0 <__bss_end__+0x179340>
    17d8:	01060705 	tsteq	r6, r5, lsl #14
    17dc:	4b060505 	blmi	182bf8 <__bss_end__+0x179348>
    17e0:	052e0613 	streq	r0, [lr, #-1555]!	; 0xfffff9ed
    17e4:	24054b01 	strcs	r4, [r5], #-2817	; 0xfffff4ff
    17e8:	01064c06 	tsteq	r6, r6, lsl #24
    17ec:	2f060505 	svccs	0x00060505
    17f0:	4b060105 	blmi	181c0c <__bss_end__+0x17835c>
    17f4:	31062005 	tstcc	r6, r5
    17f8:	05130505 	ldreq	r0, [r3, #-1285]	; 0xfffffafb
    17fc:	05010607 	streq	r0, [r1, #-1543]	; 0xfffff9f9
    1800:	05054920 	streq	r4, [r5, #-2336]	; 0xfffff6e0
    1804:	66063106 	strvs	r3, [r6], -r6, lsl #2
    1808:	052f0105 	streq	r0, [pc, #-261]!	; 170b <__code_start__-0x68f5>
    180c:	054d0621 	strbeq	r0, [sp, #-1569]	; 0xfffff9df
    1810:	07051305 	streq	r1, [r5, -r5, lsl #6]
    1814:	21050106 	tstcs	r5, r6, lsl #2
    1818:	06050549 	streq	r0, [r5], -r9, asr #10
    181c:	05660631 	strbeq	r0, [r6, #-1585]!	; 0xfffff9cf
    1820:	23052f01 	movwcs	r2, #24321	; 0x5f01
    1824:	01064d06 	tsteq	r6, r6, lsl #26
    1828:	2f060505 	svccs	0x00060505
    182c:	4b060105 	blmi	181c48 <__bss_end__+0x178398>
    1830:	31062b05 	tstcc	r6, r5, lsl #22
    1834:	05050106 	streq	r0, [r5, #-262]	; 0xfffffefa
    1838:	07052f06 	streq	r2, [r5, -r6, lsl #30]
    183c:	09050106 	stmdbeq	r5, {r1, r2, r8}
    1840:	2e064b06 	vmlacs.f64	d4, d6, d6
    1844:	01053006 	tsteq	r5, r6
    1848:	1d052f06 	stcne	15, cr2, [r5, #-24]	; 0xffffffe8
    184c:	05053006 	streq	r3, [r5, #-6]
    1850:	06070513 			; <UNDEFINED> instruction: 0x06070513
    1854:	491d0501 	ldmdbmi	sp, {r0, r8, sl}
    1858:	31060505 	tstcc	r6, r5, lsl #10
    185c:	060e0513 			; <UNDEFINED> instruction: 0x060e0513
    1860:	06050501 	streq	r0, [r5], -r1, lsl #10
    1864:	0617052f 	ldreq	r0, [r7], -pc, lsr #10
    1868:	23054a01 	movwcs	r4, #23041	; 0x5a01
    186c:	0502042e 	streq	r0, [r2, #-1070]	; 0xfffffbd2
    1870:	dc030630 	stcle	6, cr0, [r3], {48}	; 0x30
    1874:	01042e00 	tsteq	r4, r0, lsl #28
    1878:	03060c05 	movweq	r0, #27653	; 0x6c05
    187c:	05017fa4 	streq	r7, [r1, #-4004]	; 0xfffff05c
    1880:	10052f01 	andne	r2, r5, r1, lsl #30
    1884:	3201052a 	andcc	r0, r1, #176160768	; 0xa800000
    1888:	01000402 	tsteq	r0, r2, lsl #8
    188c:	Address 0x000000000000188c is out of bounds.


Disassembly of section .debug_str:

00000000 <.debug_str>:
   0:	5f6d7261 	svcpl	0x006d7261
   4:	5f6e766d 	svcpl	0x006e766d
   8:	6100706f 	tstvs	r0, pc, rrx
   c:	735f6d72 	cmpvc	pc, #7296	; 0x1c80
  10:	72610070 	rsbvc	r0, r1, #112, 0	; 0x70
  14:	43435f6d 	movtmi	r5, #16237	; 0x3f6d
  18:	6e656700 	cdpvs	7, 6, cr6, cr5, cr0, {0}
  1c:	63697265 	cmnvs	r9, #1342177286	; 0x50000006
  20:	6c61635f 	stclvs	3, cr6, [r1], #-380	; 0xfffffe84
  24:	6e695f6c 	cdpvs	15, 6, cr5, cr9, cr12, {3}
  28:	61740074 	cmnvs	r4, r4, ror r0
  2c:	74656772 	strbtvc	r6, [r5], #-1906	; 0xfffff88e
  30:	6f687300 	svcvs	0x00687300
  34:	69207472 	stmdbvs	r0!, {r1, r4, r5, r6, sl, ip, sp, lr}
  38:	6100746e 	tstvs	r0, lr, ror #8
  3c:	565f6d72 			; <UNDEFINED> instruction: 0x565f6d72
  40:	72610043 	rsbvc	r0, r1, #67, 0	; 0x43
  44:	45475f6d 	strbmi	r5, [r7, #-3949]	; 0xfffff093
  48:	6d726100 	ldfvse	f6, [r2, #-0]
  4c:	6362735f 	cmnvs	r2, #2080374785	; 0x7c000001
  50:	00706f5f 	rsbseq	r6, r0, pc, asr pc
  54:	5f6d7261 	svcpl	0x006d7261
  58:	5f72726f 	svcpl	0x0072726f
  5c:	5f00706f 	svcpl	0x0000706f
  60:	0074756f 	rsbseq	r7, r4, pc, ror #10
  64:	5f6d7261 	svcpl	0x006d7261
  68:	5f726f65 	svcpl	0x00726f65
  6c:	7200706f 	andvc	r7, r0, #111, 0	; 0x6f
  70:	705f6970 	subsvc	r6, pc, r0, ror r9	; <UNPREDICTABLE>
  74:	68637475 	stmdavs	r3!, {r0, r2, r4, r5, r6, sl, ip, sp, lr}^
  78:	69007261 	stmdbvs	r0, {r0, r5, r6, r9, ip, sp, lr}
  7c:	632d746e 			; <UNDEFINED> instruction: 0x632d746e
  80:	69706d6f 	ldmdbvs	r0!, {r0, r1, r2, r3, r5, r6, r8, sl, fp, sp, lr}^
  84:	632e656c 			; <UNDEFINED> instruction: 0x632e656c
  88:	6d726100 	ldfvse	f6, [r2, #-0]
  8c:	00726c5f 	rsbseq	r6, r2, pc, asr ip
  90:	5f6d7261 	svcpl	0x006d7261
  94:	61005356 	tstvs	r0, r6, asr r3
  98:	705f6d72 	subsvc	r6, pc, r2, ror sp	; <UNPREDICTABLE>
  9c:	72610063 	rsbvc	r0, r1, #99, 0	; 0x63
  a0:	64615f6d 	strbtvs	r5, [r1], #-3949	; 0xfffff093
  a4:	706f5f64 	rsbvc	r5, pc, r4, ror #30
  a8:	746e6900 	strbtvc	r6, [lr], #-2304	; 0xfffff700
  ac:	6100365f 	tstvs	r0, pc, asr r6
  b0:	745f6d72 	ldrbvc	r6, [pc], #-3442	; b8 <__code_start__-0x7f48>
  b4:	6f5f7165 	svcvs	0x005f7165
  b8:	72610070 	rsbvc	r0, r1, #112, 0	; 0x70
  bc:	75735f6d 	ldrbvc	r5, [r3, #-3949]!	; 0xfffff093
  c0:	706f5f62 	rsbvc	r5, pc, r2, ror #30
  c4:	6d726100 	ldfvse	f6, [r2, #-0]
  c8:	6273725f 	rsbsvs	r7, r3, #-268435451	; 0xf0000005
  cc:	00706f5f 	rsbseq	r6, r0, pc, asr pc
  d0:	676e6f6c 	strbvs	r6, [lr, -ip, ror #30]!
  d4:	6e6f6c20 	cdpvs	12, 6, cr6, cr15, cr0, {1}
  d8:	6e692067 	cdpvs	0, 6, cr2, cr9, cr7, {3}
  dc:	72610074 	rsbvc	r0, r1, #116, 0	; 0x74
  e0:	454c5f6d 	strbmi	r5, [ip, #-3949]	; 0xfffff093
  e4:	6d726100 	ldfvse	f6, [r2, #-0]
  e8:	0049485f 	subeq	r4, r9, pc, asr r8
  ec:	55465f5f 	strbpl	r5, [r6, #-3935]	; 0xfffff0a1
  f0:	4954434e 	ldmdbmi	r4, {r1, r2, r3, r6, r8, r9, lr}^
  f4:	5f5f4e4f 	svcpl	0x005f4e4f
  f8:	6d726100 	ldfvse	f6, [r2, #-0]
  fc:	646e615f 	strbtvs	r6, [lr], #-351	; 0xfffffea1
 100:	00706f5f 	rsbseq	r6, r0, pc, asr pc
 104:	5f746e69 	svcpl	0x00746e69
 108:	61007066 	tstvs	r0, r6, rrx
 10c:	635f6d72 	cmpvs	pc, #7296	; 0x1c80
 110:	6f5f6e6d 	svcvs	0x005f6e6d
 114:	6c630070 	stclvs	0, cr0, [r3], #-448	; 0xfffffe40
 118:	5f6e6165 	svcpl	0x006e6165
 11c:	6f626572 	svcvs	0x00626572
 120:	6100746f 	tstvs	r0, pc, ror #8
 124:	475f6d72 			; <UNDEFINED> instruction: 0x475f6d72
 128:	72610054 	rsbvc	r0, r1, #84, 0	; 0x54
 12c:	6c625f6d 	stclvs	15, cr5, [r2], #-436	; 0xfffffe4c
 130:	6d726100 	ldfvse	f6, [r2, #-0]
 134:	004c415f 	subeq	r4, ip, pc, asr r1
 138:	5f6d7261 	svcpl	0x006d7261
 13c:	7500544c 	strvc	r5, [r0, #-1100]	; 0xfffffbb4
 140:	6769736e 	strbvs	r7, [r9, -lr, ror #6]!
 144:	2064656e 	rsbcs	r6, r4, lr, ror #10
 148:	72616863 	rsbvc	r6, r1, #6488064	; 0x630000
 14c:	6d726100 	ldfvse	f6, [r2, #-0]
 150:	00534c5f 	subseq	r4, r3, pc, asr ip
 154:	5f6d7261 	svcpl	0x006d7261
 158:	61003072 	tstvs	r0, r2, ror r0
 15c:	725f6d72 	subsvc	r6, pc, #7296	; 0x1c80
 160:	72610031 	rsbvc	r0, r1, #49, 0	; 0x31
 164:	32725f6d 	rsbscc	r5, r2, #436	; 0x1b4
 168:	6d726100 	ldfvse	f6, [r2, #-0]
 16c:	0033725f 	eorseq	r7, r3, pc, asr r2
 170:	5f6d7261 	svcpl	0x006d7261
 174:	61003472 	tstvs	r0, r2, ror r4
 178:	725f6d72 	subsvc	r6, pc, #7296	; 0x1c80
 17c:	6f6c0036 	svcvs	0x006c0036
 180:	6c20676e 	stcvs	7, cr6, [r0], #-440	; 0xfffffe48
 184:	20676e6f 	rsbcs	r6, r7, pc, ror #28
 188:	69736e75 	ldmdbvs	r3!, {r0, r2, r4, r5, r6, r9, sl, fp, sp, lr}^
 18c:	64656e67 	strbtvs	r6, [r5], #-3687	; 0xfffff199
 190:	746e6920 	strbtvc	r6, [lr], #-2336	; 0xfffff6e0
 194:	6d726100 	ldfvse	f6, [r2, #-0]
 198:	0038725f 	eorseq	r7, r8, pc, asr r2
 19c:	746e6975 	strbtvc	r6, [lr], #-2421	; 0xfffff68b
 1a0:	745f3233 	ldrbvc	r3, [pc], #-563	; 1a8 <__code_start__-0x7e58>
 1a4:	746e6900 	strbtvc	r6, [lr], #-2304	; 0xfffff700
 1a8:	6100335f 	tstvs	r0, pc, asr r3
 1ac:	505f6d72 	subspl	r6, pc, r2, ror sp	; <UNPREDICTABLE>
 1b0:	6f63004c 	svcvs	0x0063004c
 1b4:	61006564 	tstvs	r0, r4, ror #10
 1b8:	725f6d72 	subsvc	r6, pc, #7296	; 0x1c80
 1bc:	6f5f6373 	svcvs	0x005f6373
 1c0:	6e690070 	mcrvs	0, 3, r0, cr9, cr0, {3}
 1c4:	6e007674 	mcrvs	6, 0, r7, cr0, cr4, {3}
 1c8:	616d746f 	cmnvs	sp, pc, ror #8
 1cc:	73006e69 	movwvc	r6, #3689	; 0xe69
 1d0:	74726f68 	ldrbtvc	r6, [r2], #-3944	; 0xfffff098
 1d4:	736e7520 	cmnvc	lr, #32, 10	; 0x8000000
 1d8:	656e6769 	strbvs	r6, [lr, #-1897]!	; 0xfffff897
 1dc:	6e692064 	cdpvs	0, 6, cr2, cr9, cr4, {3}
 1e0:	72610074 	rsbvc	r0, r1, #116, 0	; 0x74
 1e4:	51455f6d 	cmppl	r5, sp, ror #30
 1e8:	6d726100 	ldfvse	f6, [r2, #-0]
 1ec:	766f6d5f 			; <UNDEFINED> instruction: 0x766f6d5f
 1f0:	00706f5f 	rsbseq	r6, r0, pc, asr pc
 1f4:	5f6d7261 	svcpl	0x006d7261
 1f8:	61003972 	tstvs	r0, r2, ror r9
 1fc:	435f6d72 	cmpmi	pc, #7296	; 0x1c80
 200:	72610053 	rsbvc	r0, r1, #83, 0	; 0x53
 204:	69625f6d 	stmdbvs	r2!, {r0, r2, r3, r5, r6, r8, r9, sl, fp, ip, lr}^
 208:	706f5f63 	rsbvc	r5, pc, r3, ror #30
 20c:	6d726100 	ldfvse	f6, [r2, #-0]
 210:	0035725f 	eorseq	r7, r5, pc, asr r2
 214:	20554e47 	subscs	r4, r5, r7, asr #28
 218:	20393943 	eorscs	r3, r9, r3, asr #18
 21c:	2e322e39 	mrccs	14, 1, r2, cr2, cr9, {1}
 220:	30322031 	eorscc	r2, r2, r1, lsr r0
 224:	30313931 	eorscc	r3, r1, r1, lsr r9
 228:	28203532 	stmdacs	r0!, {r1, r4, r5, r8, sl, ip, sp}
 22c:	656c6572 	strbvs	r6, [ip, #-1394]!	; 0xfffffa8e
 230:	29657361 	stmdbcs	r5!, {r0, r5, r6, r8, r9, ip, sp, lr}^
 234:	52415b20 	subpl	r5, r1, #32, 22	; 0x8000
 238:	72612f4d 	rsbvc	r2, r1, #308	; 0x134
 23c:	2d392d6d 	ldccs	13, cr2, [r9, #-436]!	; 0xfffffe4c
 240:	6e617262 	cdpvs	2, 6, cr7, cr1, cr2, {3}
 244:	72206863 	eorvc	r6, r0, #6488064	; 0x630000
 248:	73697665 	cmnvc	r9, #105906176	; 0x6500000
 24c:	206e6f69 	rsbcs	r6, lr, r9, ror #30
 250:	35373732 	ldrcc	r3, [r7, #-1842]!	; 0xfffff8ce
 254:	205d3939 	subscs	r3, sp, r9, lsr r9
 258:	70636d2d 	rsbvc	r6, r3, sp, lsr #26
 25c:	72613d75 	rsbvc	r3, r1, #7488	; 0x1d40
 260:	3731316d 	ldrcc	r3, [r1, -sp, ror #2]!
 264:	667a6a36 			; <UNDEFINED> instruction: 0x667a6a36
 268:	2d20732d 	stccs	3, cr7, [r0, #-180]!	; 0xffffff4c
 26c:	6e75746d 	cdpvs	4, 7, cr7, cr5, cr13, {3}
 270:	72613d65 	rsbvc	r3, r1, #6464	; 0x1940
 274:	3731316d 	ldrcc	r3, [r1, -sp, ror #2]!
 278:	667a6a36 			; <UNDEFINED> instruction: 0x667a6a36
 27c:	2d20732d 	stccs	3, cr7, [r0, #-180]!	; 0xffffff4c
 280:	6f6c666d 	svcvs	0x006c666d
 284:	612d7461 			; <UNDEFINED> instruction: 0x612d7461
 288:	733d6962 	teqvc	sp, #1605632	; 0x188000
 28c:	2074666f 	rsbscs	r6, r4, pc, ror #12
 290:	72616d2d 	rsbvc	r6, r1, #2880	; 0xb40
 294:	6d2d206d 	stcvs	0, cr2, [sp, #-436]!	; 0xfffffe4c
 298:	68637261 	stmdavs	r3!, {r0, r5, r6, r9, ip, sp, lr}^
 29c:	6d72613d 	ldfvse	f6, [r2, #-244]!	; 0xffffff0c
 2a0:	7a6b3676 	bvc	1acdc80 <__bss_end__+0x1ac43d0>
 2a4:	67672d20 	strbvs	r2, [r7, -r0, lsr #26]!
 2a8:	2d206264 	sfmcs	f6, 4, [r0, #-400]!	; 0xfffffe70
 2ac:	2d20674f 	stccs	7, cr6, [r0, #-316]!	; 0xfffffec4
 2b0:	3d647473 	cfstrdcc	mvd7, [r4, #-460]!	; 0xfffffe34
 2b4:	39756e67 	ldmdbcc	r5!, {r0, r1, r2, r5, r6, r9, sl, fp, sp, lr}^
 2b8:	662d2039 			; <UNDEFINED> instruction: 0x662d2039
 2bc:	65657266 	strbvs	r7, [r5, #-614]!	; 0xfffffd9a
 2c0:	6e617473 	mcrvs	4, 3, r7, cr1, cr3, {3}
 2c4:	676e6964 	strbvs	r6, [lr, -r4, ror #18]!
 2c8:	6d726100 	ldfvse	f6, [r2, #-0]
 2cc:	0037725f 	eorseq	r7, r7, pc, asr r2
 2d0:	5f6d7261 	svcpl	0x006d7261
 2d4:	6100494d 	tstvs	r0, sp, asr #18
 2d8:	625f6d72 	subsvs	r6, pc, #7296	; 0x1c80
 2dc:	746e6900 	strbtvc	r6, [lr], #-2304	; 0xfffff700
 2e0:	6900345f 	stmdbvs	r0, {r0, r1, r2, r3, r4, r6, sl, ip, sp}
 2e4:	635f746e 	cmpvs	pc, #1845493760	; 0x6e000000
 2e8:	69706d6f 	ldmdbvs	r0!, {r0, r1, r2, r3, r5, r6, r8, sl, fp, sp, lr}^
 2ec:	6100656c 	tstvs	r0, ip, ror #10
 2f0:	725f6d72 	subsvc	r6, pc, #7296	; 0x1c80
 2f4:	61003031 	tstvs	r0, r1, lsr r0
 2f8:	725f6d72 	subsvc	r6, pc, #7296	; 0x1c80
 2fc:	61003131 	tstvs	r0, r1, lsr r1
 300:	725f6d72 	subsvc	r6, pc, #7296	; 0x1c80
 304:	61003231 	tstvs	r0, r1, lsr r2
 308:	725f6d72 	subsvc	r6, pc, #7296	; 0x1c80
 30c:	2f003331 	svccs	0x00003331
 310:	72657355 	rsbvc	r7, r5, #1409286145	; 0x54000001
 314:	616a2f73 	smcvs	41715	; 0xa2f3
 318:	77646572 			; <UNDEFINED> instruction: 0x77646572
 31c:	73736965 	cmnvc	r3, #1654784	; 0x194000
 320:	67726562 	ldrbvs	r6, [r2, -r2, ror #10]!
 324:	756f432f 	strbvc	r4, [pc, #-815]!	; fffffffd <__bss_end__+0xffff674d>
 328:	73657372 	cmnvc	r5, #-939524095	; 0xc8000001
 32c:	3173632f 	cmncc	r3, pc, lsr #6
 330:	2f653034 	svccs	0x00653034
 334:	34327363 	ldrtcc	r7, [r2], #-867	; 0xfffffc9d
 338:	2d786c30 	ldclcs	12, cr6, [r8, #-192]!	; 0xffffff40
 33c:	70733232 	rsbsvc	r3, r3, r2, lsr r2
 340:	616c2f72 	smcvs	49906	; 0xc2f2
 344:	312f7362 			; <UNDEFINED> instruction: 0x312f7362
 348:	6e79642d 	cdpvs	4, 7, cr6, cr9, cr13, {1}
 34c:	63696d61 	cmnvs	r9, #6208	; 0x1840
 350:	646f632d 	strbtvs	r6, [pc], #-813	; 358 <__code_start__-0x7ca8>
 354:	65672d65 	strbvs	r2, [r7, #-3429]!	; 0xfffff29b
 358:	6f632f6e 	svcvs	0x00632f6e
 35c:	322f6564 	eorcc	r6, pc, #100, 10	; 0x19000000
 360:	746e692d 	strbtvc	r6, [lr], #-2349	; 0xfffff6d3
 364:	6d6f632d 	stclvs	3, cr6, [pc, #-180]!	; 2b8 <__code_start__-0x7d48>
 368:	656c6970 	strbvs	r6, [ip, #-2416]!	; 0xfffff690
 36c:	72610072 	rsbvc	r0, r1, #114, 0	; 0x72
 370:	31725f6d 	cmncc	r2, sp, ror #30
 374:	70730035 	rsbsvc	r0, r3, r5, lsr r0
 378:	61696365 	cmnvs	r9, r5, ror #6
 37c:	657a696c 	ldrbvs	r6, [sl, #-2412]!	; 0xfffff694
 380:	61635f64 	cmnvs	r3, r4, ror #30
 384:	695f6c6c 	ldmdbvs	pc, {r2, r3, r5, r6, sl, fp, sp, lr}^	; <UNPREDICTABLE>
 388:	7200746e 	andvc	r7, r0, #1845493760	; 0x6e000000
 38c:	725f6970 	subsvc	r6, pc, #112, 18	; 0x1c0000
 390:	74657365 	strbtvc	r7, [r5], #-869	; 0xfffffc9b
 394:	7475705f 	ldrbtvc	r7, [r5], #-95	; 0xffffffa1
 398:	6e690063 	cdpvs	0, 6, cr0, cr9, cr3, {3}
 39c:	00305f74 	eorseq	r5, r0, r4, ror pc
 3a0:	5f746e69 	svcpl	0x00746e69
 3a4:	6e690031 	mcrvs	0, 3, r0, cr9, cr1, {1}
 3a8:	00325f74 	eorseq	r5, r2, r4, ror pc
 3ac:	63657073 	cmnvs	r5, #115, 0	; 0x73
 3b0:	696c6169 	stmdbvs	ip!, {r0, r3, r5, r6, r8, sp, lr}^
 3b4:	5f64657a 	svcpl	0x0064657a
 3b8:	6c6c6163 	stfvse	f6, [ip], #-396	; 0xfffffe74
 3bc:	006e665f 	rsbeq	r6, lr, pc, asr r6
 3c0:	5f6d7261 	svcpl	0x006d7261
 3c4:	00343172 	eorseq	r3, r4, r2, ror r1
 3c8:	5f6d7261 	svcpl	0x006d7261
 3cc:	5f636461 	svcpl	0x00636461
 3d0:	6900706f 	stmdbvs	r0, {r0, r1, r2, r3, r5, r6, ip, sp, lr}
 3d4:	355f746e 	ldrbcc	r7, [pc, #-1134]	; ffffff6e <__bss_end__+0xffff66be>
 3d8:	6d726100 	ldfvse	f6, [r2, #-0]
 3dc:	706d635f 	rsbvc	r6, sp, pc, asr r3
 3e0:	00706f5f 	rsbseq	r6, r0, pc, asr pc
 3e4:	5f746e69 	svcpl	0x00746e69
 3e8:	72610037 	rsbvc	r0, r1, #55, 0	; 0x37
 3ec:	73745f6d 	cmnvc	r4, #436	; 0x1b4
 3f0:	706f5f74 	rsbvc	r5, pc, r4, ror pc	; <UNPREDICTABLE>
 3f4:	6d726100 	ldfvse	f6, [r2, #-0]
 3f8:	00454e5f 	subeq	r4, r5, pc, asr lr
 3fc:	20554e47 	subscs	r4, r5, r7, asr #28
 400:	20393943 	eorscs	r3, r9, r3, asr #18
 404:	2e322e39 	mrccs	14, 1, r2, cr2, cr9, {1}
 408:	30322031 	eorscc	r2, r2, r1, lsr r0
 40c:	30313931 	eorscc	r3, r1, r1, lsr r9
 410:	28203532 	stmdacs	r0!, {r1, r4, r5, r8, sl, ip, sp}
 414:	656c6572 	strbvs	r6, [ip, #-1394]!	; 0xfffffa8e
 418:	29657361 	stmdbcs	r5!, {r0, r5, r6, r8, r9, ip, sp, lr}^
 41c:	52415b20 	subpl	r5, r1, #32, 22	; 0x8000
 420:	72612f4d 	rsbvc	r2, r1, #308	; 0x134
 424:	2d392d6d 	ldccs	13, cr2, [r9, #-436]!	; 0xfffffe4c
 428:	6e617262 	cdpvs	2, 6, cr7, cr1, cr2, {3}
 42c:	72206863 	eorvc	r6, r0, #6488064	; 0x630000
 430:	73697665 	cmnvc	r9, #105906176	; 0x6500000
 434:	206e6f69 	rsbcs	r6, lr, r9, ror #30
 438:	35373732 	ldrcc	r3, [r7, #-1842]!	; 0xfffff8ce
 43c:	205d3939 	subscs	r3, sp, r9, lsr r9
 440:	70636d2d 	rsbvc	r6, r3, sp, lsr #26
 444:	72613d75 	rsbvc	r3, r1, #7488	; 0x1d40
 448:	3731316d 	ldrcc	r3, [r1, -sp, ror #2]!
 44c:	667a6a36 			; <UNDEFINED> instruction: 0x667a6a36
 450:	2d20732d 	stccs	3, cr7, [r0, #-180]!	; 0xffffff4c
 454:	6e75746d 	cdpvs	4, 7, cr7, cr5, cr13, {3}
 458:	72613d65 	rsbvc	r3, r1, #6464	; 0x1940
 45c:	3731316d 	ldrcc	r3, [r1, -sp, ror #2]!
 460:	667a6a36 			; <UNDEFINED> instruction: 0x667a6a36
 464:	2d20732d 	stccs	3, cr7, [r0, #-180]!	; 0xffffff4c
 468:	6f6c666d 	svcvs	0x006c666d
 46c:	612d7461 			; <UNDEFINED> instruction: 0x612d7461
 470:	733d6962 	teqvc	sp, #1605632	; 0x188000
 474:	2074666f 	rsbscs	r6, r4, pc, ror #12
 478:	72616d2d 	rsbvc	r6, r1, #2880	; 0xb40
 47c:	6d2d206d 	stcvs	0, cr2, [sp, #-436]!	; 0xfffffe4c
 480:	68637261 	stmdavs	r3!, {r0, r5, r6, r9, ip, sp, lr}^
 484:	6d72613d 	ldfvse	f6, [r2, #-244]!	; 0xffffff0c
 488:	7a6b3676 	bvc	1acde68 <__bss_end__+0x1ac45b8>
 48c:	67672d20 	strbvs	r2, [r7, -r0, lsr #26]!
 490:	2d206264 	sfmcs	f6, 4, [r0, #-400]!	; 0xfffffe70
 494:	62646767 	rsbvs	r6, r4, #27000832	; 0x19c0000
 498:	674f2d20 	strbvs	r2, [pc, -r0, lsr #26]
 49c:	674f2d20 	strbvs	r2, [pc, -r0, lsr #26]
 4a0:	74732d20 	ldrbtvc	r2, [r3], #-3360	; 0xfffff2e0
 4a4:	6e673d64 	cdpvs	13, 6, cr3, cr7, cr4, {3}
 4a8:	20393975 	eorscs	r3, r9, r5, ror r9
 4ac:	6474732d 	ldrbtvs	r7, [r4], #-813	; 0xfffffcd3
 4b0:	756e673d 	strbvc	r6, [lr, #-1853]!	; 0xfffff8c3
 4b4:	2d203939 			; <UNDEFINED> instruction: 0x2d203939
 4b8:	65726666 	ldrbvs	r6, [r2, #-1638]!	; 0xfffff99a
 4bc:	61747365 	cmnvs	r4, r5, ror #6
 4c0:	6e69646e 	cdpvs	4, 6, cr6, cr9, cr14, {3}
 4c4:	72610067 	rsbvc	r0, r1, #103, 0	; 0x67
 4c8:	2f007367 	svccs	0x00007367
 4cc:	72657355 	rsbvc	r7, r5, #1409286145	; 0x54000001
 4d0:	616a2f73 	smcvs	41715	; 0xa2f3
 4d4:	77646572 			; <UNDEFINED> instruction: 0x77646572
 4d8:	73736965 	cmnvc	r3, #1654784	; 0x194000
 4dc:	67726562 	ldrbvs	r6, [r2, -r2, ror #10]!
 4e0:	756f432f 	strbvc	r4, [pc, #-815]!	; 1b9 <__code_start__-0x7e47>
 4e4:	73657372 	cmnvc	r5, #-939524095	; 0xc8000001
 4e8:	3173632f 	cmncc	r3, pc, lsr #6
 4ec:	2f653034 	svccs	0x00653034
 4f0:	34327363 	ldrtcc	r7, [r2], #-867	; 0xfffffc9d
 4f4:	2d786c30 	ldclcs	12, cr6, [r8, #-192]!	; 0xffffff40
 4f8:	70733232 	rsbsvc	r3, r3, r2, lsr r2
 4fc:	696c2f72 	stmdbvs	ip!, {r1, r4, r5, r6, r8, r9, sl, fp, sp}^
 500:	00697062 	rsbeq	r7, r9, r2, rrx
 504:	705f6176 	subsvc	r6, pc, r6, ror r1	; <UNPREDICTABLE>
 508:	746e6972 	strbtvc	r6, [lr], #-2418	; 0xfffff68e
 50c:	5f5f006b 	svcpl	0x005f006b
 510:	63756e67 	cmnvs	r5, #1648	; 0x670
 514:	5f61765f 	svcpl	0x0061765f
 518:	7473696c 	ldrbtvc	r6, [r3], #-2412	; 0xfffff694
 51c:	615f5f00 	cmpvs	pc, r0, lsl #30
 520:	2f2e0070 	svccs	0x002e0070
 524:	6362696c 	cmnvs	r2, #108, 18	; 0x1b0000
 528:	6972702f 	ldmdbvs	r2!, {r0, r1, r2, r3, r5, ip, sp, lr}^
 52c:	2e6b746e 	cdpcs	4, 6, cr7, cr11, cr14, {3}
 530:	5f5f0063 	svcpl	0x005f0063
 534:	6c5f6176 	ldfvse	f6, [pc], {118}	; 0x76
 538:	00747369 	rsbseq	r7, r4, r9, ror #6
 53c:	65746e69 	ldrbvs	r6, [r4, #-3689]!	; 0xfffff197
 540:	6c616e72 	stclvs	14, cr6, [r1], #-456	; 0xfffffe38
 544:	7475705f 	ldrbtvc	r7, [r5], #-95	; 0xffffffa1
 548:	72616863 	rsbvc	r6, r1, #6488064	; 0x630000
 54c:	69707200 	ldmdbvs	r0!, {r9, ip, sp, lr}^
 550:	7465735f 	strbtvc	r7, [r5], #-863	; 0xfffffca1
 554:	7475705f 	ldrbtvc	r7, [r5], #-95	; 0xffffffa1
 558:	2f2e0063 	svccs	0x002e0063
 55c:	6362696c 	cmnvs	r2, #108, 18	; 0x1b0000
 560:	7475702f 	ldrbtvc	r7, [r5], #-47	; 0xffffffd1
 564:	72616863 	rsbvc	r6, r1, #6488064	; 0x630000
 568:	7500632e 	strvc	r6, [r0, #-814]	; 0xfffffcd2
 56c:	5f747261 	svcpl	0x00747261
 570:	63747570 	cmnvs	r4, #112, 10	; 0x1c000000
 574:	746e6900 	strbtvc	r6, [lr], #-2304	; 0xfffff700
 578:	616e7265 	cmnvs	lr, r5, ror #4
 57c:	75705f6c 	ldrbvc	r5, [r0, #-3948]!	; 0xfffff094
 580:	2e006b74 	vmovcs.16	d0[1], r6
 584:	62696c2f 	rsbvs	r6, r9, #12032	; 0x2f00
 588:	75702f63 	ldrbvc	r2, [r0, #-3939]!	; 0xfffff09d
 58c:	632e6b74 			; <UNDEFINED> instruction: 0x632e6b74
 590:	64736900 	ldrbtvs	r6, [r3], #-2304	; 0xfffff700
 594:	74696769 	strbtvc	r6, [r9], #-1897	; 0xfffff897
 598:	6e697500 	cdpvs	5, 6, cr7, cr9, cr0, {0}
 59c:	5f343674 	svcpl	0x00343674
 5a0:	2f2e0074 	svccs	0x002e0074
 5a4:	6362696c 	cmnvs	r2, #108, 18	; 0x1b0000
 5a8:	2d61762f 	stclcs	6, cr7, [r1, #-188]!	; 0xffffff44
 5ac:	6e697270 	mcrvs	2, 3, r7, cr9, cr0, {3}
 5b0:	632e6b74 			; <UNDEFINED> instruction: 0x632e6b74
 5b4:	635f5f00 	cmpvs	pc, #0, 30
 5b8:	5f65646f 	svcpl	0x0065646f
 5bc:	72617473 	rsbvc	r7, r1, #1929379840	; 0x73000000
 5c0:	005f5f74 	subseq	r5, pc, r4, ror pc	; <UNPREDICTABLE>
 5c4:	73625f5f 	cmnvc	r2, #380	; 0x17c
 5c8:	74735f73 	ldrbtvc	r5, [r3], #-3955	; 0xfffff08d
 5cc:	5f747261 	svcpl	0x00747261
 5d0:	6977005f 	ldmdbvs	r7!, {r0, r1, r2, r3, r4, r6}^
 5d4:	00687464 	rsbeq	r7, r8, r4, ror #8
 5d8:	61645f5f 	cmnvs	r4, pc, asr pc
 5dc:	655f6174 	ldrbvs	r6, [pc, #-372]	; 470 <__code_start__-0x7b90>
 5e0:	5f5f646e 	svcpl	0x005f646e
 5e4:	74757000 	ldrbtvc	r7, [r5], #-0
 5e8:	70665f63 	rsbvc	r5, r6, r3, ror #30
 5ec:	625f5f00 	subsvs	r5, pc, #0, 30
 5f0:	655f7373 	ldrbvs	r7, [pc, #-883]	; 285 <__code_start__-0x7d7b>
 5f4:	5f5f646e 	svcpl	0x005f646e
 5f8:	685f5f00 	ldmdavs	pc, {r8, r9, sl, fp, ip, lr}^	; <UNPREDICTABLE>
 5fc:	5f706165 	svcpl	0x00706165
 600:	72617473 	rsbvc	r7, r1, #1929379840	; 0x73000000
 604:	005f5f74 	subseq	r5, pc, r4, ror pc	; <UNPREDICTABLE>
 608:	5f697072 	svcpl	0x00697072
 60c:	5f746573 	svcpl	0x00746573
 610:	7074756f 	rsbsvc	r7, r4, pc, ror #10
 614:	66007475 			; <UNDEFINED> instruction: 0x66007475
 618:	735f746d 	cmpvc	pc, #1828716544	; 0x6d000000
 61c:	74726174 	ldrbtvc	r6, [r2], #-372	; 0xfffffe8c
 620:	72747300 	rsbsvc	r7, r4, #0, 6
 624:	00797063 	rsbseq	r7, r9, r3, rrx
 628:	5f67656e 	svcpl	0x0067656e
 62c:	5f5f0070 	svcpl	0x005f0070
 630:	65646f63 	strbvs	r6, [r4, #-3939]!	; 0xfffff09d
 634:	646e655f 	strbtvs	r6, [lr], #-1375	; 0xfffffaa1
 638:	65005f5f 	strvs	r5, [r0, #-3935]	; 0xfffff0a1
 63c:	0074696d 	rsbseq	r6, r4, sp, ror #18
 640:	73747570 	cmnvc	r4, #112, 10	; 0x1c000000
 644:	0070665f 	rsbseq	r6, r0, pc, asr r6
 648:	65766572 	ldrbvs	r6, [r6, #-1394]!	; 0xfffffa8e
 64c:	00657372 	rsbeq	r7, r5, r2, ror r3
 650:	63727473 	cmnvs	r2, #1929379840	; 0x73000000
 654:	73007461 	movwvc	r7, #1121	; 0x461
 658:	6d637274 	sfmvs	f7, 2, [r3, #-464]!	; 0xfffffe30
 65c:	5f5f0070 	svcpl	0x005f0070
 660:	61746164 	cmnvs	r4, r4, ror #2
 664:	6174735f 	cmnvs	r4, pc, asr r3
 668:	5f5f7472 	svcpl	0x005f7472
 66c:	705f5f00 	subsvc	r5, pc, r0, lsl #30
 670:	5f676f72 	svcpl	0x00676f72
 674:	5f646e65 	svcpl	0x00646e65
 678:	756e005f 	strbvc	r0, [lr, #-95]!	; 0xffffffa1
 67c:	7300316d 	movwvc	r3, #365	; 0x16d
 680:	636e7274 	cmnvs	lr, #116, 4	; 0x40000007
 684:	6200706d 	andvs	r7, r0, #109, 0	; 0x6d
 688:	00657361 	rsbeq	r7, r5, r1, ror #6
 68c:	6e676973 			; <UNDEFINED> instruction: 0x6e676973
 690:	705f6465 	subsvc	r6, pc, r5, ror #8
 694:	69707200 	ldmdbvs	r0!, {r9, ip, sp, lr}^
 698:	6265725f 	rsbvs	r7, r5, #-268435451	; 0xf0000005
 69c:	00746f6f 	rsbseq	r6, r4, pc, ror #30
 6a0:	616c6564 	cmnvs	ip, r4, ror #10
 6a4:	736d5f79 	cmnvc	sp, #484	; 0x1e4
 6a8:	732f2e00 			; <UNDEFINED> instruction: 0x732f2e00
 6ac:	66666174 			; <UNDEFINED> instruction: 0x66666174
 6b0:	6372732d 	cmnvs	r2, #-1275068416	; 0xb4000000
 6b4:	656c632f 	strbvs	r6, [ip, #-815]!	; 0xfffffcd1
 6b8:	722d6e61 	eorvc	r6, sp, #1552	; 0x610
 6bc:	6f6f6265 	svcvs	0x006f6265
 6c0:	00632e74 	rsbeq	r2, r3, r4, ror lr
 6c4:	74726175 	ldrbtvc	r6, [r2], #-373	; 0xfffffe8b
 6c8:	756c665f 	strbvc	r6, [ip, #-1631]!	; 0xfffff9a1
 6cc:	745f6873 	ldrbvc	r6, [pc], #-2163	; 6d4 <__code_start__-0x792c>
 6d0:	635f0078 	cmpvs	pc, #120, 0	; 0x78
 6d4:	72617473 	rsbvc	r7, r1, #1929379840	; 0x73000000
 6d8:	73620074 	cmnvc	r2, #116, 0	; 0x74
 6dc:	6e655f73 	mcrvs	15, 3, r5, cr5, cr3, {3}
 6e0:	61750064 	cmnvs	r5, r4, rrx
 6e4:	695f7472 	ldmdbvs	pc, {r1, r4, r5, r6, sl, ip, sp, lr}^	; <UNPREDICTABLE>
 6e8:	0074696e 	rsbseq	r6, r4, lr, ror #18
 6ec:	74737563 	ldrbtvc	r7, [r3], #-1379	; 0xfffffa9d
 6f0:	6c5f6d6f 	mrrcvs	13, 6, r6, pc, cr15	; <UNPREDICTABLE>
 6f4:	6564616f 	strbvs	r6, [r4, #-367]!	; 0xfffffe91
 6f8:	2f2e0072 	svccs	0x002e0072
 6fc:	66617473 			; <UNDEFINED> instruction: 0x66617473
 700:	72732d66 	rsbsvc	r2, r3, #6528	; 0x1980
 704:	73632f63 	cmnvc	r3, #396	; 0x18c
 708:	74726174 	ldrbtvc	r6, [r2], #-372	; 0xfffffe8c
 70c:	2e00632e 	cdpcs	3, 0, cr6, cr0, cr14, {1}
 710:	6174732f 	cmnvs	r4, pc, lsr #6
 714:	732d6666 			; <UNDEFINED> instruction: 0x732d6666
 718:	632f6372 			; <UNDEFINED> instruction: 0x632f6372
 71c:	6f747375 	svcvs	0x00747375
 720:	6f6c2d6d 	svcvs	0x006c2d6d
 724:	72656461 	rsbvc	r6, r5, #1627389952	; 0x61000000
 728:	7200632e 	andvc	r6, r0, #-1207959552	; 0xb8000000
 72c:	6f6f6265 	svcvs	0x006f6265
 730:	61635f74 	smcvs	13812	; 0x35f4
 734:	756f6c6c 	strbvc	r6, [pc, #-3180]!	; fffffad0 <__bss_end__+0xffff6220>
 738:	4d500074 	ldclmi	0, cr0, [r0, #-464]	; 0xfffffe30
 73c:	4f44575f 	svcmi	0x0044575f
 740:	55500047 	ldrbpl	r0, [r0, #-71]	; 0xffffffb9
 744:	00323354 	eorseq	r3, r2, r4, asr r3
 748:	5f746573 	svcpl	0x00746573
 74c:	72657375 	rsbvc	r7, r5, #-738197503	; 0xd4000001
 750:	76656c5f 			; <UNDEFINED> instruction: 0x76656c5f
 754:	2e006c65 	cdpcs	12, 0, cr6, cr0, cr5, {3}
 758:	6174732f 	cmnvs	r4, pc, lsr #6
 75c:	732d6666 			; <UNDEFINED> instruction: 0x732d6666
 760:	722f6372 	eorvc	r6, pc, #-939524095	; 0xc8000001
 764:	6f6f6265 	svcvs	0x006f6265
 768:	00632e74 	rsbeq	r2, r3, r4, ror lr
 76c:	505f4d50 	subspl	r4, pc, r0, asr sp	; <UNPREDICTABLE>
 770:	57535341 	ldrbpl	r5, [r3, -r1, asr #6]
 774:	0044524f 	subeq	r5, r4, pc, asr #4
 778:	755f7461 	ldrbvc	r7, [pc, #-1121]	; 31f <__code_start__-0x7ce1>
 77c:	5f726573 	svcpl	0x00726573
 780:	6576656c 	ldrbvs	r6, [r6, #-1388]!	; 0xfffffa94
 784:	4d50006c 	ldclmi	0, cr0, [r0, #-432]	; 0xfffffe50
 788:	5453525f 	ldrbpl	r5, [r3], #-607	; 0xfffffda1
 78c:	52575f43 	subspl	r5, r7, #268	; 0x10c
 790:	5f474643 	svcpl	0x00474643
 794:	4c4c5546 	cfstr64mi	mvdx5, [ip], {70}	; 0x46
 798:	5345525f 	movtpl	r5, #21087	; 0x525f
 79c:	50005445 	andpl	r5, r0, r5, asr #8
 7a0:	53525f4d 	cmppl	r2, #308	; 0x134
 7a4:	63004354 	movwvs	r4, #852	; 0x354
 7a8:	00727370 	rsbseq	r7, r2, r0, ror r3
 7ac:	5f766564 	svcpl	0x00766564
 7b0:	72726162 	rsbsvc	r6, r2, #-2147483624	; 0x80000018
 7b4:	00726569 	rsbseq	r6, r2, r9, ror #10
 7b8:	616c6564 	cmnvs	ip, r4, ror #10
 7bc:	65735f79 	ldrbvs	r5, [r3, #-3961]!	; 0xfffff087
 7c0:	2f2e0063 	svccs	0x002e0063
 7c4:	66617473 			; <UNDEFINED> instruction: 0x66617473
 7c8:	72732d66 	rsbsvc	r2, r3, #6528	; 0x1980
 7cc:	69742f63 	ldmdbvs	r4!, {r0, r1, r5, r6, r8, r9, sl, fp, sp}^
 7d0:	2e72656d 	cdpcs	5, 7, cr6, cr2, cr13, {3}
 7d4:	45470063 	strbmi	r0, [r7, #-99]	; 0xffffff9d
 7d8:	00323354 	eorseq	r3, r2, r4, asr r3
 7dc:	656d6974 	strbvs	r6, [sp, #-2420]!	; 0xfffff68c
 7e0:	65675f72 	strbvs	r5, [r7, #-3954]!	; 0xfffff08e
 7e4:	73755f74 	cmnvc	r5, #116, 30	; 0x1d0
 7e8:	64006365 	strvs	r6, [r0], #-869	; 0xfffffc9b
 7ec:	79616c65 	stmdbvc	r1!, {r0, r2, r5, r6, sl, fp, sp, lr}^
 7f0:	0073755f 	rsbseq	r7, r3, pc, asr r5
 7f4:	656d6974 	strbvs	r6, [sp, #-2420]!	; 0xfffff68c
 7f8:	65675f72 	strbvs	r5, [r7, #-3954]!	; 0xfffff08e
 7fc:	73755f74 	cmnvc	r5, #116, 30	; 0x1d0
 800:	725f6365 	subsvc	r6, pc, #-1811939327	; 0x94000001
 804:	70007761 	andvc	r7, r0, r1, ror #14
 808:	32337475 	eorscc	r7, r3, #1962934272	; 0x75000000
 80c:	75616200 	strbvc	r6, [r1, #-512]!	; 0xfffffe00
 810:	61765f64 	cmnvs	r6, r4, ror #30
 814:	7473006c 	ldrbtvc	r0, [r3], #-108	; 0xffffff94
 818:	75007461 	strvc	r7, [r0, #-1121]	; 0xfffffb9f
 81c:	5f747261 	svcpl	0x00747261
 820:	5f6e6163 	svcpl	0x006e6163
 824:	63746567 	cmnvs	r4, #432013312	; 0x19c00000
 828:	49504700 	ldmdbmi	r0, {r8, r9, sl, lr}^
 82c:	55465f4f 	strbpl	r5, [r6, #-3919]	; 0xfffff0b1
 830:	4f5f434e 	svcmi	0x005f434e
 834:	55505455 	ldrbpl	r5, [r0, #-1109]	; 0xfffffbab
 838:	75610054 	strbvc	r0, [r1, #-84]!	; 0xffffffac
 83c:	65705f78 	ldrbvs	r5, [r0, #-3960]!	; 0xfffff088
 840:	68706972 	ldmdavs	r0!, {r1, r4, r5, r6, r8, fp, sp, lr}^
 844:	61750073 	cmnvs	r5, r3, ror r0
 848:	632e7472 			; <UNDEFINED> instruction: 0x632e7472
 84c:	72617500 	rsbvc	r7, r1, #0, 10
 850:	61635f74 	smcvs	13812	; 0x35f4
 854:	75705f6e 	ldrbvc	r5, [r0, #-3950]!	; 0xfffff092
 858:	61006374 	tstvs	r0, r4, ror r3
 85c:	00726464 	rsbseq	r6, r2, r4, ror #8
 860:	74726175 	ldrbtvc	r6, [r2], #-373	; 0xfffffe8b
 864:	5f78745f 	svcpl	0x0078745f
 868:	655f7369 	ldrbvs	r7, [pc, #-873]	; 507 <__code_start__-0x7af9>
 86c:	7974706d 	ldmdbvc	r4!, {r0, r2, r3, r5, r6, ip, sp, lr}^
 870:	49504700 	ldmdbmi	r0, {r8, r9, sl, lr}^
 874:	55465f4f 	strbpl	r5, [r6, #-3919]	; 0xfffff0b1
 878:	415f434e 	cmpmi	pc, lr, asr #6
 87c:	0030544c 	eorseq	r5, r0, ip, asr #8
 880:	4f495047 	svcmi	0x00495047
 884:	4e55465f 	mrcmi	6, 2, r4, cr5, cr15, {2}
 888:	4c415f43 	mcrrmi	15, 4, r5, r1, cr3
 88c:	47003154 	smlsdmi	r0, r4, r1, r3
 890:	5f4f4950 	svcpl	0x004f4950
 894:	434e5546 	movtmi	r5, #58694	; 0xe546
 898:	544c415f 	strbpl	r4, [ip], #-351	; 0xfffffea1
 89c:	50470032 	subpl	r0, r7, r2, lsr r0
 8a0:	465f4f49 	ldrbmi	r4, [pc], -r9, asr #30
 8a4:	5f434e55 	svcpl	0x00434e55
 8a8:	33544c41 	cmpcc	r4, #16640	; 0x4100
 8ac:	49504700 	ldmdbmi	r0, {r8, r9, sl, lr}^
 8b0:	55465f4f 	strbpl	r5, [r6, #-3919]	; 0xfffff0b1
 8b4:	415f434e 	cmpmi	pc, lr, asr #6
 8b8:	0035544c 	eorseq	r5, r5, ip, asr #8
 8bc:	6d6f682f 	stclvs	8, cr6, [pc, #-188]!	; 808 <__code_start__-0x77f8>
 8c0:	6e652f65 	cdpvs	15, 6, cr2, cr5, cr5, {3}
 8c4:	72656c67 	rsbvc	r6, r5, #26368	; 0x6700
 8c8:	616c632f 	cmnvs	ip, pc, lsr #6
 8cc:	632f7373 			; <UNDEFINED> instruction: 0x632f7373
 8d0:	30343273 	eorscc	r3, r4, r3, ror r2
 8d4:	322d786c 	eorcc	r7, sp, #108, 16	; 0x6c0000
 8d8:	72707332 	rsbsvc	r7, r0, #-939524096	; 0xc8000000
 8dc:	62696c2f 	rsbvs	r6, r9, #12032	; 0x2f00
 8e0:	732f6970 			; <UNDEFINED> instruction: 0x732f6970
 8e4:	66666174 			; <UNDEFINED> instruction: 0x66666174
 8e8:	6972702d 	ldmdbvs	r2!, {r0, r2, r3, r5, ip, sp, lr}^
 8ec:	65746176 	ldrbvs	r6, [r4, #-374]!	; 0xfffffe8a
 8f0:	75616200 	strbvc	r6, [r1, #-512]!	; 0xfffffe00
 8f4:	75610064 	strbvc	r0, [r1, #-100]!	; 0xffffff9c
 8f8:	6e655f78 	mcrvs	15, 3, r5, cr5, cr8, {3}
 8fc:	656c6261 	strbvs	r6, [ip, #-609]!	; 0xfffffd9f
 900:	61750073 	cmnvs	r5, r3, ror r0
 904:	675f7472 			; <UNDEFINED> instruction: 0x675f7472
 908:	00637465 	rsbeq	r7, r3, r5, ror #8
 90c:	20554e47 	subscs	r4, r5, r7, asr #28
 910:	20393943 	eorscs	r3, r9, r3, asr #18
 914:	332e3031 			; <UNDEFINED> instruction: 0x332e3031
 918:	3220312e 	eorcc	r3, r0, #-2147483637	; 0x8000000b
 91c:	30313230 	eorscc	r3, r1, r0, lsr r2
 920:	20343238 	eorscs	r3, r4, r8, lsr r2
 924:	6c657228 	sfmvs	f7, 2, [r5], #-160	; 0xffffff60
 928:	65736165 	ldrbvs	r6, [r3, #-357]!	; 0xfffffe9b
 92c:	6d2d2029 	stcvs	0, cr2, [sp, #-164]!	; 0xffffff5c
 930:	3d757063 	ldclcc	0, cr7, [r5, #-396]!	; 0xfffffe74
 934:	316d7261 	cmncc	sp, r1, ror #4
 938:	6a363731 	bvs	d8e604 <__bss_end__+0xd84d54>
 93c:	732d667a 			; <UNDEFINED> instruction: 0x732d667a
 940:	746d2d20 	strbtvc	r2, [sp], #-3360	; 0xfffff2e0
 944:	3d656e75 	stclcc	14, cr6, [r5, #-468]!	; 0xfffffe2c
 948:	316d7261 	cmncc	sp, r1, ror #4
 94c:	6a363731 	bvs	d8e618 <__bss_end__+0xd84d68>
 950:	732d667a 			; <UNDEFINED> instruction: 0x732d667a
 954:	666d2d20 	strbtvs	r2, [sp], -r0, lsr #26
 958:	74616f6c 	strbtvc	r6, [r1], #-3948	; 0xfffff094
 95c:	6962612d 	stmdbvs	r2!, {r0, r2, r3, r5, r8, sp, lr}^
 960:	666f733d 			; <UNDEFINED> instruction: 0x666f733d
 964:	6d2d2074 	stcvs	0, cr2, [sp, #-464]!	; 0xfffffe30
 968:	206d7261 	rsbcs	r7, sp, r1, ror #4
 96c:	72616d2d 	rsbvc	r6, r1, #2880	; 0xb40
 970:	613d6863 	teqvs	sp, r3, ror #16
 974:	36766d72 			; <UNDEFINED> instruction: 0x36766d72
 978:	2d207a6b 	vstmdbcs	r0!, {s14-s120}
 97c:	62646767 	rsbvs	r6, r4, #27000832	; 0x19c0000
 980:	674f2d20 	strbvs	r2, [pc, -r0, lsr #26]
 984:	74732d20 	ldrbtvc	r2, [r3], #-3360	; 0xfffff2e0
 988:	6e673d64 	cdpvs	13, 6, cr3, cr7, cr4, {3}
 98c:	20393975 	eorscs	r3, r9, r5, ror r9
 990:	7266662d 	rsbvc	r6, r6, #47185920	; 0x2d00000
 994:	74736565 	ldrbtvc	r6, [r3], #-1381	; 0xfffffa9b
 998:	69646e61 	stmdbvs	r4!, {r0, r5, r6, r9, sl, fp, sp, lr}^
 99c:	6300676e 	movwvs	r6, #1902	; 0x76e
 9a0:	006c746e 	rsbeq	r7, ip, lr, ror #8
 9a4:	74726175 	ldrbtvc	r6, [r2], #-373	; 0xfffffe8b
 9a8:	7369645f 	cmnvc	r9, #1593835520	; 0x5f000000
 9ac:	656c6261 	strbvs	r6, [ip, #-609]!	; 0xfffffd9f
 9b0:	72617500 	rsbvc	r7, r1, #0, 10
 9b4:	61685f74 	smcvs	34292	; 0x85f4
 9b8:	61645f73 	smcvs	17907	; 0x45f3
 9bc:	47006174 	smlsdxmi	r0, r4, r1, r6
 9c0:	5f4f4950 	svcpl	0x004f4950
 9c4:	434e5546 	movtmi	r5, #58694	; 0xe546
 9c8:	544c415f 	strbpl	r4, [ip], #-351	; 0xfffffea1
 9cc:	726f0034 	rsbvc	r0, pc, #52, 0	; 0x34
 9d0:	336e695f 	cmncc	lr, #1556480	; 0x17c000
 9d4:	63730032 	cmnvs	r3, #50, 0	; 0x32
 9d8:	63746172 	cmnvs	r4, #-2147483620	; 0x8000001c
 9dc:	61750068 	cmnvs	r5, r8, rrx
 9e0:	61007472 	tstvs	r0, r2, ror r4
 9e4:	695f646e 	ldmdbvs	pc, {r1, r2, r3, r5, r6, sl, sp, lr}^	; <UNPREDICTABLE>
 9e8:	0032336e 	eorseq	r3, r2, lr, ror #6
 9ec:	4f495047 	svcmi	0x00495047
 9f0:	4e55465f 	mrcmi	6, 2, r4, cr5, cr15, {2}
 9f4:	4e495f43 	cdpmi	15, 4, cr5, cr9, cr3, {2}
 9f8:	00545550 	subseq	r5, r4, r0, asr r5
 9fc:	6f697067 	svcvs	0x00697067
 a00:	7465735f 	strbtvc	r7, [r5], #-863	; 0xfffffca1
 a04:	6e75665f 	mrcvs	6, 3, r6, cr5, cr15, {2}
 a08:	6f697463 	svcvs	0x00697463
 a0c:	6567006e 	strbvs	r0, [r7, #-110]!	; 0xffffff92
 a10:	00323374 	eorseq	r3, r2, r4, ror r3
 a14:	74736564 	ldrbtvc	r6, [r3], #-1380	; 0xfffffa9c
 a18:	6c2f2e00 	stcvs	14, cr2, [pc], #-0	; a20 <__code_start__-0x75e0>
 a1c:	2f636269 	svccs	0x00636269
 a20:	63727473 	cmnvs	r2, #1929379840	; 0x73000000
 a24:	632e7461 			; <UNDEFINED> instruction: 0x632e7461
 a28:	6c2f2e00 	stcvs	14, cr2, [pc], #-0	; a30 <__code_start__-0x75d0>
 a2c:	2f636269 	svccs	0x00636269
 a30:	63727473 	cmnvs	r2, #1929379840	; 0x73000000
 a34:	632e706d 			; <UNDEFINED> instruction: 0x632e706d
 a38:	6c2f2e00 	stcvs	14, cr2, [pc], #-0	; a40 <__code_start__-0x75c0>
 a3c:	2f636269 	svccs	0x00636269
 a40:	63727473 	cmnvs	r2, #1929379840	; 0x73000000
 a44:	632e7970 			; <UNDEFINED> instruction: 0x632e7970
 a48:	7a697300 	bvc	1a5d650 <__bss_end__+0x1a53da0>
 a4c:	00745f65 	rsbseq	r5, r4, r5, ror #30
 a50:	696c2f2e 	stmdbvs	ip!, {r1, r2, r3, r5, r8, r9, sl, fp, sp}^
 a54:	732f6362 			; <UNDEFINED> instruction: 0x732f6362
 a58:	636e7274 	cmnvs	lr, #116, 4	; 0x40000007
 a5c:	632e706d 			; <UNDEFINED> instruction: 0x632e706d
 a60:	732f2e00 			; <UNDEFINED> instruction: 0x732f2e00
 a64:	66666174 			; <UNDEFINED> instruction: 0x66666174
 a68:	6372732d 	cmnvs	r2, #-1275068416	; 0xb4000000
 a6c:	6665642f 	strbtvs	r6, [r5], -pc, lsr #8
 a70:	746c7561 	strbtvc	r7, [ip], #-1377	; 0xfffffa9f
 a74:	6265722d 	rsbvs	r7, r5, #-805306366	; 0xd0000002
 a78:	2d746f6f 	ldclcs	15, cr6, [r4, #-444]!	; 0xfffffe44
 a7c:	6c6c6163 	stfvse	f6, [ip], #-396	; 0xfffffe74
 a80:	2e74756f 	cdpcs	5, 7, cr7, cr4, cr15, {3}
 a84:	70670063 	rsbvc	r0, r7, r3, rrx
 a88:	635f6f69 	cmpvs	pc, #420	; 0x1a4
 a8c:	0030726c 	eorseq	r7, r0, ip, ror #4
 a90:	6f697067 	svcvs	0x00697067
 a94:	7465735f 	strbtvc	r7, [r5], #-863	; 0xfffffca1
 a98:	70670030 	rsbvc	r0, r7, r0, lsr r0
 a9c:	775f6f69 	ldrbvc	r6, [pc, -r9, ror #30]
 aa0:	65746972 	ldrbvs	r6, [r4, #-2418]!	; 0xfffff68e
 aa4:	56454400 	strbpl	r4, [r5], -r0, lsl #8
 aa8:	4c41565f 	mcrrmi	6, 5, r5, r1, cr15
 aac:	67003233 	smladxvs	r0, r3, r2, r3
 ab0:	5f6f6970 	svcpl	0x006f6970
 ab4:	64616572 	strbtvs	r6, [r1], #-1394	; 0xfffffa8e
 ab8:	69706700 	ldmdbvs	r0!, {r8, r9, sl, sp, lr}^
 abc:	65735f6f 	ldrbvs	r5, [r3, #-3951]!	; 0xfffff091
 ac0:	6e695f74 	mcrvs	15, 3, r5, cr9, cr4, {3}
 ac4:	00747570 	rsbseq	r7, r4, r0, ror r5
 ac8:	6f697067 	svcvs	0x00697067
 acc:	7465735f 	strbtvc	r7, [r5], #-863	; 0xfffffca1
 ad0:	66666f5f 	uqsaxvs	r6, r6, pc	; <UNPREDICTABLE>
 ad4:	69706700 	ldmdbvs	r0!, {r8, r9, sl, sp, lr}^
 ad8:	65735f6f 	ldrbvs	r5, [r3, #-3951]!	; 0xfffff091
 adc:	756f5f74 	strbvc	r5, [pc, #-3956]!	; fffffb70 <__bss_end__+0xffff62c0>
 ae0:	74757074 	ldrbtvc	r7, [r5], #-116	; 0xffffff8c
 ae4:	6e756600 	cdpvs	6, 7, cr6, cr5, cr0, {0}
 ae8:	70670063 	rsbvc	r0, r7, r3, rrx
 aec:	665f6f69 	ldrbvs	r6, [pc], -r9, ror #30
 af0:	5f636e75 	svcpl	0x00636e75
 af4:	70670074 	rsbvc	r0, r7, r4, ror r0
 af8:	6c5f6f69 	mrrcvs	15, 6, r6, pc, cr9	; <UNPREDICTABLE>
 afc:	00307665 	eorseq	r7, r0, r5, ror #12
 b00:	6b6e6162 	blvs	1b99090 <__bss_end__+0x1b8f7e0>
 b04:	69706700 	ldmdbvs	r0!, {r8, r9, sl, sp, lr}^
 b08:	00632e6f 	rsbeq	r2, r3, pc, ror #28
 b0c:	6f697067 	svcvs	0x00697067
 b10:	7465735f 	strbtvc	r7, [r5], #-863	; 0xfffffca1
 b14:	006e6f5f 	rsbeq	r6, lr, pc, asr pc

Disassembly of section .debug_frame:

00000000 <.debug_frame>:
   0:	0000000c 	andeq	r0, r0, ip
   4:	ffffffff 			; <UNDEFINED> instruction: 0xffffffff
   8:	7c020001 	stcvc	0, cr0, [r2], {1}
   c:	000d0c0e 	andeq	r0, sp, lr, lsl #24
  10:	0000000c 	andeq	r0, r0, ip
  14:	00000000 	andeq	r0, r0, r0
  18:	00008038 	andeq	r8, r0, r8, lsr r0
  1c:	00000018 	andeq	r0, r0, r8, lsl r0
  20:	0000000c 	andeq	r0, r0, ip
  24:	00000000 	andeq	r0, r0, r0
  28:	00008050 	andeq	r8, r0, r0, asr r0
  2c:	00000018 	andeq	r0, r0, r8, lsl r0
  30:	0000000c 	andeq	r0, r0, ip
  34:	00000000 	andeq	r0, r0, r0
  38:	00008068 	andeq	r8, r0, r8, rrx
  3c:	00000018 	andeq	r0, r0, r8, lsl r0
  40:	0000000c 	andeq	r0, r0, ip
  44:	00000000 	andeq	r0, r0, r0
  48:	00008080 	andeq	r8, r0, r0, lsl #1
  4c:	00000018 	andeq	r0, r0, r8, lsl r0
  50:	0000000c 	andeq	r0, r0, ip
  54:	00000000 	andeq	r0, r0, r0
  58:	00008098 	muleq	r0, r8, r0
  5c:	00000018 	andeq	r0, r0, r8, lsl r0
  60:	0000000c 	andeq	r0, r0, ip
  64:	00000000 	andeq	r0, r0, r0
  68:	000080b0 	strheq	r8, [r0], -r0
  6c:	00000018 	andeq	r0, r0, r8, lsl r0
  70:	0000000c 	andeq	r0, r0, ip
  74:	00000000 	andeq	r0, r0, r0
  78:	000080c8 	andeq	r8, r0, r8, asr #1
  7c:	00000018 	andeq	r0, r0, r8, lsl r0
  80:	0000000c 	andeq	r0, r0, ip
  84:	00000000 	andeq	r0, r0, r0
  88:	000080e0 	andeq	r8, r0, r0, ror #1
  8c:	00000018 	andeq	r0, r0, r8, lsl r0
  90:	00000018 	andeq	r0, r0, r8, lsl r0
  94:	00000000 	andeq	r0, r0, r0
  98:	000080f8 	strdeq	r8, [r0], -r8	; <UNPREDICTABLE>
  9c:	000000b0 	strheq	r0, [r0], -r0	; <UNPREDICTABLE>
  a0:	840c0e42 	strhi	r0, [ip], #-3650	; 0xfffff1be
  a4:	8e028503 	cfsh32hi	mvfx8, mvfx2, #3
  a8:	00000001 	andeq	r0, r0, r1
  ac:	00000018 	andeq	r0, r0, r8, lsl r0
  b0:	00000000 	andeq	r0, r0, r0
  b4:	000081a8 	andeq	r8, r0, r8, lsr #3
  b8:	00000028 	andeq	r0, r0, r8, lsr #32
  bc:	84100e42 	ldrhi	r0, [r0], #-3650	; 0xfffff1be
  c0:	86038504 	strhi	r8, [r3], -r4, lsl #10
  c4:	00018e02 	andeq	r8, r1, r2, lsl #28
  c8:	00000014 	andeq	r0, r0, r4, lsl r0
  cc:	00000000 	andeq	r0, r0, r0
  d0:	000081d0 	ldrdeq	r8, [r0], -r0
  d4:	00000018 	andeq	r0, r0, r8, lsl r0
  d8:	84080e42 	strhi	r0, [r8], #-3650	; 0xfffff1be
  dc:	00018e02 	andeq	r8, r1, r2, lsl #28
  e0:	00000018 	andeq	r0, r0, r8, lsl r0
  e4:	00000000 	andeq	r0, r0, r0
  e8:	000081e8 	andeq	r8, r0, r8, ror #3
  ec:	000001d8 	ldrdeq	r0, [r0], -r8
  f0:	840c0e42 	strhi	r0, [ip], #-3650	; 0xfffff1be
  f4:	8e028503 	cfsh32hi	mvfx8, mvfx2, #3
  f8:	400e4201 	andmi	r4, lr, r1, lsl #4
  fc:	0000000c 	andeq	r0, r0, ip
 100:	ffffffff 			; <UNDEFINED> instruction: 0xffffffff
 104:	7c020001 	stcvc	0, cr0, [r2], {1}
 108:	000d0c0e 	andeq	r0, sp, lr, lsl #24
 10c:	00000034 	andeq	r0, r0, r4, lsr r0
 110:	000000fc 	strdeq	r0, [r0], -ip
 114:	000083c0 	andeq	r8, r0, r0, asr #7
 118:	00000058 	andeq	r0, r0, r8, asr r0
 11c:	80100e42 	andshi	r0, r0, r2, asr #28
 120:	82038104 	andhi	r8, r3, #1
 124:	42018302 	andmi	r8, r1, #134217728	; 0x8000000
 128:	07841c0e 	streq	r1, [r4, lr, lsl #24]
 12c:	058e0685 	streq	r0, [lr, #1669]	; 0x685
 130:	5c280e42 	stcpl	14, cr0, [r8], #-264	; 0xfffffef8
 134:	ce421c0e 	cdpgt	12, 4, cr1, cr2, cr14, {0}
 138:	100ec4c5 	andne	ip, lr, r5, asr #9
 13c:	c1c2c342 	bicgt	ip, r2, r2, asr #6
 140:	00000ec0 	andeq	r0, r0, r0, asr #29
 144:	0000000c 	andeq	r0, r0, ip
 148:	ffffffff 			; <UNDEFINED> instruction: 0xffffffff
 14c:	7c020001 	stcvc	0, cr0, [r2], {1}
 150:	000d0c0e 	andeq	r0, sp, lr, lsl #24
 154:	00000014 	andeq	r0, r0, r4, lsl r0
 158:	00000144 	andeq	r0, r0, r4, asr #2
 15c:	00008418 	andeq	r8, r0, r8, lsl r4
 160:	00000014 	andeq	r0, r0, r4, lsl r0
 164:	84080e42 	strhi	r0, [r8], #-3650	; 0xfffff1be
 168:	00018e02 	andeq	r8, r1, r2, lsl #28
 16c:	0000000c 	andeq	r0, r0, ip
 170:	00000144 	andeq	r0, r0, r4, asr #2
 174:	0000842c 	andeq	r8, r0, ip, lsr #8
 178:	00000018 	andeq	r0, r0, r8, lsl r0
 17c:	0000000c 	andeq	r0, r0, ip
 180:	00000144 	andeq	r0, r0, r4, asr #2
 184:	00008444 	andeq	r8, r0, r4, asr #8
 188:	00000010 	andeq	r0, r0, r0, lsl r0
 18c:	0000000c 	andeq	r0, r0, ip
 190:	ffffffff 			; <UNDEFINED> instruction: 0xffffffff
 194:	7c020001 	stcvc	0, cr0, [r2], {1}
 198:	000d0c0e 	andeq	r0, sp, lr, lsl #24
 19c:	00000014 	andeq	r0, r0, r4, lsl r0
 1a0:	0000018c 	andeq	r0, r0, ip, lsl #3
 1a4:	00008454 	andeq	r8, r0, r4, asr r4
 1a8:	00000034 	andeq	r0, r0, r4, lsr r0
 1ac:	84080e42 	strhi	r0, [r8], #-3650	; 0xfffff1be
 1b0:	00018e02 	andeq	r8, r1, r2, lsl #28
 1b4:	0000000c 	andeq	r0, r0, ip
 1b8:	ffffffff 			; <UNDEFINED> instruction: 0xffffffff
 1bc:	7c020001 	stcvc	0, cr0, [r2], {1}
 1c0:	000d0c0e 	andeq	r0, sp, lr, lsl #24
 1c4:	0000000c 	andeq	r0, r0, ip
 1c8:	000001b4 			; <UNDEFINED> instruction: 0x000001b4
 1cc:	00008488 	andeq	r8, r0, r8, lsl #9
 1d0:	00000014 	andeq	r0, r0, r4, lsl r0
 1d4:	0000000c 	andeq	r0, r0, ip
 1d8:	000001b4 			; <UNDEFINED> instruction: 0x000001b4
 1dc:	0000849c 	muleq	r0, ip, r4
 1e0:	00000024 	andeq	r0, r0, r4, lsr #32
 1e4:	0000000c 	andeq	r0, r0, ip
 1e8:	000001b4 			; <UNDEFINED> instruction: 0x000001b4
 1ec:	000084c0 	andeq	r8, r0, r0, asr #9
 1f0:	00000038 	andeq	r0, r0, r8, lsr r0
 1f4:	00000024 	andeq	r0, r0, r4, lsr #32
 1f8:	000001b4 			; <UNDEFINED> instruction: 0x000001b4
 1fc:	000084f8 	strdeq	r8, [r0], -r8	; <UNPREDICTABLE>
 200:	000001b4 			; <UNDEFINED> instruction: 0x000001b4
 204:	84140e42 	ldrhi	r0, [r4], #-3650	; 0xfffff1be
 208:	86048505 	strhi	r8, [r4], -r5, lsl #10
 20c:	8e028703 	cdphi	7, 0, cr8, cr2, cr3, {0}
 210:	600e4201 	andvs	r4, lr, r1, lsl #4
 214:	0e0a9a02 	vmlaeq.f32	s18, s20, s4
 218:	000b4214 	andeq	r4, fp, r4, lsl r2
 21c:	00000014 	andeq	r0, r0, r4, lsl r0
 220:	000001b4 			; <UNDEFINED> instruction: 0x000001b4
 224:	000086ac 	andeq	r8, r0, ip, lsr #13
 228:	00000064 	andeq	r0, r0, r4, rrx
 22c:	8e040e54 	mcrhi	14, 0, r0, cr4, cr4, {2}
 230:	100e4201 	andne	r4, lr, r1, lsl #4
 234:	0000002c 	andeq	r0, r0, ip, lsr #32
 238:	000001b4 			; <UNDEFINED> instruction: 0x000001b4
 23c:	00008710 	andeq	r8, r0, r0, lsl r7
 240:	000004b8 			; <UNDEFINED> instruction: 0x000004b8
 244:	84240e42 	strthi	r0, [r4], #-3650	; 0xfffff1be
 248:	86088509 	strhi	r8, [r8], -r9, lsl #10
 24c:	88068707 	stmdahi	r6, {r0, r1, r2, r8, r9, sl, pc}
 250:	8a048905 	bhi	12266c <__bss_end__+0x118dbc>
 254:	8e028b03 	vmlahi.f64	d8, d2, d3
 258:	b80e4201 	stmdalt	lr, {r0, r9, lr}
 25c:	02380302 	eorseq	r0, r8, #134217728	; 0x8000000
 260:	0000240e 	andeq	r2, r0, lr, lsl #8
 264:	0000000c 	andeq	r0, r0, ip
 268:	ffffffff 			; <UNDEFINED> instruction: 0xffffffff
 26c:	7c020001 	stcvc	0, cr0, [r2], {1}
 270:	000d0c0e 	andeq	r0, sp, lr, lsl #24
 274:	00000014 	andeq	r0, r0, r4, lsl r0
 278:	00000264 	andeq	r0, r0, r4, ror #4
 27c:	00008bc8 	andeq	r8, r0, r8, asr #23
 280:	0000002c 	andeq	r0, r0, ip, lsr #32
 284:	84080e42 	strhi	r0, [r8], #-3650	; 0xfffff1be
 288:	00018e02 	andeq	r8, r1, r2, lsl #28
 28c:	0000000c 	andeq	r0, r0, ip
 290:	ffffffff 			; <UNDEFINED> instruction: 0xffffffff
 294:	7c020001 	stcvc	0, cr0, [r2], {1}
 298:	000d0c0e 	andeq	r0, sp, lr, lsl #24
 29c:	00000014 	andeq	r0, r0, r4, lsl r0
 2a0:	0000028c 	andeq	r0, r0, ip, lsl #5
 2a4:	00008bf4 	strdeq	r8, [r0], -r4
 2a8:	0000003c 	andeq	r0, r0, ip, lsr r0
 2ac:	84080e42 	strhi	r0, [r8], #-3650	; 0xfffff1be
 2b0:	00018e02 	andeq	r8, r1, r2, lsl #28
 2b4:	0000000c 	andeq	r0, r0, ip
 2b8:	ffffffff 			; <UNDEFINED> instruction: 0xffffffff
 2bc:	7c020001 	stcvc	0, cr0, [r2], {1}
 2c0:	000d0c0e 	andeq	r0, sp, lr, lsl #24
 2c4:	0000000c 	andeq	r0, r0, ip
 2c8:	000002b4 			; <UNDEFINED> instruction: 0x000002b4
 2cc:	00008c30 	andeq	r8, r0, r0, lsr ip
 2d0:	00000004 	andeq	r0, r0, r4
 2d4:	0000000c 	andeq	r0, r0, ip
 2d8:	ffffffff 			; <UNDEFINED> instruction: 0xffffffff
 2dc:	7c020001 	stcvc	0, cr0, [r2], {1}
 2e0:	000d0c0e 	andeq	r0, sp, lr, lsl #24
 2e4:	0000000c 	andeq	r0, r0, ip
 2e8:	000002d4 	ldrdeq	r0, [r0], -r4
 2ec:	00008c34 	andeq	r8, r0, r4, lsr ip
 2f0:	00000018 	andeq	r0, r0, r8, lsl r0
 2f4:	0000000c 	andeq	r0, r0, ip
 2f8:	000002d4 	ldrdeq	r0, [r0], -r4
 2fc:	00008c4c 	andeq	r8, r0, ip, asr #24
 300:	00000014 	andeq	r0, r0, r4, lsl r0
 304:	00000014 	andeq	r0, r0, r4, lsl r0
 308:	000002d4 	ldrdeq	r0, [r0], -r4
 30c:	00008c60 	andeq	r8, r0, r0, ror #24
 310:	00000054 	andeq	r0, r0, r4, asr r0
 314:	84080e42 	strhi	r0, [r8], #-3650	; 0xfffff1be
 318:	00018e02 	andeq	r8, r1, r2, lsl #28
 31c:	0000000c 	andeq	r0, r0, ip
 320:	ffffffff 			; <UNDEFINED> instruction: 0xffffffff
 324:	7c020001 	stcvc	0, cr0, [r2], {1}
 328:	000d0c0e 	andeq	r0, sp, lr, lsl #24
 32c:	00000014 	andeq	r0, r0, r4, lsl r0
 330:	0000031c 	andeq	r0, r0, ip, lsl r3
 334:	00008cb4 			; <UNDEFINED> instruction: 0x00008cb4
 338:	00000014 	andeq	r0, r0, r4, lsl r0
 33c:	84080e42 	strhi	r0, [r8], #-3650	; 0xfffff1be
 340:	00018e02 	andeq	r8, r1, r2, lsl #28
 344:	00000014 	andeq	r0, r0, r4, lsl r0
 348:	0000031c 	andeq	r0, r0, ip, lsl r3
 34c:	00008cc8 	andeq	r8, r0, r8, asr #25
 350:	0000001c 	andeq	r0, r0, ip, lsl r0
 354:	84080e42 	strhi	r0, [r8], #-3650	; 0xfffff1be
 358:	00018e02 	andeq	r8, r1, r2, lsl #28
 35c:	00000018 	andeq	r0, r0, r8, lsl r0
 360:	0000031c 	andeq	r0, r0, ip, lsl r3
 364:	00008ce4 	andeq	r8, r0, r4, ror #25
 368:	00000024 	andeq	r0, r0, r4, lsr #32
 36c:	84100e42 	ldrhi	r0, [r0], #-3650	; 0xfffff1be
 370:	86038504 	strhi	r8, [r3], -r4, lsl #10
 374:	00018e02 	andeq	r8, r1, r2, lsl #28
 378:	00000014 	andeq	r0, r0, r4, lsl r0
 37c:	0000031c 	andeq	r0, r0, ip, lsl r3
 380:	00008d08 	andeq	r8, r0, r8, lsl #26
 384:	00000018 	andeq	r0, r0, r8, lsl r0
 388:	84080e42 	strhi	r0, [r8], #-3650	; 0xfffff1be
 38c:	00018e02 	andeq	r8, r1, r2, lsl #28
 390:	00000014 	andeq	r0, r0, r4, lsl r0
 394:	0000031c 	andeq	r0, r0, ip, lsl r3
 398:	00008d20 	andeq	r8, r0, r0, lsr #26
 39c:	00000018 	andeq	r0, r0, r8, lsl r0
 3a0:	84080e42 	strhi	r0, [r8], #-3650	; 0xfffff1be
 3a4:	00018e02 	andeq	r8, r1, r2, lsl #28
 3a8:	0000000c 	andeq	r0, r0, ip
 3ac:	ffffffff 			; <UNDEFINED> instruction: 0xffffffff
 3b0:	7c020001 	stcvc	0, cr0, [r2], {1}
 3b4:	000d0c0e 	andeq	r0, sp, lr, lsl #24
 3b8:	00000018 	andeq	r0, r0, r8, lsl r0
 3bc:	000003a8 	andeq	r0, r0, r8, lsr #7
 3c0:	00008d38 	andeq	r8, r0, r8, lsr sp
 3c4:	00000020 	andeq	r0, r0, r0, lsr #32
 3c8:	84100e42 	ldrhi	r0, [r0], #-3650	; 0xfffff1be
 3cc:	86038504 	strhi	r8, [r3], -r4, lsl #10
 3d0:	00018e02 	andeq	r8, r1, r2, lsl #28
 3d4:	00000018 	andeq	r0, r0, r8, lsl r0
 3d8:	000003a8 	andeq	r0, r0, r8, lsr #7
 3dc:	00008d58 	andeq	r8, r0, r8, asr sp
 3e0:	00000020 	andeq	r0, r0, r0, lsr #32
 3e4:	84100e42 	ldrhi	r0, [r0], #-3650	; 0xfffff1be
 3e8:	86038504 	strhi	r8, [r3], -r4, lsl #10
 3ec:	00018e02 	andeq	r8, r1, r2, lsl #28
 3f0:	00000014 	andeq	r0, r0, r4, lsl r0
 3f4:	000003a8 	andeq	r0, r0, r8, lsr #7
 3f8:	00008d78 	andeq	r8, r0, r8, ror sp
 3fc:	000000b0 	strheq	r0, [r0], -r0	; <UNPREDICTABLE>
 400:	84080e42 	strhi	r0, [r8], #-3650	; 0xfffff1be
 404:	00018e02 	andeq	r8, r1, r2, lsl #28
 408:	00000014 	andeq	r0, r0, r4, lsl r0
 40c:	000003a8 	andeq	r0, r0, r8, lsr #7
 410:	00008e28 	andeq	r8, r0, r8, lsr #28
 414:	00000018 	andeq	r0, r0, r8, lsl r0
 418:	84080e42 	strhi	r0, [r8], #-3650	; 0xfffff1be
 41c:	00018e02 	andeq	r8, r1, r2, lsl #28
 420:	00000014 	andeq	r0, r0, r4, lsl r0
 424:	000003a8 	andeq	r0, r0, r8, lsr #7
 428:	00008e40 	andeq	r8, r0, r0, asr #28
 42c:	00000020 	andeq	r0, r0, r0, lsr #32
 430:	84080e42 	strhi	r0, [r8], #-3650	; 0xfffff1be
 434:	00018e02 	andeq	r8, r1, r2, lsl #28
 438:	00000014 	andeq	r0, r0, r4, lsl r0
 43c:	000003a8 	andeq	r0, r0, r8, lsr #7
 440:	00008e60 	andeq	r8, r0, r0, ror #28
 444:	00000030 	andeq	r0, r0, r0, lsr r0
 448:	84080e42 	strhi	r0, [r8], #-3650	; 0xfffff1be
 44c:	00018e02 	andeq	r8, r1, r2, lsl #28
 450:	00000014 	andeq	r0, r0, r4, lsl r0
 454:	000003a8 	andeq	r0, r0, r8, lsr #7
 458:	00008e90 	muleq	r0, r0, lr
 45c:	00000030 	andeq	r0, r0, r0, lsr r0
 460:	84080e42 	strhi	r0, [r8], #-3650	; 0xfffff1be
 464:	00018e02 	andeq	r8, r1, r2, lsl #28
 468:	00000014 	andeq	r0, r0, r4, lsl r0
 46c:	000003a8 	andeq	r0, r0, r8, lsr #7
 470:	00008ec0 	andeq	r8, r0, r0, asr #29
 474:	00000010 	andeq	r0, r0, r0, lsl r0
 478:	84080e42 	strhi	r0, [r8], #-3650	; 0xfffff1be
 47c:	00018e02 	andeq	r8, r1, r2, lsl #28
 480:	00000014 	andeq	r0, r0, r4, lsl r0
 484:	000003a8 	andeq	r0, r0, r8, lsr #7
 488:	00008ed0 	ldrdeq	r8, [r0], -r0
 48c:	00000020 	andeq	r0, r0, r0, lsr #32
 490:	84080e42 	strhi	r0, [r8], #-3650	; 0xfffff1be
 494:	00018e02 	andeq	r8, r1, r2, lsl #28
 498:	00000014 	andeq	r0, r0, r4, lsl r0
 49c:	000003a8 	andeq	r0, r0, r8, lsr #7
 4a0:	00008ef0 	strdeq	r8, [r0], -r0
 4a4:	00000014 	andeq	r0, r0, r4, lsl r0
 4a8:	84080e42 	strhi	r0, [r8], #-3650	; 0xfffff1be
 4ac:	00018e02 	andeq	r8, r1, r2, lsl #28
 4b0:	00000014 	andeq	r0, r0, r4, lsl r0
 4b4:	000003a8 	andeq	r0, r0, r8, lsr #7
 4b8:	00008f04 	andeq	r8, r0, r4, lsl #30
 4bc:	00000024 	andeq	r0, r0, r4, lsr #32
 4c0:	84080e42 	strhi	r0, [r8], #-3650	; 0xfffff1be
 4c4:	00018e02 	andeq	r8, r1, r2, lsl #28
 4c8:	0000000c 	andeq	r0, r0, ip
 4cc:	ffffffff 			; <UNDEFINED> instruction: 0xffffffff
 4d0:	7c020001 	stcvc	0, cr0, [r2], {1}
 4d4:	000d0c0e 	andeq	r0, sp, lr, lsl #24
 4d8:	0000000c 	andeq	r0, r0, ip
 4dc:	000004c8 	andeq	r0, r0, r8, asr #9
 4e0:	00008f28 	andeq	r8, r0, r8, lsr #30
 4e4:	00000034 	andeq	r0, r0, r4, lsr r0
 4e8:	0000000c 	andeq	r0, r0, ip
 4ec:	ffffffff 			; <UNDEFINED> instruction: 0xffffffff
 4f0:	7c020001 	stcvc	0, cr0, [r2], {1}
 4f4:	000d0c0e 	andeq	r0, sp, lr, lsl #24
 4f8:	0000000c 	andeq	r0, r0, ip
 4fc:	000004e8 	andeq	r0, r0, r8, ror #9
 500:	00008f5c 	andeq	r8, r0, ip, asr pc
 504:	0000002c 	andeq	r0, r0, ip, lsr #32
 508:	0000000c 	andeq	r0, r0, ip
 50c:	ffffffff 			; <UNDEFINED> instruction: 0xffffffff
 510:	7c020001 	stcvc	0, cr0, [r2], {1}
 514:	000d0c0e 	andeq	r0, sp, lr, lsl #24
 518:	0000000c 	andeq	r0, r0, ip
 51c:	00000508 	andeq	r0, r0, r8, lsl #10
 520:	00008f88 	andeq	r8, r0, r8, lsl #31
 524:	00000020 	andeq	r0, r0, r0, lsr #32
 528:	0000000c 	andeq	r0, r0, ip
 52c:	ffffffff 			; <UNDEFINED> instruction: 0xffffffff
 530:	7c020001 	stcvc	0, cr0, [r2], {1}
 534:	000d0c0e 	andeq	r0, sp, lr, lsl #24
 538:	0000000c 	andeq	r0, r0, ip
 53c:	00000528 	andeq	r0, r0, r8, lsr #10
 540:	00008fa8 	andeq	r8, r0, r8, lsr #31
 544:	0000002c 	andeq	r0, r0, ip, lsr #32
 548:	0000000c 	andeq	r0, r0, ip
 54c:	ffffffff 			; <UNDEFINED> instruction: 0xffffffff
 550:	7c020001 	stcvc	0, cr0, [r2], {1}
 554:	000d0c0e 	andeq	r0, sp, lr, lsl #24
 558:	0000000c 	andeq	r0, r0, ip
 55c:	00000548 	andeq	r0, r0, r8, asr #10
 560:	00008fd4 	ldrdeq	r8, [r0], -r4
 564:	00000004 	andeq	r0, r0, r4
 568:	0000000c 	andeq	r0, r0, ip
 56c:	ffffffff 			; <UNDEFINED> instruction: 0xffffffff
 570:	7c020001 	stcvc	0, cr0, [r2], {1}
 574:	000d0c0e 	andeq	r0, sp, lr, lsl #24
 578:	00000018 	andeq	r0, r0, r8, lsl r0
 57c:	00000568 	andeq	r0, r0, r8, ror #10
 580:	00008ff0 	strdeq	r8, [r0], -r0
 584:	00000064 	andeq	r0, r0, r4, rrx
 588:	84100e46 	ldrhi	r0, [r0], #-3654	; 0xfffff1ba
 58c:	86038504 	strhi	r8, [r3], -r4, lsl #10
 590:	00018e02 	andeq	r8, r1, r2, lsl #28
 594:	00000014 	andeq	r0, r0, r4, lsl r0
 598:	00000568 	andeq	r0, r0, r8, ror #10
 59c:	00009054 	andeq	r9, r0, r4, asr r0
 5a0:	00000010 	andeq	r0, r0, r0, lsl r0
 5a4:	84080e42 	strhi	r0, [r8], #-3650	; 0xfffff1be
 5a8:	00018e02 	andeq	r8, r1, r2, lsl #28
 5ac:	00000014 	andeq	r0, r0, r4, lsl r0
 5b0:	00000568 	andeq	r0, r0, r8, ror #10
 5b4:	00009064 	andeq	r9, r0, r4, rrx
 5b8:	00000024 	andeq	r0, r0, r4, lsr #32
 5bc:	84080e46 	strhi	r0, [r8], #-3654	; 0xfffff1ba
 5c0:	00018e02 	andeq	r8, r1, r2, lsl #28
 5c4:	00000014 	andeq	r0, r0, r4, lsl r0
 5c8:	00000568 	andeq	r0, r0, r8, ror #10
 5cc:	00009088 	andeq	r9, r0, r8, lsl #1
 5d0:	00000024 	andeq	r0, r0, r4, lsr #32
 5d4:	84080e46 	strhi	r0, [r8], #-3654	; 0xfffff1ba
 5d8:	00018e02 	andeq	r8, r1, r2, lsl #28
 5dc:	00000014 	andeq	r0, r0, r4, lsl r0
 5e0:	00000568 	andeq	r0, r0, r8, ror #10
 5e4:	000090ac 	andeq	r9, r0, ip, lsr #1
 5e8:	00000010 	andeq	r0, r0, r0, lsl r0
 5ec:	84080e42 	strhi	r0, [r8], #-3650	; 0xfffff1be
 5f0:	00018e02 	andeq	r8, r1, r2, lsl #28
 5f4:	00000014 	andeq	r0, r0, r4, lsl r0
 5f8:	00000568 	andeq	r0, r0, r8, ror #10
 5fc:	000090bc 	strheq	r9, [r0], -ip
 600:	0000001c 	andeq	r0, r0, ip, lsl r0
 604:	84080e42 	strhi	r0, [r8], #-3650	; 0xfffff1be
 608:	00018e02 	andeq	r8, r1, r2, lsl #28
 60c:	00000018 	andeq	r0, r0, r8, lsl r0
 610:	00000568 	andeq	r0, r0, r8, ror #10
 614:	000090d8 	ldrdeq	r9, [r0], -r8
 618:	00000034 	andeq	r0, r0, r4, lsr r0
 61c:	84080e46 	strhi	r0, [r8], #-3654	; 0xfffff1ba
 620:	4e018e02 	cdpmi	14, 0, cr8, cr1, cr2, {0}
 624:	cec4000e 	cdpgt	0, 12, cr0, cr4, cr14, {0}
